TN:
SF:/home/john/cse701/roc/include/vectorf.hpp
FN:69,_ZN7vectorfIdE4dataEv
FNDA:100,_ZN7vectorfIdE4dataEv
FN:98,_ZN7vectorfIdEC2ERKm
FNDA:0,_ZN7vectorfIdEC2ERKm
FN:106,_ZN7vectorfIdEC2ERKSt6vectorIdSaIdEE
FNDA:0,_ZN7vectorfIdEC2ERKSt6vectorIdSaIdEE
FN:165,_ZNK7vectorfIdE8get_sizeEv
FNDA:0,_ZNK7vectorfIdE8get_sizeEv
FN:172,_ZN7vectorfIdEclERKm
FNDA:2350,_ZN7vectorfIdEclERKm
FN:179,_ZNK7vectorfIdEclERKm
FNDA:4999,_ZNK7vectorfIdEclERKm
DA:69,100
DA:98,0
DA:100,0
DA:101,0
DA:102,0
DA:103,0
DA:106,0
DA:108,0
DA:109,0
DA:110,0
DA:111,0
DA:112,0
DA:165,0
DA:167,0
DA:172,2350
DA:174,2350
DA:179,4999
DA:181,4999
end_of_record
SF:/usr/include/c++/9/cmath
FN:619,_ZSt5isnand
FNDA:0,_ZSt5isnand
DA:619,0
DA:620,0
end_of_record
SF:/usr/include/c++/9/bits/stl_iterator_base_types.h
FN:205,_ZSt19__iterator_categoryIPcENSt15iterator_traitsIT_E17iterator_categoryERKS2_
FNDA:0,_ZSt19__iterator_categoryIPcENSt15iterator_traitsIT_E17iterator_categoryERKS2_
FN:205,_ZSt19__iterator_categoryIPKcENSt15iterator_traitsIT_E17iterator_categoryERKS3_
FNDA:0,_ZSt19__iterator_categoryIPKcENSt15iterator_traitsIT_E17iterator_categoryERKS3_
DA:205,0
DA:206,0
DA:205,0
DA:206,0
end_of_record
SF:/usr/include/c++/9/iostream
end_of_record
SF:/usr/include/c++/9/bits/stl_vector.h
FN:915,_ZNKSt6vectorIdSaIdEE4sizeEv
FNDA:0,_ZNKSt6vectorIdSaIdEE4sizeEv
FN:1058,_ZNKSt6vectorIdSaIdEEixEm
FNDA:0,_ZNKSt6vectorIdSaIdEEixEm
DA:915,0
DA:916,0
DA:1058,0
DA:1061,0
end_of_record
SF:/usr/include/c++/9/ext/new_allocator.h
FN:80,_ZN9__gnu_cxx13new_allocatorIcEC2Ev
FNDA:0,_ZN9__gnu_cxx13new_allocatorIcEC2Ev
FN:83,_ZN9__gnu_cxx13new_allocatorIcEC2ERKS1_
FNDA:0,_ZN9__gnu_cxx13new_allocatorIcEC2ERKS1_
FN:89,_ZN9__gnu_cxx13new_allocatorIcED2Ev
FNDA:0,_ZN9__gnu_cxx13new_allocatorIcED2Ev
DA:80,0
DA:83,0
DA:89,0
end_of_record
SF:/usr/include/c++/9/bits/basic_string.h
FN:243,_ZNSt7__cxx1112basic_stringIcSt11char_traitsIcESaIcEE16_M_construct_auxIPcEEvT_S7_St12__false_type
FNDA:0,_ZNSt7__cxx1112basic_stringIcSt11char_traitsIcESaIcEE16_M_construct_auxIPcEEvT_S7_St12__false_type
FN:243,_ZNSt7__cxx1112basic_stringIcSt11char_traitsIcESaIcEE16_M_construct_auxIPKcEEvT_S8_St12__false_type
FNDA:0,_ZNSt7__cxx1112basic_stringIcSt11char_traitsIcESaIcEE16_M_construct_auxIPKcEEvT_S8_St12__false_type
FN:263,_ZNSt7__cxx1112basic_stringIcSt11char_traitsIcESaIcEE12_M_constructIPcEEvT_S7_
FNDA:0,_ZNSt7__cxx1112basic_stringIcSt11char_traitsIcESaIcEE12_M_constructIPcEEvT_S7_
FN:263,_ZNSt7__cxx1112basic_stringIcSt11char_traitsIcESaIcEE12_M_constructIPKcEEvT_S8_
FNDA:0,_ZNSt7__cxx1112basic_stringIcSt11char_traitsIcESaIcEE12_M_constructIPKcEEvT_S8_
FN:525,_ZNSt7__cxx1112basic_stringIcSt11char_traitsIcESaIcEEC2IS3_EEPKcRKS3_
FNDA:0,_ZNSt7__cxx1112basic_stringIcSt11char_traitsIcESaIcEEC2IS3_EEPKcRKS3_
FN:625,_ZNSt7__cxx1112basic_stringIcSt11char_traitsIcESaIcEEC2IPcvEET_S7_RKS3_
FNDA:0,_ZNSt7__cxx1112basic_stringIcSt11char_traitsIcESaIcEEC2IPcvEET_S7_RKS3_
FN:6097,_ZStplIcSt11char_traitsIcESaIcEENSt7__cxx1112basic_stringIT_T0_T1_EEOS8_S9_
FNDA:0,_ZStplIcSt11char_traitsIcESaIcEENSt7__cxx1112basic_stringIT_T0_T1_EEOS8_S9_
FN:6109,_ZStplIcSt11char_traitsIcESaIcEENSt7__cxx1112basic_stringIT_T0_T1_EEPKS5_OS8_
FNDA:0,_ZStplIcSt11char_traitsIcESaIcEENSt7__cxx1112basic_stringIT_T0_T1_EEPKS5_OS8_
FN:6121,_ZStplIcSt11char_traitsIcESaIcEENSt7__cxx1112basic_stringIT_T0_T1_EEOS8_PKS5_
FNDA:0,_ZStplIcSt11char_traitsIcESaIcEENSt7__cxx1112basic_stringIT_T0_T1_EEOS8_PKS5_
FN:6546,_ZNSt7__cxx119to_stringEi
FNDA:0,_ZNSt7__cxx119to_stringEi
FN:6562,_ZNSt7__cxx119to_stringEm
FNDA:0,_ZNSt7__cxx119to_stringEm
FN:6589,_ZNSt7__cxx119to_stringEd
FNDA:5,_ZNSt7__cxx119to_stringEd
DA:243,0
DA:247,0
DA:248,0
DA:243,0
DA:247,0
DA:248,0
DA:263,0
DA:266,0
DA:267,0
DA:263,0
DA:266,0
DA:267,0
DA:525,0
DA:526,0
DA:527,0
DA:625,0
DA:627,0
DA:628,0
DA:6097,0
DA:6100,0
DA:6101,0
DA:6102,0
DA:6103,0
DA:6104,0
DA:6109,0
DA:6111,0
DA:6121,0
DA:6123,0
DA:6546,0
DA:6548,0
DA:6562,0
DA:6565,0
DA:6589,5
DA:6591,5
DA:6594,5
end_of_record
SF:/home/john/cse701/roc/src/sixterm.cpp
FN:13,_Z19constructSixTermRowRK7vectorfIdEiRdS3_S3_S3_S3_
FNDA:332,_Z19constructSixTermRowRK7vectorfIdEiRdS3_S3_S3_S3_
FN:23,_Z22constructSixTermSystemRK7vectorfIdEiiR6matrixIdERS0_
FNDA:15,_Z22constructSixTermSystemRK7vectorfIdEiiR6matrixIdERS0_
FN:57,_Z9testBeta4d
FNDA:14,_Z9testBeta4d
FN:68,_Z9testRCSixd
FNDA:14,_Z9testRCSixd
FN:78,_Z12testCosThetad
FNDA:16,_Z12testCosThetad
FN:95,_Z20testSingularityOrderdd
FNDA:16,_Z20testSingularityOrderdd
FN:125,_Z12errorSixTermRK7vectorfIdES2_
FNDA:12,_Z12errorSixTermRK7vectorfIdES2_
FN:152,_Z7sixtermRKSt6vectorIdSaIdEERKdRdS6_
FNDA:14,_Z7sixtermRKSt6vectorIdSaIdEERKdRdS6_
DA:13,332
DA:16,332
DA:17,332
DA:18,332
DA:19,332
DA:20,332
DA:21,332
DA:23,15
DA:27,15
DA:30,2
DA:31,4
DA:32,4
DA:33,1
DA:34,2
DA:35,1
DA:38,14
DA:41,2
DA:42,4
DA:43,1
DA:44,2
DA:45,1
DA:47,104
DA:49,91
DA:55,13
DA:57,14
DA:59,14
DA:62,2
DA:63,3
DA:64,1
DA:66,13
DA:68,14
DA:70,14
DA:73,2
DA:74,1
DA:76,13
DA:78,16
DA:80,16
DA:84,2
DA:85,1
DA:87,15
DA:89,6
DA:90,9
DA:91,3
DA:93,12
DA:95,16
DA:97,16
DA:98,16
DA:101,2
DA:102,1
DA:105,15
DA:106,5
DA:108,15
DA:109,1
DA:111,15
DA:112,9
DA:114,15
DA:115,15
DA:117,1
DA:118,1
DA:121,15
DA:125,12
DA:127,12
DA:129,24
DA:130,12
DA:131,252
DA:133,240
DA:134,240
DA:135,240
DA:137,12
DA:138,12
DA:139,12
DA:140,24
DA:152,14
DA:155,14
DA:156,14
DA:157,14
DA:158,28
DA:159,28
DA:160,28
DA:163,14
DA:166,2
DA:167,2
DA:168,1
DA:172,13
DA:174,13
DA:175,13
DA:178,13
DA:181,13
DA:182,13
DA:185,13
DA:186,13
DA:189,13
DA:190,13
DA:193,13
DA:194,13
DA:197,12
DA:198,12
DA:199,12
DA:201,24
end_of_record
SF:/usr/include/c++/9/ext/string_conversions.h
FN:99,_ZN9__gnu_cxx12__to_xstringINSt7__cxx1112basic_stringIcSt11char_traitsIcESaIcEEEcEET_PFiPT0_mPKS8_P13__va_list_tagEmSB_z
FNDA:0,_ZN9__gnu_cxx12__to_xstringINSt7__cxx1112basic_stringIcSt11char_traitsIcESaIcEEEcEET_PFiPT0_mPKS8_P13__va_list_tagEmSB_z
DA:99,0
DA:105,0
DA:109,0
DA:111,0
DA:113,0
DA:115,0
end_of_record
SF:/usr/include/c++/9/bits/ios_base.h
FN:83,_ZStanSt13_Ios_FmtflagsS_
FNDA:0,_ZStanSt13_Ios_FmtflagsS_
FN:87,_ZStorSt13_Ios_FmtflagsS_
FNDA:0,_ZStorSt13_Ios_FmtflagsS_
FN:95,_ZStcoSt13_Ios_Fmtflags
FNDA:0,_ZStcoSt13_Ios_Fmtflags
FN:99,_ZStoRRSt13_Ios_FmtflagsS_
FNDA:0,_ZStoRRSt13_Ios_FmtflagsS_
FN:103,_ZStaNRSt13_Ios_FmtflagsS_
FNDA:0,_ZStaNRSt13_Ios_FmtflagsS_
FN:670,_ZNSt8ios_base4setfESt13_Ios_FmtflagsS0_
FNDA:0,_ZNSt8ios_base4setfESt13_Ios_FmtflagsS0_
FN:705,_ZNSt8ios_base9precisionEl
FNDA:0,_ZNSt8ios_base9precisionEl
FN:1056,_ZSt10scientificRSt8ios_base
FNDA:0,_ZSt10scientificRSt8ios_base
DA:83,0
DA:84,0
DA:87,0
DA:88,0
DA:95,0
DA:96,0
DA:99,0
DA:100,0
DA:103,0
DA:104,0
DA:670,0
DA:672,0
DA:673,0
DA:674,0
DA:675,0
DA:705,0
DA:707,0
DA:708,0
DA:709,0
DA:1056,0
DA:1058,0
DA:1059,0
end_of_record
SF:/usr/include/c++/9/bits/basic_string.tcc
FN:206,_ZNSt7__cxx1112basic_stringIcSt11char_traitsIcESaIcEE12_M_constructIPcEEvT_S7_St20forward_iterator_tag
FNDA:0,_ZNSt7__cxx1112basic_stringIcSt11char_traitsIcESaIcEE12_M_constructIPcEEvT_S7_St20forward_iterator_tag
FN:206,_ZNSt7__cxx1112basic_stringIcSt11char_traitsIcESaIcEE12_M_constructIPKcEEvT_S8_St20forward_iterator_tag
FNDA:0,_ZNSt7__cxx1112basic_stringIcSt11char_traitsIcESaIcEE12_M_constructIPKcEEvT_S8_St20forward_iterator_tag
DA:206,0
DA:211,0
DA:212,0
DA:215,0
DA:217,0
DA:219,0
DA:220,0
DA:225,0
DA:226,0
DA:228,0
DA:229,0
DA:232,0
DA:233,0
DA:206,0
DA:211,0
DA:212,0
DA:215,0
DA:217,0
DA:219,0
DA:220,0
DA:225,0
DA:226,0
DA:228,0
DA:229,0
DA:232,0
DA:233,0
end_of_record
SF:/usr/include/c++/9/bits/move.h
FN:99,_ZSt4moveIRPdEONSt16remove_referenceIT_E4typeEOS3_
FNDA:0,_ZSt4moveIRPdEONSt16remove_referenceIT_E4typeEOS3_
FN:99,_ZSt4moveIRSaIcEEONSt16remove_referenceIT_E4typeEOS3_
FNDA:0,_ZSt4moveIRSaIcEEONSt16remove_referenceIT_E4typeEOS3_
FN:99,_ZSt4moveIRNSt7__cxx1112basic_stringIcSt11char_traitsIcESaIcEEEEONSt16remove_referenceIT_E4typeEOS8_
FNDA:0,_ZSt4moveIRNSt7__cxx1112basic_stringIcSt11char_traitsIcESaIcEEEEONSt16remove_referenceIT_E4typeEOS8_
FN:182,_ZSt4swapIPdENSt9enable_ifIXsrSt6__and_IJSt6__not_ISt15__is_tuple_likeIT_EESt21is_move_constructibleIS5_ESt18is_move_assignableIS5_EEE5valueEvE4typeERS5_SF_
FNDA:0,_ZSt4swapIPdENSt9enable_ifIXsrSt6__and_IJSt6__not_ISt15__is_tuple_likeIT_EESt21is_move_constructibleIS5_ESt18is_move_assignableIS5_EEE5valueEvE4typeERS5_SF_
DA:99,0
DA:100,0
DA:99,0
DA:100,0
DA:99,0
DA:100,0
DA:182,0
DA:193,0
DA:194,0
DA:195,0
DA:196,0
end_of_record
SF:/usr/include/c++/9/bits/exception.h
FN:63,_ZNSt9exceptionC2Ev
FNDA:0,_ZNSt9exceptionC2Ev
DA:63,0
end_of_record
SF:/usr/include/c++/9/bits/stl_iterator_base_funcs.h
FN:98,_ZSt10__distanceIPcENSt15iterator_traitsIT_E15difference_typeES2_S2_St26random_access_iterator_tag
FNDA:0,_ZSt10__distanceIPcENSt15iterator_traitsIT_E15difference_typeES2_S2_St26random_access_iterator_tag
FN:98,_ZSt10__distanceIPKcENSt15iterator_traitsIT_E15difference_typeES3_S3_St26random_access_iterator_tag
FNDA:0,_ZSt10__distanceIPKcENSt15iterator_traitsIT_E15difference_typeES3_S3_St26random_access_iterator_tag
FN:138,_ZSt8distanceIPcENSt15iterator_traitsIT_E15difference_typeES2_S2_
FNDA:0,_ZSt8distanceIPcENSt15iterator_traitsIT_E15difference_typeES2_S2_
FN:138,_ZSt8distanceIPKcENSt15iterator_traitsIT_E15difference_typeES3_S3_
FNDA:0,_ZSt8distanceIPKcENSt15iterator_traitsIT_E15difference_typeES3_S3_
DA:98,0
DA:104,0
DA:98,0
DA:104,0
DA:138,0
DA:141,0
DA:142,0
DA:138,0
DA:141,0
DA:142,0
end_of_record
SF:/usr/include/c++/9/ext/alloc_traits.h
FN:97,_ZN9__gnu_cxx14__alloc_traitsISaIcEcE17_S_select_on_copyERKS1_
FNDA:0,_ZN9__gnu_cxx14__alloc_traitsISaIcEcE17_S_select_on_copyERKS1_
DA:97,0
DA:98,0
end_of_record
SF:/usr/include/c++/9/bits/unique_ptr.h
FN:111,_ZNKSt14default_deleteIA_dEclIdEENSt9enable_ifIXsrSt14is_convertibleIPA_T_PS0_E5valueEvE4typeEPS5_
FNDA:0,_ZNKSt14default_deleteIA_dEclIdEENSt9enable_ifIXsrSt14is_convertibleIPA_T_PS0_E5valueEvE4typeEPS5_
FN:146,_ZNSt15__uniq_ptr_implIdSt14default_deleteIA_dEEC2Ev
FNDA:0,_ZNSt15__uniq_ptr_implIdSt14default_deleteIA_dEEC2Ev
FN:153,_ZNSt15__uniq_ptr_implIdSt14default_deleteIA_dEE6_M_ptrEv
FNDA:0,_ZNSt15__uniq_ptr_implIdSt14default_deleteIA_dEE6_M_ptrEv
FN:154,_ZNKSt15__uniq_ptr_implIdSt14default_deleteIA_dEE6_M_ptrEv
FNDA:0,_ZNKSt15__uniq_ptr_implIdSt14default_deleteIA_dEE6_M_ptrEv
FN:155,_ZNSt15__uniq_ptr_implIdSt14default_deleteIA_dEE10_M_deleterEv
FNDA:0,_ZNSt15__uniq_ptr_implIdSt14default_deleteIA_dEE10_M_deleterEv
FN:541,_ZNSt10unique_ptrIA_dSt14default_deleteIS0_EEC2IS2_vEEDn
FNDA:0,_ZNSt10unique_ptrIA_dSt14default_deleteIS0_EEC2IS2_vEEDn
FN:555,_ZNSt10unique_ptrIA_dSt14default_deleteIS0_EED2Ev
FNDA:0,_ZNSt10unique_ptrIA_dSt14default_deleteIS0_EED2Ev
FN:619,_ZNKSt10unique_ptrIA_dSt14default_deleteIS0_EE3getEv
FNDA:0,_ZNKSt10unique_ptrIA_dSt14default_deleteIS0_EE3getEv
FN:624,_ZNSt10unique_ptrIA_dSt14default_deleteIS0_EE11get_deleterEv
FNDA:0,_ZNSt10unique_ptrIA_dSt14default_deleteIS0_EE11get_deleterEv
FN:666,_ZNSt10unique_ptrIA_dSt14default_deleteIS0_EE5resetIPdvEEvT_
FNDA:0,_ZNSt10unique_ptrIA_dSt14default_deleteIS0_EE5resetIPdvEEvT_
DA:111,0
DA:115,0
DA:116,0
DA:146,0
DA:153,0
DA:154,0
DA:155,0
DA:541,0
DA:542,0
DA:543,0
DA:555,0
DA:557,0
DA:558,0
DA:559,0
DA:560,0
DA:561,0
DA:619,0
DA:620,0
DA:624,0
DA:625,0
DA:666,0
DA:668,0
DA:670,0
DA:671,0
DA:672,0
DA:673,0
end_of_record
SF:/usr/include/c++/9/tuple
FN:76,_ZNSt10_Head_baseILm1ESt14default_deleteIA_dELb1EEC2Ev
FNDA:0,_ZNSt10_Head_baseILm1ESt14default_deleteIA_dELb1EEC2Ev
FN:113,_ZNSt10_Head_baseILm1ESt14default_deleteIA_dELb1EE7_M_headERS3_
FNDA:0,_ZNSt10_Head_baseILm1ESt14default_deleteIA_dELb1EE7_M_headERS3_
FN:122,_ZNSt10_Head_baseILm0EPdLb0EEC2Ev
FNDA:0,_ZNSt10_Head_baseILm0EPdLb0EEC2Ev
FN:160,_ZNSt10_Head_baseILm0EPdLb0EE7_M_headERS1_
FNDA:0,_ZNSt10_Head_baseILm0EPdLb0EE7_M_headERS1_
FN:163,_ZNSt10_Head_baseILm0EPdLb0EE7_M_headERKS1_
FNDA:0,_ZNSt10_Head_baseILm0EPdLb0EE7_M_headERKS1_
FN:195,_ZNSt11_Tuple_implILm0EJPdSt14default_deleteIA_dEEE7_M_headERS4_
FNDA:0,_ZNSt11_Tuple_implILm0EJPdSt14default_deleteIA_dEEE7_M_headERS4_
FN:198,_ZNSt11_Tuple_implILm0EJPdSt14default_deleteIA_dEEE7_M_headERKS4_
FNDA:0,_ZNSt11_Tuple_implILm0EJPdSt14default_deleteIA_dEEE7_M_headERKS4_
FN:206,_ZNSt11_Tuple_implILm0EJPdSt14default_deleteIA_dEEEC2Ev
FNDA:0,_ZNSt11_Tuple_implILm0EJPdSt14default_deleteIA_dEEEC2Ev
FN:334,_ZNSt11_Tuple_implILm1EJSt14default_deleteIA_dEEE7_M_headERS3_
FNDA:0,_ZNSt11_Tuple_implILm1EJSt14default_deleteIA_dEEE7_M_headERS3_
FN:339,_ZNSt11_Tuple_implILm1EJSt14default_deleteIA_dEEEC2Ev
FNDA:0,_ZNSt11_Tuple_implILm1EJSt14default_deleteIA_dEEEC2Ev
FN:918,_ZNSt5tupleIJPdSt14default_deleteIA_dEEEC2IS0_S3_Lb1EEEv
FNDA:0,_ZNSt5tupleIJPdSt14default_deleteIA_dEEEC2IS0_S3_Lb1EEEv
FN:1309,_ZSt12__get_helperILm1ESt14default_deleteIA_dEJEERT0_RSt11_Tuple_implIXT_EJS3_DpT1_EE
FNDA:0,_ZSt12__get_helperILm1ESt14default_deleteIA_dEJEERT0_RSt11_Tuple_implIXT_EJS3_DpT1_EE
FN:1309,_ZSt12__get_helperILm0EPdJSt14default_deleteIA_dEEERT0_RSt11_Tuple_implIXT_EJS4_DpT1_EE
FNDA:0,_ZSt12__get_helperILm0EPdJSt14default_deleteIA_dEEERT0_RSt11_Tuple_implIXT_EJS4_DpT1_EE
FN:1314,_ZSt12__get_helperILm0EPdJSt14default_deleteIA_dEEERKT0_RKSt11_Tuple_implIXT_EJS4_DpT1_EE
FNDA:0,_ZSt12__get_helperILm0EPdJSt14default_deleteIA_dEEERKT0_RKSt11_Tuple_implIXT_EJS4_DpT1_EE
FN:1320,_ZSt3getILm1EJPdSt14default_deleteIA_dEEERNSt13tuple_elementIXT_ESt5tupleIJDpT0_EEE4typeERS8_
FNDA:0,_ZSt3getILm1EJPdSt14default_deleteIA_dEEERNSt13tuple_elementIXT_ESt5tupleIJDpT0_EEE4typeERS8_
FN:1320,_ZSt3getILm0EJPdSt14default_deleteIA_dEEERNSt13tuple_elementIXT_ESt5tupleIJDpT0_EEE4typeERS8_
FNDA:0,_ZSt3getILm0EJPdSt14default_deleteIA_dEEERNSt13tuple_elementIXT_ESt5tupleIJDpT0_EEE4typeERS8_
FN:1326,_ZSt3getILm0EJPdSt14default_deleteIA_dEEERKNSt13tuple_elementIXT_ESt5tupleIJDpT0_EEE4typeERKS8_
FNDA:0,_ZSt3getILm0EJPdSt14default_deleteIA_dEEERKNSt13tuple_elementIXT_ESt5tupleIJDpT0_EEE4typeERKS8_
DA:76,0
DA:77,0
DA:113,0
DA:122,0
DA:123,0
DA:160,0
DA:163,0
DA:195,0
DA:198,0
DA:206,0
DA:207,0
DA:334,0
DA:339,0
DA:340,0
DA:918,0
DA:919,0
DA:1309,0
DA:1310,0
DA:1309,0
DA:1310,0
DA:1314,0
DA:1315,0
DA:1320,0
DA:1321,0
DA:1320,0
DA:1321,0
DA:1326,0
DA:1327,0
end_of_record
SF:/usr/include/c++/9/bits/alloc_traits.h
FN:514,_ZNSt16allocator_traitsISaIcEE37select_on_container_copy_constructionERKS0_
FNDA:0,_ZNSt16allocator_traitsISaIcEE37select_on_container_copy_constructionERKS0_
DA:514,0
DA:515,0
end_of_record
SF:/usr/include/c++/9/bits/char_traits.h
FN:100,_ZN9__gnu_cxx11char_traitsIcE2eqERKcS3_
FNDA:0,_ZN9__gnu_cxx11char_traitsIcE2eqERKcS3_
FN:161,_ZN9__gnu_cxx11char_traitsIcE6lengthEPKc
FNDA:0,_ZN9__gnu_cxx11char_traitsIcE6lengthEPKc
FN:329,_ZNSt11char_traitsIcE6lengthEPKc
FNDA:0,_ZNSt11char_traitsIcE6lengthEPKc
FN:361,_ZNSt11char_traitsIcE4copyEPcPKcm
FNDA:0,_ZNSt11char_traitsIcE4copyEPcPKcm
DA:100,0
DA:101,0
DA:161,0
DA:164,0
DA:165,0
DA:166,0
DA:167,0
DA:236,0
DA:329,0
DA:332,0
DA:333,0
DA:335,0
DA:361,0
DA:363,0
DA:364,0
DA:365,0
end_of_record
SF:/usr/include/c++/9/ext/type_traits.h
FN:152,_ZN9__gnu_cxx17__is_null_pointerIcEEbPT_
FNDA:0,_ZN9__gnu_cxx17__is_null_pointerIcEEbPT_
FN:152,_ZN9__gnu_cxx17__is_null_pointerIKcEEbPT_
FNDA:0,_ZN9__gnu_cxx17__is_null_pointerIKcEEbPT_
DA:152,0
DA:153,0
DA:152,0
DA:153,0
end_of_record
SF:/home/john/cse701/roc/include/exceptions.hpp
FN:10,_ZN10sayMessageC2ERKNSt7__cxx1112basic_stringIcSt11char_traitsIcESaIcEEE
FNDA:0,_ZN10sayMessageC2ERKNSt7__cxx1112basic_stringIcSt11char_traitsIcESaIcEEE
FN:11,_ZNK10sayMessage4whatEv
FNDA:0,_ZNK10sayMessage4whatEv
DA:10,0
DA:11,0
end_of_record
SF:/home/john/cse701/roc/include/matrix.hpp
FN:94,_ZN6matrixIdE4dataEv
FNDA:34,_ZN6matrixIdE4dataEv
FN:127,_ZN6matrixIdEC2ERKmS2_
FNDA:0,_ZN6matrixIdEC2ERKmS2_
FN:234,_ZNK6matrixIdE8get_rowsEv
FNDA:0,_ZNK6matrixIdE8get_rowsEv
FN:240,_ZNK6matrixIdE8get_colsEv
FNDA:0,_ZNK6matrixIdE8get_colsEv
FN:247,_ZN6matrixIdEclERKmS2_
FNDA:0,_ZN6matrixIdEclERKmS2_
DA:94,34
DA:127,0
DA:128,0
DA:130,0
DA:131,0
DA:132,0
DA:133,0
DA:134,0
DA:234,0
DA:236,0
DA:240,0
DA:242,0
DA:247,0
DA:249,0
end_of_record
TN:
SF:/home/john/cse701/roc/src/norm2.cpp
FN:8,_Z5norm2iPd
FNDA:66,_Z5norm2iPd
DA:8,66
DA:10,66
DA:11,132
end_of_record
TN:
SF:/home/john/cse701/roc/src/threeterm.cpp
FN:11,_Z21constructThreeTermRowRK7vectorfIdEiRdS3_S3_
FNDA:513,_Z21constructThreeTermRowRK7vectorfIdEiRdS3_S3_
FN:19,_Z24constructThreeTermSystemRK7vectorfIdEiiR6matrixIdERS0_
FNDA:19,_Z24constructThreeTermSystemRK7vectorfIdEiiR6matrixIdERS0_
FN:32,_Z11testRCThreed
FNDA:20,_Z11testRCThreed
FN:42,_Z9testOrderd
FNDA:20,_Z9testOrderd
FN:53,_Z14errorThreeTermRK7vectorfIdES2_
FNDA:19,_Z14errorThreeTermRK7vectorfIdES2_
FN:72,_Z9threetermRKSt6vectorIdSaIdEERKdRdS6_
FNDA:19,_Z9threetermRKSt6vectorIdSaIdEERKdRdS6_
DA:11,513
DA:14,513
DA:15,513
DA:16,513
DA:17,513
DA:19,19
DA:22,152
DA:24,133
DA:30,19
DA:32,20
DA:34,20
DA:37,2
DA:38,1
DA:40,19
DA:42,20
DA:44,20
DA:47,2
DA:48,1
DA:50,19
DA:53,19
DA:55,19
DA:57,38
DA:58,19
DA:59,399
DA:61,380
DA:62,380
DA:63,380
DA:65,19
DA:66,19
DA:67,19
DA:68,38
DA:72,19
DA:75,19
DA:76,19
DA:77,38
DA:78,38
DA:79,38
DA:82,19
DA:84,19
DA:85,19
DA:88,19
DA:91,19
DA:92,19
DA:93,19
DA:95,19
DA:96,19
DA:98,38
end_of_record
SF:/usr/include/c++/9/bits/char_traits.h
FN:100,_ZN9__gnu_cxx11char_traitsIcE2eqERKcS3_
FNDA:0,_ZN9__gnu_cxx11char_traitsIcE2eqERKcS3_
FN:161,_ZN9__gnu_cxx11char_traitsIcE6lengthEPKc
FNDA:0,_ZN9__gnu_cxx11char_traitsIcE6lengthEPKc
FN:329,_ZNSt11char_traitsIcE6lengthEPKc
FNDA:0,_ZNSt11char_traitsIcE6lengthEPKc
DA:100,0
DA:101,0
DA:161,0
DA:164,0
DA:165,0
DA:166,0
DA:167,0
DA:236,0
DA:329,0
DA:332,0
DA:333,0
DA:335,0
end_of_record
SF:/usr/include/c++/9/bits/alloc_traits.h
FN:514,_ZNSt16allocator_traitsISaIcEE37select_on_container_copy_constructionERKS0_
FNDA:0,_ZNSt16allocator_traitsISaIcEE37select_on_container_copy_constructionERKS0_
DA:514,0
DA:515,0
end_of_record
SF:/home/john/cse701/roc/include/matrix.hpp
FN:94,_ZN6matrixIdE4dataEv
FNDA:0,_ZN6matrixIdE4dataEv
FN:127,_ZN6matrixIdEC2ERKmS2_
FNDA:0,_ZN6matrixIdEC2ERKmS2_
FN:247,_ZN6matrixIdEclERKmS2_
FNDA:0,_ZN6matrixIdEclERKmS2_
DA:94,0
DA:127,0
DA:128,0
DA:130,0
DA:131,0
DA:132,0
DA:133,0
DA:134,0
DA:247,0
DA:249,0
end_of_record
SF:/usr/include/c++/9/ext/type_traits.h
FN:152,_ZN9__gnu_cxx17__is_null_pointerIcEEbPT_
FNDA:0,_ZN9__gnu_cxx17__is_null_pointerIcEEbPT_
FN:152,_ZN9__gnu_cxx17__is_null_pointerIKcEEbPT_
FNDA:0,_ZN9__gnu_cxx17__is_null_pointerIKcEEbPT_
DA:152,0
DA:153,0
DA:152,0
DA:153,0
end_of_record
SF:/home/john/cse701/roc/include/exceptions.hpp
FN:10,_ZN10sayMessageC2ERKNSt7__cxx1112basic_stringIcSt11char_traitsIcESaIcEEE
FNDA:0,_ZN10sayMessageC2ERKNSt7__cxx1112basic_stringIcSt11char_traitsIcESaIcEEE
FN:11,_ZNK10sayMessage4whatEv
FNDA:0,_ZNK10sayMessage4whatEv
DA:10,0
DA:11,0
end_of_record
SF:/usr/include/c++/9/bits/unique_ptr.h
FN:111,_ZNKSt14default_deleteIA_dEclIdEENSt9enable_ifIXsrSt14is_convertibleIPA_T_PS0_E5valueEvE4typeEPS5_
FNDA:0,_ZNKSt14default_deleteIA_dEclIdEENSt9enable_ifIXsrSt14is_convertibleIPA_T_PS0_E5valueEvE4typeEPS5_
FN:146,_ZNSt15__uniq_ptr_implIdSt14default_deleteIA_dEEC2Ev
FNDA:0,_ZNSt15__uniq_ptr_implIdSt14default_deleteIA_dEEC2Ev
FN:153,_ZNSt15__uniq_ptr_implIdSt14default_deleteIA_dEE6_M_ptrEv
FNDA:0,_ZNSt15__uniq_ptr_implIdSt14default_deleteIA_dEE6_M_ptrEv
FN:154,_ZNKSt15__uniq_ptr_implIdSt14default_deleteIA_dEE6_M_ptrEv
FNDA:0,_ZNKSt15__uniq_ptr_implIdSt14default_deleteIA_dEE6_M_ptrEv
FN:155,_ZNSt15__uniq_ptr_implIdSt14default_deleteIA_dEE10_M_deleterEv
FNDA:0,_ZNSt15__uniq_ptr_implIdSt14default_deleteIA_dEE10_M_deleterEv
FN:541,_ZNSt10unique_ptrIA_dSt14default_deleteIS0_EEC2IS2_vEEDn
FNDA:0,_ZNSt10unique_ptrIA_dSt14default_deleteIS0_EEC2IS2_vEEDn
FN:555,_ZNSt10unique_ptrIA_dSt14default_deleteIS0_EED2Ev
FNDA:0,_ZNSt10unique_ptrIA_dSt14default_deleteIS0_EED2Ev
FN:619,_ZNKSt10unique_ptrIA_dSt14default_deleteIS0_EE3getEv
FNDA:0,_ZNKSt10unique_ptrIA_dSt14default_deleteIS0_EE3getEv
FN:624,_ZNSt10unique_ptrIA_dSt14default_deleteIS0_EE11get_deleterEv
FNDA:0,_ZNSt10unique_ptrIA_dSt14default_deleteIS0_EE11get_deleterEv
FN:666,_ZNSt10unique_ptrIA_dSt14default_deleteIS0_EE5resetIPdvEEvT_
FNDA:0,_ZNSt10unique_ptrIA_dSt14default_deleteIS0_EE5resetIPdvEEvT_
DA:111,0
DA:115,0
DA:116,0
DA:146,0
DA:153,0
DA:154,0
DA:155,0
DA:541,0
DA:542,0
DA:543,0
DA:555,0
DA:557,0
DA:558,0
DA:559,0
DA:560,0
DA:561,0
DA:619,0
DA:620,0
DA:624,0
DA:625,0
DA:666,0
DA:668,0
DA:670,0
DA:671,0
DA:672,0
DA:673,0
end_of_record
SF:/usr/include/c++/9/ext/alloc_traits.h
FN:97,_ZN9__gnu_cxx14__alloc_traitsISaIcEcE17_S_select_on_copyERKS1_
FNDA:0,_ZN9__gnu_cxx14__alloc_traitsISaIcEcE17_S_select_on_copyERKS1_
DA:97,0
DA:98,0
end_of_record
SF:/usr/include/c++/9/bits/stl_iterator_base_funcs.h
FN:98,_ZSt10__distanceIPcENSt15iterator_traitsIT_E15difference_typeES2_S2_St26random_access_iterator_tag
FNDA:0,_ZSt10__distanceIPcENSt15iterator_traitsIT_E15difference_typeES2_S2_St26random_access_iterator_tag
FN:98,_ZSt10__distanceIPKcENSt15iterator_traitsIT_E15difference_typeES3_S3_St26random_access_iterator_tag
FNDA:0,_ZSt10__distanceIPKcENSt15iterator_traitsIT_E15difference_typeES3_S3_St26random_access_iterator_tag
FN:138,_ZSt8distanceIPcENSt15iterator_traitsIT_E15difference_typeES2_S2_
FNDA:0,_ZSt8distanceIPcENSt15iterator_traitsIT_E15difference_typeES2_S2_
FN:138,_ZSt8distanceIPKcENSt15iterator_traitsIT_E15difference_typeES3_S3_
FNDA:0,_ZSt8distanceIPKcENSt15iterator_traitsIT_E15difference_typeES3_S3_
DA:98,0
DA:104,0
DA:98,0
DA:104,0
DA:138,0
DA:141,0
DA:142,0
DA:138,0
DA:141,0
DA:142,0
end_of_record
SF:/usr/include/c++/9/bits/exception.h
FN:63,_ZNSt9exceptionC2Ev
FNDA:0,_ZNSt9exceptionC2Ev
DA:63,0
end_of_record
SF:/usr/include/c++/9/bits/basic_string.tcc
FN:206,_ZNSt7__cxx1112basic_stringIcSt11char_traitsIcESaIcEE12_M_constructIPcEEvT_S7_St20forward_iterator_tag
FNDA:0,_ZNSt7__cxx1112basic_stringIcSt11char_traitsIcESaIcEE12_M_constructIPcEEvT_S7_St20forward_iterator_tag
FN:206,_ZNSt7__cxx1112basic_stringIcSt11char_traitsIcESaIcEE12_M_constructIPKcEEvT_S8_St20forward_iterator_tag
FNDA:0,_ZNSt7__cxx1112basic_stringIcSt11char_traitsIcESaIcEE12_M_constructIPKcEEvT_S8_St20forward_iterator_tag
DA:206,0
DA:211,0
DA:212,0
DA:215,0
DA:217,0
DA:219,0
DA:220,0
DA:225,0
DA:226,0
DA:228,0
DA:229,0
DA:232,0
DA:233,0
DA:206,0
DA:211,0
DA:212,0
DA:215,0
DA:217,0
DA:219,0
DA:220,0
DA:225,0
DA:226,0
DA:228,0
DA:229,0
DA:232,0
DA:233,0
end_of_record
SF:/usr/include/c++/9/bits/move.h
FN:99,_ZSt4moveIRPdEONSt16remove_referenceIT_E4typeEOS3_
FNDA:0,_ZSt4moveIRPdEONSt16remove_referenceIT_E4typeEOS3_
FN:99,_ZSt4moveIRSaIcEEONSt16remove_referenceIT_E4typeEOS3_
FNDA:0,_ZSt4moveIRSaIcEEONSt16remove_referenceIT_E4typeEOS3_
FN:182,_ZSt4swapIPdENSt9enable_ifIXsrSt6__and_IJSt6__not_ISt15__is_tuple_likeIT_EESt21is_move_constructibleIS5_ESt18is_move_assignableIS5_EEE5valueEvE4typeERS5_SF_
FNDA:0,_ZSt4swapIPdENSt9enable_ifIXsrSt6__and_IJSt6__not_ISt15__is_tuple_likeIT_EESt21is_move_constructibleIS5_ESt18is_move_assignableIS5_EEE5valueEvE4typeERS5_SF_
DA:99,0
DA:100,0
DA:99,0
DA:100,0
DA:182,0
DA:193,0
DA:194,0
DA:195,0
DA:196,0
end_of_record
SF:/usr/include/c++/9/tuple
FN:76,_ZNSt10_Head_baseILm1ESt14default_deleteIA_dELb1EEC2Ev
FNDA:0,_ZNSt10_Head_baseILm1ESt14default_deleteIA_dELb1EEC2Ev
FN:113,_ZNSt10_Head_baseILm1ESt14default_deleteIA_dELb1EE7_M_headERS3_
FNDA:0,_ZNSt10_Head_baseILm1ESt14default_deleteIA_dELb1EE7_M_headERS3_
FN:122,_ZNSt10_Head_baseILm0EPdLb0EEC2Ev
FNDA:0,_ZNSt10_Head_baseILm0EPdLb0EEC2Ev
FN:160,_ZNSt10_Head_baseILm0EPdLb0EE7_M_headERS1_
FNDA:0,_ZNSt10_Head_baseILm0EPdLb0EE7_M_headERS1_
FN:163,_ZNSt10_Head_baseILm0EPdLb0EE7_M_headERKS1_
FNDA:0,_ZNSt10_Head_baseILm0EPdLb0EE7_M_headERKS1_
FN:195,_ZNSt11_Tuple_implILm0EJPdSt14default_deleteIA_dEEE7_M_headERS4_
FNDA:0,_ZNSt11_Tuple_implILm0EJPdSt14default_deleteIA_dEEE7_M_headERS4_
FN:198,_ZNSt11_Tuple_implILm0EJPdSt14default_deleteIA_dEEE7_M_headERKS4_
FNDA:0,_ZNSt11_Tuple_implILm0EJPdSt14default_deleteIA_dEEE7_M_headERKS4_
FN:206,_ZNSt11_Tuple_implILm0EJPdSt14default_deleteIA_dEEEC2Ev
FNDA:0,_ZNSt11_Tuple_implILm0EJPdSt14default_deleteIA_dEEEC2Ev
FN:334,_ZNSt11_Tuple_implILm1EJSt14default_deleteIA_dEEE7_M_headERS3_
FNDA:0,_ZNSt11_Tuple_implILm1EJSt14default_deleteIA_dEEE7_M_headERS3_
FN:339,_ZNSt11_Tuple_implILm1EJSt14default_deleteIA_dEEEC2Ev
FNDA:0,_ZNSt11_Tuple_implILm1EJSt14default_deleteIA_dEEEC2Ev
FN:918,_ZNSt5tupleIJPdSt14default_deleteIA_dEEEC2IS0_S3_Lb1EEEv
FNDA:0,_ZNSt5tupleIJPdSt14default_deleteIA_dEEEC2IS0_S3_Lb1EEEv
FN:1309,_ZSt12__get_helperILm1ESt14default_deleteIA_dEJEERT0_RSt11_Tuple_implIXT_EJS3_DpT1_EE
FNDA:0,_ZSt12__get_helperILm1ESt14default_deleteIA_dEJEERT0_RSt11_Tuple_implIXT_EJS3_DpT1_EE
FN:1309,_ZSt12__get_helperILm0EPdJSt14default_deleteIA_dEEERT0_RSt11_Tuple_implIXT_EJS4_DpT1_EE
FNDA:0,_ZSt12__get_helperILm0EPdJSt14default_deleteIA_dEEERT0_RSt11_Tuple_implIXT_EJS4_DpT1_EE
FN:1314,_ZSt12__get_helperILm0EPdJSt14default_deleteIA_dEEERKT0_RKSt11_Tuple_implIXT_EJS4_DpT1_EE
FNDA:0,_ZSt12__get_helperILm0EPdJSt14default_deleteIA_dEEERKT0_RKSt11_Tuple_implIXT_EJS4_DpT1_EE
FN:1320,_ZSt3getILm1EJPdSt14default_deleteIA_dEEERNSt13tuple_elementIXT_ESt5tupleIJDpT0_EEE4typeERS8_
FNDA:0,_ZSt3getILm1EJPdSt14default_deleteIA_dEEERNSt13tuple_elementIXT_ESt5tupleIJDpT0_EEE4typeERS8_
FN:1320,_ZSt3getILm0EJPdSt14default_deleteIA_dEEERNSt13tuple_elementIXT_ESt5tupleIJDpT0_EEE4typeERS8_
FNDA:0,_ZSt3getILm0EJPdSt14default_deleteIA_dEEERNSt13tuple_elementIXT_ESt5tupleIJDpT0_EEE4typeERS8_
FN:1326,_ZSt3getILm0EJPdSt14default_deleteIA_dEEERKNSt13tuple_elementIXT_ESt5tupleIJDpT0_EEE4typeERKS8_
FNDA:0,_ZSt3getILm0EJPdSt14default_deleteIA_dEEERKNSt13tuple_elementIXT_ESt5tupleIJDpT0_EEE4typeERKS8_
DA:76,0
DA:77,0
DA:113,0
DA:122,0
DA:123,0
DA:160,0
DA:163,0
DA:195,0
DA:198,0
DA:206,0
DA:207,0
DA:334,0
DA:339,0
DA:340,0
DA:918,0
DA:919,0
DA:1309,0
DA:1310,0
DA:1309,0
DA:1310,0
DA:1314,0
DA:1315,0
DA:1320,0
DA:1321,0
DA:1320,0
DA:1321,0
DA:1326,0
DA:1327,0
end_of_record
SF:/usr/include/c++/9/bits/basic_string.h
FN:243,_ZNSt7__cxx1112basic_stringIcSt11char_traitsIcESaIcEE16_M_construct_auxIPcEEvT_S7_St12__false_type
FNDA:0,_ZNSt7__cxx1112basic_stringIcSt11char_traitsIcESaIcEE16_M_construct_auxIPcEEvT_S7_St12__false_type
FN:243,_ZNSt7__cxx1112basic_stringIcSt11char_traitsIcESaIcEE16_M_construct_auxIPKcEEvT_S8_St12__false_type
FNDA:0,_ZNSt7__cxx1112basic_stringIcSt11char_traitsIcESaIcEE16_M_construct_auxIPKcEEvT_S8_St12__false_type
FN:263,_ZNSt7__cxx1112basic_stringIcSt11char_traitsIcESaIcEE12_M_constructIPcEEvT_S7_
FNDA:0,_ZNSt7__cxx1112basic_stringIcSt11char_traitsIcESaIcEE12_M_constructIPcEEvT_S7_
FN:263,_ZNSt7__cxx1112basic_stringIcSt11char_traitsIcESaIcEE12_M_constructIPKcEEvT_S8_
FNDA:0,_ZNSt7__cxx1112basic_stringIcSt11char_traitsIcESaIcEE12_M_constructIPKcEEvT_S8_
FN:525,_ZNSt7__cxx1112basic_stringIcSt11char_traitsIcESaIcEEC2IS3_EEPKcRKS3_
FNDA:0,_ZNSt7__cxx1112basic_stringIcSt11char_traitsIcESaIcEEC2IS3_EEPKcRKS3_
DA:243,0
DA:247,0
DA:248,0
DA:243,0
DA:247,0
DA:248,0
DA:263,0
DA:266,0
DA:267,0
DA:263,0
DA:266,0
DA:267,0
DA:525,0
DA:526,0
DA:527,0
end_of_record
SF:/usr/include/c++/9/bits/stl_iterator_base_types.h
FN:205,_ZSt19__iterator_categoryIPcENSt15iterator_traitsIT_E17iterator_categoryERKS2_
FNDA:0,_ZSt19__iterator_categoryIPcENSt15iterator_traitsIT_E17iterator_categoryERKS2_
FN:205,_ZSt19__iterator_categoryIPKcENSt15iterator_traitsIT_E17iterator_categoryERKS3_
FNDA:0,_ZSt19__iterator_categoryIPKcENSt15iterator_traitsIT_E17iterator_categoryERKS3_
DA:205,0
DA:206,0
DA:205,0
DA:206,0
end_of_record
SF:/usr/include/c++/9/cmath
FN:619,_ZSt5isnand
FNDA:0,_ZSt5isnand
DA:619,0
DA:620,0
end_of_record
SF:/home/john/cse701/roc/include/vectorf.hpp
FN:69,_ZN7vectorfIdE4dataEv
FNDA:0,_ZN7vectorfIdE4dataEv
FN:98,_ZN7vectorfIdEC2ERKm
FNDA:0,_ZN7vectorfIdEC2ERKm
FN:106,_ZN7vectorfIdEC2ERKSt6vectorIdSaIdEE
FNDA:0,_ZN7vectorfIdEC2ERKSt6vectorIdSaIdEE
FN:165,_ZNK7vectorfIdE8get_sizeEv
FNDA:0,_ZNK7vectorfIdE8get_sizeEv
FN:172,_ZN7vectorfIdEclERKm
FNDA:0,_ZN7vectorfIdEclERKm
FN:179,_ZNK7vectorfIdEclERKm
FNDA:0,_ZNK7vectorfIdEclERKm
DA:69,0
DA:98,0
DA:100,0
DA:101,0
DA:102,0
DA:103,0
DA:106,0
DA:108,0
DA:109,0
DA:110,0
DA:111,0
DA:112,0
DA:165,0
DA:167,0
DA:172,0
DA:174,0
DA:179,0
DA:181,0
end_of_record
SF:/usr/include/c++/9/ext/new_allocator.h
FN:80,_ZN9__gnu_cxx13new_allocatorIcEC2Ev
FNDA:0,_ZN9__gnu_cxx13new_allocatorIcEC2Ev
FN:83,_ZN9__gnu_cxx13new_allocatorIcEC2ERKS1_
FNDA:0,_ZN9__gnu_cxx13new_allocatorIcEC2ERKS1_
FN:89,_ZN9__gnu_cxx13new_allocatorIcED2Ev
FNDA:0,_ZN9__gnu_cxx13new_allocatorIcED2Ev
DA:80,0
DA:83,0
DA:89,0
end_of_record
SF:/usr/include/c++/9/iostream
end_of_record
SF:/usr/include/c++/9/bits/stl_vector.h
FN:915,_ZNKSt6vectorIdSaIdEE4sizeEv
FNDA:0,_ZNKSt6vectorIdSaIdEE4sizeEv
FN:1058,_ZNKSt6vectorIdSaIdEEixEm
FNDA:0,_ZNKSt6vectorIdSaIdEEixEm
DA:915,0
DA:916,0
DA:1058,0
DA:1061,0
end_of_record
TN:
SF:/home/john/cse701/roc/src/roc.cpp
FN:16,_Z24derivatives2coefficientsRSt6vectorIdSaIdEE
FNDA:2,_Z24derivatives2coefficientsRSt6vectorIdSaIdEE
FN:27,_Z11convergenced
FNDA:0,_Z11convergenced
FN:39,_Z3rocRKSt6vectorIdSaIdEERKdRdS6_
FNDA:0,_Z3rocRKSt6vectorIdSaIdEERKdRdS6_
DA:16,2
DA:18,2
DA:19,12
DA:21,10
DA:22,10
DA:24,2
DA:27,0
DA:29,0
DA:31,0
DA:32,0
DA:33,0
DA:36,0
DA:39,0
DA:42,0
DA:46,0
DA:47,0
DA:50,0
DA:51,0
DA:52,0
DA:56,0
DA:57,0
DA:62,0
DA:63,0
DA:64,0
DA:66,0
DA:68,0
DA:69,0
DA:73,0
DA:74,0
DA:75,0
DA:77,0
DA:79,0
DA:80,0
DA:84,0
DA:85,0
DA:86,0
DA:88,0
DA:90,0
DA:91,0
DA:94,0
DA:96,0
DA:97,0
DA:100,0
end_of_record
SF:/usr/include/c++/9/bits/alloc_traits.h
FN:514,_ZNSt16allocator_traitsISaIcEE37select_on_container_copy_constructionERKS0_
FNDA:0,_ZNSt16allocator_traitsISaIcEE37select_on_container_copy_constructionERKS0_
DA:514,0
DA:515,0
end_of_record
SF:/usr/include/c++/9/bits/char_traits.h
FN:361,_ZNSt11char_traitsIcE4copyEPcPKcm
FNDA:0,_ZNSt11char_traitsIcE4copyEPcPKcm
DA:361,0
DA:363,0
DA:364,0
DA:365,0
end_of_record
SF:/home/john/cse701/roc/include/exceptions.hpp
FN:10,_ZN10sayMessageC2ERKNSt7__cxx1112basic_stringIcSt11char_traitsIcESaIcEEE
FNDA:0,_ZN10sayMessageC2ERKNSt7__cxx1112basic_stringIcSt11char_traitsIcESaIcEEE
FN:11,_ZNK10sayMessage4whatEv
FNDA:0,_ZNK10sayMessage4whatEv
DA:10,0
DA:11,0
end_of_record
SF:/usr/include/c++/9/ext/type_traits.h
FN:152,_ZN9__gnu_cxx17__is_null_pointerIcEEbPT_
FNDA:0,_ZN9__gnu_cxx17__is_null_pointerIcEEbPT_
DA:152,0
DA:153,0
end_of_record
SF:/usr/include/c++/9/bits/stl_iterator_base_funcs.h
FN:98,_ZSt10__distanceIPcENSt15iterator_traitsIT_E15difference_typeES2_S2_St26random_access_iterator_tag
FNDA:0,_ZSt10__distanceIPcENSt15iterator_traitsIT_E15difference_typeES2_S2_St26random_access_iterator_tag
FN:138,_ZSt8distanceIPcENSt15iterator_traitsIT_E15difference_typeES2_S2_
FNDA:0,_ZSt8distanceIPcENSt15iterator_traitsIT_E15difference_typeES2_S2_
DA:98,0
DA:104,0
DA:138,0
DA:141,0
DA:142,0
end_of_record
SF:/usr/include/c++/9/ext/alloc_traits.h
FN:97,_ZN9__gnu_cxx14__alloc_traitsISaIcEcE17_S_select_on_copyERKS1_
FNDA:0,_ZN9__gnu_cxx14__alloc_traitsISaIcEcE17_S_select_on_copyERKS1_
DA:97,0
DA:98,0
end_of_record
SF:/usr/include/c++/9/bits/basic_string.tcc
FN:206,_ZNSt7__cxx1112basic_stringIcSt11char_traitsIcESaIcEE12_M_constructIPcEEvT_S7_St20forward_iterator_tag
FNDA:0,_ZNSt7__cxx1112basic_stringIcSt11char_traitsIcESaIcEE12_M_constructIPcEEvT_S7_St20forward_iterator_tag
DA:206,0
DA:211,0
DA:212,0
DA:215,0
DA:217,0
DA:219,0
DA:220,0
DA:225,0
DA:226,0
DA:228,0
DA:229,0
DA:232,0
DA:233,0
end_of_record
SF:/usr/include/c++/9/bits/move.h
FN:99,_ZSt4moveIRSaIcEEONSt16remove_referenceIT_E4typeEOS3_
FNDA:0,_ZSt4moveIRSaIcEEONSt16remove_referenceIT_E4typeEOS3_
FN:99,_ZSt4moveIRNSt7__cxx1112basic_stringIcSt11char_traitsIcESaIcEEEEONSt16remove_referenceIT_E4typeEOS8_
FNDA:0,_ZSt4moveIRNSt7__cxx1112basic_stringIcSt11char_traitsIcESaIcEEEEONSt16remove_referenceIT_E4typeEOS8_
DA:99,0
DA:100,0
DA:99,0
DA:100,0
end_of_record
SF:/usr/include/c++/9/bits/exception.h
FN:63,_ZNSt9exceptionC2Ev
FNDA:0,_ZNSt9exceptionC2Ev
DA:63,0
end_of_record
SF:/usr/include/c++/9/ext/string_conversions.h
FN:99,_ZN9__gnu_cxx12__to_xstringINSt7__cxx1112basic_stringIcSt11char_traitsIcESaIcEEEcEET_PFiPT0_mPKS8_P13__va_list_tagEmSB_z
FNDA:0,_ZN9__gnu_cxx12__to_xstringINSt7__cxx1112basic_stringIcSt11char_traitsIcESaIcEEEcEET_PFiPT0_mPKS8_P13__va_list_tagEmSB_z
DA:99,0
DA:105,0
DA:109,0
DA:111,0
DA:113,0
DA:115,0
end_of_record
SF:/usr/include/c++/9/bits/basic_string.h
FN:243,_ZNSt7__cxx1112basic_stringIcSt11char_traitsIcESaIcEE16_M_construct_auxIPcEEvT_S7_St12__false_type
FNDA:0,_ZNSt7__cxx1112basic_stringIcSt11char_traitsIcESaIcEE16_M_construct_auxIPcEEvT_S7_St12__false_type
FN:263,_ZNSt7__cxx1112basic_stringIcSt11char_traitsIcESaIcEE12_M_constructIPcEEvT_S7_
FNDA:0,_ZNSt7__cxx1112basic_stringIcSt11char_traitsIcESaIcEE12_M_constructIPcEEvT_S7_
FN:625,_ZNSt7__cxx1112basic_stringIcSt11char_traitsIcESaIcEEC2IPcvEET_S7_RKS3_
FNDA:0,_ZNSt7__cxx1112basic_stringIcSt11char_traitsIcESaIcEEC2IPcvEET_S7_RKS3_
FN:6097,_ZStplIcSt11char_traitsIcESaIcEENSt7__cxx1112basic_stringIT_T0_T1_EEOS8_S9_
FNDA:0,_ZStplIcSt11char_traitsIcESaIcEENSt7__cxx1112basic_stringIT_T0_T1_EEOS8_S9_
FN:6109,_ZStplIcSt11char_traitsIcESaIcEENSt7__cxx1112basic_stringIT_T0_T1_EEPKS5_OS8_
FNDA:0,_ZStplIcSt11char_traitsIcESaIcEENSt7__cxx1112basic_stringIT_T0_T1_EEPKS5_OS8_
FN:6121,_ZStplIcSt11char_traitsIcESaIcEENSt7__cxx1112basic_stringIT_T0_T1_EEOS8_PKS5_
FNDA:0,_ZStplIcSt11char_traitsIcESaIcEENSt7__cxx1112basic_stringIT_T0_T1_EEOS8_PKS5_
FN:6546,_ZNSt7__cxx119to_stringEi
FNDA:5,_ZNSt7__cxx119to_stringEi
DA:243,0
DA:247,0
DA:248,0
DA:263,0
DA:266,0
DA:267,0
DA:625,0
DA:627,0
DA:628,0
DA:6097,0
DA:6100,0
DA:6101,0
DA:6102,0
DA:6103,0
DA:6104,0
DA:6109,0
DA:6111,0
DA:6121,0
DA:6123,0
DA:6546,5
DA:6548,5
end_of_record
SF:/usr/include/c++/9/bits/ios_base.h
FN:83,_ZStanSt13_Ios_FmtflagsS_
FNDA:0,_ZStanSt13_Ios_FmtflagsS_
FN:87,_ZStorSt13_Ios_FmtflagsS_
FNDA:0,_ZStorSt13_Ios_FmtflagsS_
FN:95,_ZStcoSt13_Ios_Fmtflags
FNDA:0,_ZStcoSt13_Ios_Fmtflags
FN:99,_ZStoRRSt13_Ios_FmtflagsS_
FNDA:0,_ZStoRRSt13_Ios_FmtflagsS_
FN:103,_ZStaNRSt13_Ios_FmtflagsS_
FNDA:0,_ZStaNRSt13_Ios_FmtflagsS_
FN:670,_ZNSt8ios_base4setfESt13_Ios_FmtflagsS0_
FNDA:0,_ZNSt8ios_base4setfESt13_Ios_FmtflagsS0_
FN:705,_ZNSt8ios_base9precisionEl
FNDA:0,_ZNSt8ios_base9precisionEl
FN:1056,_ZSt10scientificRSt8ios_base
FNDA:0,_ZSt10scientificRSt8ios_base
DA:83,0
DA:84,0
DA:87,0
DA:88,0
DA:95,0
DA:96,0
DA:99,0
DA:100,0
DA:103,0
DA:104,0
DA:670,0
DA:672,0
DA:673,0
DA:674,0
DA:675,0
DA:705,0
DA:707,0
DA:708,0
DA:709,0
DA:1056,0
DA:1058,0
DA:1059,0
end_of_record
SF:/usr/include/c++/9/bits/stl_iterator_base_types.h
FN:205,_ZSt19__iterator_categoryIPcENSt15iterator_traitsIT_E17iterator_categoryERKS2_
FNDA:0,_ZSt19__iterator_categoryIPcENSt15iterator_traitsIT_E17iterator_categoryERKS2_
DA:205,0
DA:206,0
end_of_record
SF:/usr/include/c++/9/ext/new_allocator.h
FN:80,_ZN9__gnu_cxx13new_allocatorIcEC2Ev
FNDA:0,_ZN9__gnu_cxx13new_allocatorIcEC2Ev
FN:83,_ZN9__gnu_cxx13new_allocatorIcEC2ERKS1_
FNDA:0,_ZN9__gnu_cxx13new_allocatorIcEC2ERKS1_
FN:89,_ZN9__gnu_cxx13new_allocatorIcED2Ev
FNDA:0,_ZN9__gnu_cxx13new_allocatorIcED2Ev
DA:80,0
DA:83,0
DA:89,0
end_of_record
SF:/usr/include/c++/9/bits/stl_vector.h
FN:915,_ZNKSt6vectorIdSaIdEE4sizeEv
FNDA:0,_ZNKSt6vectorIdSaIdEE4sizeEv
FN:1040,_ZNSt6vectorIdSaIdEEixEm
FNDA:0,_ZNSt6vectorIdSaIdEEixEm
DA:915,0
DA:916,0
DA:1040,0
DA:1043,0
end_of_record
SF:/usr/include/c++/9/iostream
end_of_record
TN:
SF:/usr/include/c++/9/bits/basic_string.h
FN:243,_ZNSt7__cxx1112basic_stringIcSt11char_traitsIcESaIcEE16_M_construct_auxIPcEEvT_S7_St12__false_type
FNDA:0,_ZNSt7__cxx1112basic_stringIcSt11char_traitsIcESaIcEE16_M_construct_auxIPcEEvT_S7_St12__false_type
FN:243,_ZNSt7__cxx1112basic_stringIcSt11char_traitsIcESaIcEE16_M_construct_auxIPKcEEvT_S8_St12__false_type
FNDA:0,_ZNSt7__cxx1112basic_stringIcSt11char_traitsIcESaIcEE16_M_construct_auxIPKcEEvT_S8_St12__false_type
FN:263,_ZNSt7__cxx1112basic_stringIcSt11char_traitsIcESaIcEE12_M_constructIPcEEvT_S7_
FNDA:0,_ZNSt7__cxx1112basic_stringIcSt11char_traitsIcESaIcEE12_M_constructIPcEEvT_S7_
FN:263,_ZNSt7__cxx1112basic_stringIcSt11char_traitsIcESaIcEE12_M_constructIPKcEEvT_S8_
FNDA:0,_ZNSt7__cxx1112basic_stringIcSt11char_traitsIcESaIcEE12_M_constructIPKcEEvT_S8_
FN:525,_ZNSt7__cxx1112basic_stringIcSt11char_traitsIcESaIcEEC2IS3_EEPKcRKS3_
FNDA:0,_ZNSt7__cxx1112basic_stringIcSt11char_traitsIcESaIcEEC2IS3_EEPKcRKS3_
FN:625,_ZNSt7__cxx1112basic_stringIcSt11char_traitsIcESaIcEEC2IPcvEET_S7_RKS3_
FNDA:0,_ZNSt7__cxx1112basic_stringIcSt11char_traitsIcESaIcEEC2IPcvEET_S7_RKS3_
FN:6097,_ZStplIcSt11char_traitsIcESaIcEENSt7__cxx1112basic_stringIT_T0_T1_EEOS8_S9_
FNDA:0,_ZStplIcSt11char_traitsIcESaIcEENSt7__cxx1112basic_stringIT_T0_T1_EEOS8_S9_
FN:6109,_ZStplIcSt11char_traitsIcESaIcEENSt7__cxx1112basic_stringIT_T0_T1_EEPKS5_OS8_
FNDA:0,_ZStplIcSt11char_traitsIcESaIcEENSt7__cxx1112basic_stringIT_T0_T1_EEPKS5_OS8_
FN:6121,_ZStplIcSt11char_traitsIcESaIcEENSt7__cxx1112basic_stringIT_T0_T1_EEOS8_PKS5_
FNDA:0,_ZStplIcSt11char_traitsIcESaIcEENSt7__cxx1112basic_stringIT_T0_T1_EEOS8_PKS5_
FN:6546,_ZNSt7__cxx119to_stringEi
FNDA:0,_ZNSt7__cxx119to_stringEi
FN:6562,_ZNSt7__cxx119to_stringEm
FNDA:0,_ZNSt7__cxx119to_stringEm
DA:243,0
DA:247,0
DA:248,0
DA:243,0
DA:247,0
DA:248,0
DA:263,0
DA:266,0
DA:267,0
DA:263,0
DA:266,0
DA:267,0
DA:525,0
DA:526,0
DA:527,0
DA:625,0
DA:627,0
DA:628,0
DA:6097,0
DA:6100,0
DA:6101,0
DA:6102,0
DA:6103,0
DA:6104,0
DA:6109,0
DA:6111,0
DA:6121,0
DA:6123,0
DA:6546,0
DA:6548,0
DA:6562,0
DA:6565,0
end_of_record
SF:/usr/include/c++/9/ext/string_conversions.h
FN:99,_ZN9__gnu_cxx12__to_xstringINSt7__cxx1112basic_stringIcSt11char_traitsIcESaIcEEEcEET_PFiPT0_mPKS8_P13__va_list_tagEmSB_z
FNDA:0,_ZN9__gnu_cxx12__to_xstringINSt7__cxx1112basic_stringIcSt11char_traitsIcESaIcEEEcEET_PFiPT0_mPKS8_P13__va_list_tagEmSB_z
DA:99,0
DA:105,0
DA:109,0
DA:111,0
DA:113,0
DA:115,0
end_of_record
SF:/home/john/cse701/roc/include/vectorf.hpp
FN:69,_ZN7vectorfIdE4dataEv
FNDA:0,_ZN7vectorfIdE4dataEv
FN:98,_ZN7vectorfIdEC2ERKm
FNDA:0,_ZN7vectorfIdEC2ERKm
FN:165,_ZNK7vectorfIdE8get_sizeEv
FNDA:0,_ZNK7vectorfIdE8get_sizeEv
FN:172,_ZN7vectorfIdEclERKm
FNDA:0,_ZN7vectorfIdEclERKm
FN:179,_ZNK7vectorfIdEclERKm
FNDA:0,_ZNK7vectorfIdEclERKm
DA:69,0
DA:98,0
DA:100,0
DA:101,0
DA:102,0
DA:103,0
DA:165,0
DA:167,0
DA:172,0
DA:174,0
DA:179,0
DA:181,0
end_of_record
SF:/usr/include/c++/9/cmath
FN:415,_ZSt3powIidEN9__gnu_cxx11__promote_2IT_T0_NS0_9__promoteIS2_XsrSt12__is_integerIS2_E7__valueEE6__typeENS4_IS3_XsrS5_IS3_E7__valueEE6__typeEE6__typeES2_S3_
FNDA:2,_ZSt3powIidEN9__gnu_cxx11__promote_2IT_T0_NS0_9__promoteIS2_XsrSt12__is_integerIS2_E7__valueEE6__typeENS4_IS3_XsrS5_IS3_E7__valueEE6__typeEE6__typeES2_S3_
DA:415,2
DA:418,2
end_of_record
SF:/usr/include/c++/9/iostream
end_of_record
SF:/usr/include/c++/9/bits/stl_vector.h
FN:915,_ZNKSt6vectorIdSaIdEE4sizeEv
FNDA:0,_ZNKSt6vectorIdSaIdEE4sizeEv
FN:1058,_ZNKSt6vectorIdSaIdEEixEm
FNDA:0,_ZNKSt6vectorIdSaIdEEixEm
DA:915,0
DA:916,0
DA:1058,0
DA:1061,0
end_of_record
SF:/usr/include/c++/9/bits/basic_string.tcc
FN:206,_ZNSt7__cxx1112basic_stringIcSt11char_traitsIcESaIcEE12_M_constructIPcEEvT_S7_St20forward_iterator_tag
FNDA:0,_ZNSt7__cxx1112basic_stringIcSt11char_traitsIcESaIcEE12_M_constructIPcEEvT_S7_St20forward_iterator_tag
FN:206,_ZNSt7__cxx1112basic_stringIcSt11char_traitsIcESaIcEE12_M_constructIPKcEEvT_S8_St20forward_iterator_tag
FNDA:0,_ZNSt7__cxx1112basic_stringIcSt11char_traitsIcESaIcEE12_M_constructIPKcEEvT_S8_St20forward_iterator_tag
DA:206,0
DA:211,0
DA:212,0
DA:215,0
DA:217,0
DA:219,0
DA:220,0
DA:225,0
DA:226,0
DA:228,0
DA:229,0
DA:232,0
DA:233,0
DA:206,0
DA:211,0
DA:212,0
DA:215,0
DA:217,0
DA:219,0
DA:220,0
DA:225,0
DA:226,0
DA:228,0
DA:229,0
DA:232,0
DA:233,0
end_of_record
SF:/usr/include/c++/9/ext/alloc_traits.h
FN:97,_ZN9__gnu_cxx14__alloc_traitsISaIcEcE17_S_select_on_copyERKS1_
FNDA:0,_ZN9__gnu_cxx14__alloc_traitsISaIcEcE17_S_select_on_copyERKS1_
DA:97,0
DA:98,0
end_of_record
SF:/usr/include/c++/9/bits/stl_iterator_base_types.h
FN:205,_ZSt19__iterator_categoryIPcENSt15iterator_traitsIT_E17iterator_categoryERKS2_
FNDA:0,_ZSt19__iterator_categoryIPcENSt15iterator_traitsIT_E17iterator_categoryERKS2_
FN:205,_ZSt19__iterator_categoryIPKcENSt15iterator_traitsIT_E17iterator_categoryERKS3_
FNDA:0,_ZSt19__iterator_categoryIPKcENSt15iterator_traitsIT_E17iterator_categoryERKS3_
DA:205,0
DA:206,0
DA:205,0
DA:206,0
end_of_record
SF:/usr/include/c++/9/ext/new_allocator.h
FN:80,_ZN9__gnu_cxx13new_allocatorIcEC2Ev
FNDA:0,_ZN9__gnu_cxx13new_allocatorIcEC2Ev
FN:83,_ZN9__gnu_cxx13new_allocatorIcEC2ERKS1_
FNDA:0,_ZN9__gnu_cxx13new_allocatorIcEC2ERKS1_
FN:89,_ZN9__gnu_cxx13new_allocatorIcED2Ev
FNDA:0,_ZN9__gnu_cxx13new_allocatorIcED2Ev
DA:80,0
DA:83,0
DA:89,0
end_of_record
SF:/usr/include/c++/9/bits/char_traits.h
FN:100,_ZN9__gnu_cxx11char_traitsIcE2eqERKcS3_
FNDA:0,_ZN9__gnu_cxx11char_traitsIcE2eqERKcS3_
FN:161,_ZN9__gnu_cxx11char_traitsIcE6lengthEPKc
FNDA:0,_ZN9__gnu_cxx11char_traitsIcE6lengthEPKc
FN:329,_ZNSt11char_traitsIcE6lengthEPKc
FNDA:0,_ZNSt11char_traitsIcE6lengthEPKc
FN:361,_ZNSt11char_traitsIcE4copyEPcPKcm
FNDA:0,_ZNSt11char_traitsIcE4copyEPcPKcm
DA:100,0
DA:101,0
DA:161,0
DA:164,0
DA:165,0
DA:166,0
DA:167,0
DA:236,0
DA:329,0
DA:332,0
DA:333,0
DA:335,0
DA:361,0
DA:363,0
DA:364,0
DA:365,0
end_of_record
SF:/usr/include/c++/9/bits/alloc_traits.h
FN:514,_ZNSt16allocator_traitsISaIcEE37select_on_container_copy_constructionERKS0_
FNDA:0,_ZNSt16allocator_traitsISaIcEE37select_on_container_copy_constructionERKS0_
DA:514,0
DA:515,0
end_of_record
SF:/home/john/cse701/roc/include/exceptions.hpp
FN:10,_ZN10sayMessageC2ERKNSt7__cxx1112basic_stringIcSt11char_traitsIcESaIcEEE
FNDA:0,_ZN10sayMessageC2ERKNSt7__cxx1112basic_stringIcSt11char_traitsIcESaIcEEE
FN:11,_ZNK10sayMessage4whatEv
FNDA:0,_ZNK10sayMessage4whatEv
DA:10,0
DA:11,0
end_of_record
SF:/usr/include/c++/9/ext/type_traits.h
FN:152,_ZN9__gnu_cxx17__is_null_pointerIcEEbPT_
FNDA:0,_ZN9__gnu_cxx17__is_null_pointerIcEEbPT_
FN:152,_ZN9__gnu_cxx17__is_null_pointerIKcEEbPT_
FNDA:0,_ZN9__gnu_cxx17__is_null_pointerIKcEEbPT_
DA:152,0
DA:153,0
DA:152,0
DA:153,0
end_of_record
SF:/home/john/cse701/roc/include/matrix.hpp
FN:94,_ZN6matrixIdE4dataEv
FNDA:0,_ZN6matrixIdE4dataEv
FN:127,_ZN6matrixIdEC2ERKmS2_
FNDA:0,_ZN6matrixIdEC2ERKmS2_
FN:234,_ZNK6matrixIdE8get_rowsEv
FNDA:0,_ZNK6matrixIdE8get_rowsEv
FN:247,_ZN6matrixIdEclERKmS2_
FNDA:0,_ZN6matrixIdEclERKmS2_
DA:94,0
DA:127,0
DA:128,0
DA:130,0
DA:131,0
DA:132,0
DA:133,0
DA:134,0
DA:234,0
DA:236,0
DA:247,0
DA:249,0
end_of_record
SF:/usr/include/c++/9/bits/exception.h
FN:63,_ZNSt9exceptionC2Ev
FNDA:0,_ZNSt9exceptionC2Ev
DA:63,0
end_of_record
SF:/usr/include/c++/9/bits/move.h
FN:99,_ZSt4moveIRPdEONSt16remove_referenceIT_E4typeEOS3_
FNDA:0,_ZSt4moveIRPdEONSt16remove_referenceIT_E4typeEOS3_
FN:99,_ZSt4moveIRSaIcEEONSt16remove_referenceIT_E4typeEOS3_
FNDA:0,_ZSt4moveIRSaIcEEONSt16remove_referenceIT_E4typeEOS3_
FN:99,_ZSt4moveIRNSt7__cxx1112basic_stringIcSt11char_traitsIcESaIcEEEEONSt16remove_referenceIT_E4typeEOS8_
FNDA:0,_ZSt4moveIRNSt7__cxx1112basic_stringIcSt11char_traitsIcESaIcEEEEONSt16remove_referenceIT_E4typeEOS8_
FN:182,_ZSt4swapIPdENSt9enable_ifIXsrSt6__and_IJSt6__not_ISt15__is_tuple_likeIT_EESt21is_move_constructibleIS5_ESt18is_move_assignableIS5_EEE5valueEvE4typeERS5_SF_
FNDA:0,_ZSt4swapIPdENSt9enable_ifIXsrSt6__and_IJSt6__not_ISt15__is_tuple_likeIT_EESt21is_move_constructibleIS5_ESt18is_move_assignableIS5_EEE5valueEvE4typeERS5_SF_
DA:99,0
DA:100,0
DA:99,0
DA:100,0
DA:99,0
DA:100,0
DA:182,0
DA:193,0
DA:194,0
DA:195,0
DA:196,0
end_of_record
SF:/usr/include/c++/9/bits/unique_ptr.h
FN:111,_ZNKSt14default_deleteIA_dEclIdEENSt9enable_ifIXsrSt14is_convertibleIPA_T_PS0_E5valueEvE4typeEPS5_
FNDA:0,_ZNKSt14default_deleteIA_dEclIdEENSt9enable_ifIXsrSt14is_convertibleIPA_T_PS0_E5valueEvE4typeEPS5_
FN:146,_ZNSt15__uniq_ptr_implIdSt14default_deleteIA_dEEC2Ev
FNDA:0,_ZNSt15__uniq_ptr_implIdSt14default_deleteIA_dEEC2Ev
FN:153,_ZNSt15__uniq_ptr_implIdSt14default_deleteIA_dEE6_M_ptrEv
FNDA:0,_ZNSt15__uniq_ptr_implIdSt14default_deleteIA_dEE6_M_ptrEv
FN:154,_ZNKSt15__uniq_ptr_implIdSt14default_deleteIA_dEE6_M_ptrEv
FNDA:0,_ZNKSt15__uniq_ptr_implIdSt14default_deleteIA_dEE6_M_ptrEv
FN:155,_ZNSt15__uniq_ptr_implIdSt14default_deleteIA_dEE10_M_deleterEv
FNDA:0,_ZNSt15__uniq_ptr_implIdSt14default_deleteIA_dEE10_M_deleterEv
FN:541,_ZNSt10unique_ptrIA_dSt14default_deleteIS0_EEC2IS2_vEEDn
FNDA:0,_ZNSt10unique_ptrIA_dSt14default_deleteIS0_EEC2IS2_vEEDn
FN:555,_ZNSt10unique_ptrIA_dSt14default_deleteIS0_EED2Ev
FNDA:0,_ZNSt10unique_ptrIA_dSt14default_deleteIS0_EED2Ev
FN:619,_ZNKSt10unique_ptrIA_dSt14default_deleteIS0_EE3getEv
FNDA:0,_ZNKSt10unique_ptrIA_dSt14default_deleteIS0_EE3getEv
FN:624,_ZNSt10unique_ptrIA_dSt14default_deleteIS0_EE11get_deleterEv
FNDA:0,_ZNSt10unique_ptrIA_dSt14default_deleteIS0_EE11get_deleterEv
FN:666,_ZNSt10unique_ptrIA_dSt14default_deleteIS0_EE5resetIPdvEEvT_
FNDA:0,_ZNSt10unique_ptrIA_dSt14default_deleteIS0_EE5resetIPdvEEvT_
DA:111,0
DA:115,0
DA:116,0
DA:146,0
DA:153,0
DA:154,0
DA:155,0
DA:541,0
DA:542,0
DA:543,0
DA:555,0
DA:557,0
DA:558,0
DA:559,0
DA:560,0
DA:561,0
DA:619,0
DA:620,0
DA:624,0
DA:625,0
DA:666,0
DA:668,0
DA:670,0
DA:671,0
DA:672,0
DA:673,0
end_of_record
SF:/usr/include/c++/9/bits/stl_iterator_base_funcs.h
FN:98,_ZSt10__distanceIPcENSt15iterator_traitsIT_E15difference_typeES2_S2_St26random_access_iterator_tag
FNDA:0,_ZSt10__distanceIPcENSt15iterator_traitsIT_E15difference_typeES2_S2_St26random_access_iterator_tag
FN:98,_ZSt10__distanceIPKcENSt15iterator_traitsIT_E15difference_typeES3_S3_St26random_access_iterator_tag
FNDA:0,_ZSt10__distanceIPKcENSt15iterator_traitsIT_E15difference_typeES3_S3_St26random_access_iterator_tag
FN:138,_ZSt8distanceIPcENSt15iterator_traitsIT_E15difference_typeES2_S2_
FNDA:0,_ZSt8distanceIPcENSt15iterator_traitsIT_E15difference_typeES2_S2_
FN:138,_ZSt8distanceIPKcENSt15iterator_traitsIT_E15difference_typeES3_S3_
FNDA:0,_ZSt8distanceIPKcENSt15iterator_traitsIT_E15difference_typeES3_S3_
DA:98,0
DA:104,0
DA:98,0
DA:104,0
DA:138,0
DA:141,0
DA:142,0
DA:138,0
DA:141,0
DA:142,0
end_of_record
SF:/usr/include/c++/9/tuple
FN:76,_ZNSt10_Head_baseILm1ESt14default_deleteIA_dELb1EEC2Ev
FNDA:0,_ZNSt10_Head_baseILm1ESt14default_deleteIA_dELb1EEC2Ev
FN:113,_ZNSt10_Head_baseILm1ESt14default_deleteIA_dELb1EE7_M_headERS3_
FNDA:0,_ZNSt10_Head_baseILm1ESt14default_deleteIA_dELb1EE7_M_headERS3_
FN:122,_ZNSt10_Head_baseILm0EPdLb0EEC2Ev
FNDA:0,_ZNSt10_Head_baseILm0EPdLb0EEC2Ev
FN:160,_ZNSt10_Head_baseILm0EPdLb0EE7_M_headERS1_
FNDA:0,_ZNSt10_Head_baseILm0EPdLb0EE7_M_headERS1_
FN:163,_ZNSt10_Head_baseILm0EPdLb0EE7_M_headERKS1_
FNDA:0,_ZNSt10_Head_baseILm0EPdLb0EE7_M_headERKS1_
FN:195,_ZNSt11_Tuple_implILm0EJPdSt14default_deleteIA_dEEE7_M_headERS4_
FNDA:0,_ZNSt11_Tuple_implILm0EJPdSt14default_deleteIA_dEEE7_M_headERS4_
FN:198,_ZNSt11_Tuple_implILm0EJPdSt14default_deleteIA_dEEE7_M_headERKS4_
FNDA:0,_ZNSt11_Tuple_implILm0EJPdSt14default_deleteIA_dEEE7_M_headERKS4_
FN:206,_ZNSt11_Tuple_implILm0EJPdSt14default_deleteIA_dEEEC2Ev
FNDA:0,_ZNSt11_Tuple_implILm0EJPdSt14default_deleteIA_dEEEC2Ev
FN:334,_ZNSt11_Tuple_implILm1EJSt14default_deleteIA_dEEE7_M_headERS3_
FNDA:0,_ZNSt11_Tuple_implILm1EJSt14default_deleteIA_dEEE7_M_headERS3_
FN:339,_ZNSt11_Tuple_implILm1EJSt14default_deleteIA_dEEEC2Ev
FNDA:0,_ZNSt11_Tuple_implILm1EJSt14default_deleteIA_dEEEC2Ev
FN:918,_ZNSt5tupleIJPdSt14default_deleteIA_dEEEC2IS0_S3_Lb1EEEv
FNDA:0,_ZNSt5tupleIJPdSt14default_deleteIA_dEEEC2IS0_S3_Lb1EEEv
FN:1309,_ZSt12__get_helperILm1ESt14default_deleteIA_dEJEERT0_RSt11_Tuple_implIXT_EJS3_DpT1_EE
FNDA:0,_ZSt12__get_helperILm1ESt14default_deleteIA_dEJEERT0_RSt11_Tuple_implIXT_EJS3_DpT1_EE
FN:1309,_ZSt12__get_helperILm0EPdJSt14default_deleteIA_dEEERT0_RSt11_Tuple_implIXT_EJS4_DpT1_EE
FNDA:0,_ZSt12__get_helperILm0EPdJSt14default_deleteIA_dEEERT0_RSt11_Tuple_implIXT_EJS4_DpT1_EE
FN:1314,_ZSt12__get_helperILm0EPdJSt14default_deleteIA_dEEERKT0_RKSt11_Tuple_implIXT_EJS4_DpT1_EE
FNDA:0,_ZSt12__get_helperILm0EPdJSt14default_deleteIA_dEEERKT0_RKSt11_Tuple_implIXT_EJS4_DpT1_EE
FN:1320,_ZSt3getILm1EJPdSt14default_deleteIA_dEEERNSt13tuple_elementIXT_ESt5tupleIJDpT0_EEE4typeERS8_
FNDA:0,_ZSt3getILm1EJPdSt14default_deleteIA_dEEERNSt13tuple_elementIXT_ESt5tupleIJDpT0_EEE4typeERS8_
FN:1320,_ZSt3getILm0EJPdSt14default_deleteIA_dEEERNSt13tuple_elementIXT_ESt5tupleIJDpT0_EEE4typeERS8_
FNDA:0,_ZSt3getILm0EJPdSt14default_deleteIA_dEEERNSt13tuple_elementIXT_ESt5tupleIJDpT0_EEE4typeERS8_
FN:1326,_ZSt3getILm0EJPdSt14default_deleteIA_dEEERKNSt13tuple_elementIXT_ESt5tupleIJDpT0_EEE4typeERKS8_
FNDA:0,_ZSt3getILm0EJPdSt14default_deleteIA_dEEERKNSt13tuple_elementIXT_ESt5tupleIJDpT0_EEE4typeERKS8_
DA:76,0
DA:77,0
DA:113,0
DA:122,0
DA:123,0
DA:160,0
DA:163,0
DA:195,0
DA:198,0
DA:206,0
DA:207,0
DA:334,0
DA:339,0
DA:340,0
DA:918,0
DA:919,0
DA:1309,0
DA:1310,0
DA:1309,0
DA:1310,0
DA:1314,0
DA:1315,0
DA:1320,0
DA:1321,0
DA:1320,0
DA:1321,0
DA:1326,0
DA:1327,0
end_of_record
SF:/usr/include/c++/9/limits
FN:1784,_ZNSt14numeric_limitsIdE9quiet_NaNEv
FNDA:2,_ZNSt14numeric_limitsIdE9quiet_NaNEv
DA:1784,2
end_of_record
SF:/home/john/cse701/roc/src/topline.cpp
FN:11,_Z30constructLinearLeastSquaresRowRKSt6vectorIdSaIdEEiRdS4_S4_
FNDA:101,_Z30constructLinearLeastSquaresRowRKSt6vectorIdSaIdEEiRdS4_S4_
FN:19,_Z33constructLinearLeastSquaresSystemRKSt6vectorIdSaIdEEiR6matrixIdER7vectorfIdE
FNDA:5,_Z33constructLinearLeastSquaresSystemRKSt6vectorIdSaIdEEiR6matrixIdER7vectorfIdE
FN:50,_Z12errorTopLineRKSt6vectorIdSaIdEERK7vectorfIdE
FNDA:2,_Z12errorTopLineRKSt6vectorIdSaIdEERK7vectorfIdE
FN:93,_Z7toplineRKSt6vectorIdSaIdEERKdRdS6_
FNDA:3,_Z7toplineRKSt6vectorIdSaIdEERKdRdS6_
DA:11,101
DA:14,101
DA:15,101
DA:16,101
DA:17,101
DA:19,5
DA:24,5
DA:27,4
DA:28,8
DA:29,6
DA:30,2
DA:33,3
DA:36,2
DA:37,4
DA:38,1
DA:39,2
DA:40,1
DA:43,42
DA:45,40
DA:47,2
DA:50,2
DA:52,2
DA:54,4
DA:55,2
DA:56,42
DA:58,40
DA:59,40
DA:60,40
DA:62,2
DA:63,2
DA:64,2
DA:65,4
DA:93,3
DA:96,3
DA:97,3
DA:98,3
DA:99,6
DA:100,4
DA:103,3
DA:106,2
DA:107,2
DA:108,1
DA:112,2
DA:115,2
DA:117,2
DA:118,2
DA:121,2
DA:122,4
end_of_record
TN:
SF:/usr/include/c++/9/bits/allocator.h
FN:138,_ZNSaIdEC2Ev
FNDA:0,_ZNSaIdEC2Ev
FN:153,_ZNSaIdED2Ev
FNDA:0,_ZNSaIdED2Ev
DA:138,0
DA:153,0
end_of_record
SF:/home/john/cse701/roc/src/io.cpp
FN:13,_ZlsRSoRKSt6vectorIdSaIdEE
FNDA:1,_ZlsRSoRKSt6vectorIdSaIdEE
FN:23,_Z12read_numbersRKNSt7__cxx1112basic_stringIcSt11char_traitsIcESaIcEEE
FNDA:2673,_Z12read_numbersRKNSt7__cxx1112basic_stringIcSt11char_traitsIcESaIcEEE
FN:42,_Z11cwd_path_toRKNSt7__cxx1112basic_stringIcSt11char_traitsIcESaIcEEE
FNDA:3,_Z11cwd_path_toRKNSt7__cxx1112basic_stringIcSt11char_traitsIcESaIcEEE
DA:13,1
DA:15,1
DA:16,1
DA:17,31
DA:18,1
DA:19,1
DA:23,2673
DA:26,2673
DA:28,5346
DA:30,5346
DA:32,90882
DA:35,88209
DA:37,5346
DA:42,3
DA:44,4
DA:45,3
DA:46,17
DA:48,16
DA:49,18
DA:51,2
DA:52,1
end_of_record
SF:/usr/include/c++/9/string_view
FN:129,_ZNSt17basic_string_viewIcSt11char_traitsIcEEC2EPKcm
FNDA:16,_ZNSt17basic_string_viewIcSt11char_traitsIcEEC2EPKcm
FN:173,_ZNKSt17basic_string_viewIcSt11char_traitsIcEE4sizeEv
FNDA:0,_ZNKSt17basic_string_viewIcSt11char_traitsIcEE4sizeEv
FN:228,_ZNKSt17basic_string_viewIcSt11char_traitsIcEE4dataEv
FNDA:0,_ZNKSt17basic_string_viewIcSt11char_traitsIcEE4dataEv
DA:129,16
DA:130,16
DA:131,16
DA:173,0
DA:174,0
DA:228,0
DA:229,0
end_of_record
SF:/usr/include/c++/9/bits/stl_iterator_base_types.h
FN:205,_ZSt19__iterator_categoryIPcENSt15iterator_traitsIT_E17iterator_categoryERKS2_
FNDA:0,_ZSt19__iterator_categoryIPcENSt15iterator_traitsIT_E17iterator_categoryERKS2_
FN:205,_ZSt19__iterator_categoryIPKcENSt15iterator_traitsIT_E17iterator_categoryERKS3_
FNDA:0,_ZSt19__iterator_categoryIPKcENSt15iterator_traitsIT_E17iterator_categoryERKS3_
DA:205,0
DA:206,0
DA:205,0
DA:206,0
end_of_record
SF:/usr/include/c++/9/ext/new_allocator.h
FN:80,_ZN9__gnu_cxx13new_allocatorIdEC2Ev
FNDA:0,_ZN9__gnu_cxx13new_allocatorIdEC2Ev
FN:80,_ZN9__gnu_cxx13new_allocatorIcEC2Ev
FNDA:0,_ZN9__gnu_cxx13new_allocatorIcEC2Ev
FN:83,_ZN9__gnu_cxx13new_allocatorIcEC2ERKS1_
FNDA:0,_ZN9__gnu_cxx13new_allocatorIcEC2ERKS1_
FN:89,_ZN9__gnu_cxx13new_allocatorIdED2Ev
FNDA:0,_ZN9__gnu_cxx13new_allocatorIdED2Ev
FN:89,_ZN9__gnu_cxx13new_allocatorIcED2Ev
FNDA:0,_ZN9__gnu_cxx13new_allocatorIcED2Ev
FN:102,_ZN9__gnu_cxx13new_allocatorIdE8allocateEmPKv
FNDA:0,_ZN9__gnu_cxx13new_allocatorIdE8allocateEmPKv
FN:119,_ZN9__gnu_cxx13new_allocatorIdE10deallocateEPdm
FNDA:0,_ZN9__gnu_cxx13new_allocatorIdE10deallocateEPdm
FN:132,_ZNK9__gnu_cxx13new_allocatorIdE8max_sizeEv
FNDA:0,_ZNK9__gnu_cxx13new_allocatorIdE8max_sizeEv
FN:144,_ZN9__gnu_cxx13new_allocatorIdE9constructIdJdEEEvPT_DpOT0_
FNDA:88209,_ZN9__gnu_cxx13new_allocatorIdE9constructIdJdEEEvPT_DpOT0_
DA:80,0
DA:80,0
DA:83,0
DA:89,0
DA:89,0
DA:102,0
DA:104,0
DA:105,0
DA:114,0
DA:119,0
DA:128,0
DA:132,0
DA:135,0
DA:144,88209
DA:147,88209
end_of_record
SF:/usr/include/c++/9/bits/stl_construct.h
FN:117,_ZNSt12_Destroy_auxILb1EE9__destroyIPdEEvT_S3_
FNDA:0,_ZNSt12_Destroy_auxILb1EE9__destroyIPdEEvT_S3_
FN:127,_ZSt8_DestroyIPdEvT_S1_
FNDA:0,_ZSt8_DestroyIPdEvT_S1_
FN:203,_ZSt8_DestroyIPddEvT_S1_RSaIT0_E
FNDA:0,_ZSt8_DestroyIPddEvT_S1_RSaIT0_E
DA:117,0
DA:127,0
DA:137,0
DA:138,0
DA:203,0
DA:206,0
DA:207,0
end_of_record
SF:/usr/include/c++/9/bits/stl_iterator.h
FN:806,_ZN9__gnu_cxx17__normal_iteratorIPdSt6vectorIdSaIdEEEC2ERKS1_
FNDA:0,_ZN9__gnu_cxx17__normal_iteratorIPdSt6vectorIdSaIdEEEC2ERKS1_
FN:819,_ZNK9__gnu_cxx17__normal_iteratorIPdSt6vectorIdSaIdEEEdeEv
FNDA:0,_ZNK9__gnu_cxx17__normal_iteratorIPdSt6vectorIdSaIdEEEdeEv
FN:867,_ZNK9__gnu_cxx17__normal_iteratorIPdSt6vectorIdSaIdEEEmiEl
FNDA:0,_ZNK9__gnu_cxx17__normal_iteratorIPdSt6vectorIdSaIdEEEmiEl
FN:871,_ZNK9__gnu_cxx17__normal_iteratorIPdSt6vectorIdSaIdEEE4baseEv
FNDA:74844,_ZNK9__gnu_cxx17__normal_iteratorIPdSt6vectorIdSaIdEEE4baseEv
FN:989,_ZN9__gnu_cxxmiIPdSt6vectorIdSaIdEEEENS_17__normal_iteratorIT_T0_E15difference_typeERKS8_SB_
FNDA:18711,_ZN9__gnu_cxxmiIPdSt6vectorIdSaIdEEEENS_17__normal_iteratorIT_T0_E15difference_typeERKS8_SB_
DA:806,0
DA:807,0
DA:819,0
DA:820,0
DA:867,0
DA:868,0
DA:871,74844
DA:872,74844
DA:989,18711
DA:992,18711
end_of_record
SF:/usr/include/c++/9/bits/char_traits.h
FN:100,_ZN9__gnu_cxx11char_traitsIcE2eqERKcS3_
FNDA:0,_ZN9__gnu_cxx11char_traitsIcE2eqERKcS3_
FN:161,_ZN9__gnu_cxx11char_traitsIcE6lengthEPKc
FNDA:0,_ZN9__gnu_cxx11char_traitsIcE6lengthEPKc
FN:329,_ZNSt11char_traitsIcE6lengthEPKc
FNDA:0,_ZNSt11char_traitsIcE6lengthEPKc
DA:100,0
DA:101,0
DA:161,0
DA:164,0
DA:165,0
DA:166,0
DA:167,0
DA:236,0
DA:329,0
DA:332,0
DA:333,0
DA:335,0
end_of_record
SF:/usr/include/c++/9/bits/alloc_traits.h
FN:443,_ZNSt16allocator_traitsISaIdEE8allocateERS0_m
FNDA:0,_ZNSt16allocator_traitsISaIdEE8allocateERS0_m
FN:469,_ZNSt16allocator_traitsISaIdEE10deallocateERS0_Pdm
FNDA:0,_ZNSt16allocator_traitsISaIdEE10deallocateERS0_Pdm
FN:482,_ZNSt16allocator_traitsISaIdEE9constructIdJdEEEvRS0_PT_DpOT0_
FNDA:88209,_ZNSt16allocator_traitsISaIdEE9constructIdJdEEEvRS0_PT_DpOT0_
FN:505,_ZNSt16allocator_traitsISaIdEE8max_sizeERKS0_
FNDA:0,_ZNSt16allocator_traitsISaIdEE8max_sizeERKS0_
FN:514,_ZNSt16allocator_traitsISaIcEE37select_on_container_copy_constructionERKS0_
FNDA:0,_ZNSt16allocator_traitsISaIcEE37select_on_container_copy_constructionERKS0_
DA:443,0
DA:444,0
DA:469,0
DA:470,0
DA:482,88209
DA:484,88209
DA:505,0
DA:506,0
DA:514,0
DA:515,0
end_of_record
SF:/usr/include/c++/9/bits/stl_algobase.h
FN:198,_ZSt3minImERKT_S2_S2_
FNDA:0,_ZSt3minImERKT_S2_S2_
FN:222,_ZSt3maxImERKT_S2_S2_
FNDA:0,_ZSt3maxImERKT_S2_S2_
FN:280,_ZSt12__niter_baseIPdET_S1_
FNDA:0,_ZSt12__niter_baseIPdET_S1_
DA:198,0
DA:203,0
DA:204,0
DA:205,0
DA:222,0
DA:227,0
DA:228,0
DA:229,0
DA:280,0
DA:282,0
end_of_record
SF:/usr/include/c++/9/ext/type_traits.h
FN:152,_ZN9__gnu_cxx17__is_null_pointerIcEEbPT_
FNDA:0,_ZN9__gnu_cxx17__is_null_pointerIcEEbPT_
FN:152,_ZN9__gnu_cxx17__is_null_pointerIKcEEbPT_
FNDA:0,_ZN9__gnu_cxx17__is_null_pointerIKcEEbPT_
DA:152,0
DA:153,0
DA:152,0
DA:153,0
end_of_record
SF:/home/john/cse701/roc/include/exceptions.hpp
FN:10,_ZN10sayMessageC2ERKNSt7__cxx1112basic_stringIcSt11char_traitsIcESaIcEEE
FNDA:0,_ZN10sayMessageC2ERKNSt7__cxx1112basic_stringIcSt11char_traitsIcESaIcEEE
FN:11,_ZNK10sayMessage4whatEv
FNDA:0,_ZNK10sayMessage4whatEv
DA:10,0
DA:11,0
end_of_record
SF:/usr/include/c++/9/bits/unique_ptr.h
FN:153,_ZNSt15__uniq_ptr_implINSt10filesystem7__cxx114path5_List5_ImplENS3_13_Impl_deleterEE6_M_ptrEv
FNDA:0,_ZNSt15__uniq_ptr_implINSt10filesystem7__cxx114path5_List5_ImplENS3_13_Impl_deleterEE6_M_ptrEv
FN:154,_ZNKSt15__uniq_ptr_implINSt10filesystem7__cxx114path5_List5_ImplENS3_13_Impl_deleterEE6_M_ptrEv
FNDA:0,_ZNKSt15__uniq_ptr_implINSt10filesystem7__cxx114path5_List5_ImplENS3_13_Impl_deleterEE6_M_ptrEv
FN:155,_ZNSt15__uniq_ptr_implINSt10filesystem7__cxx114path5_List5_ImplENS3_13_Impl_deleterEE10_M_deleterEv
FNDA:0,_ZNSt15__uniq_ptr_implINSt10filesystem7__cxx114path5_List5_ImplENS3_13_Impl_deleterEE10_M_deleterEv
FN:286,_ZNSt10unique_ptrINSt10filesystem7__cxx114path5_List5_ImplENS3_13_Impl_deleterEED2Ev
FNDA:0,_ZNSt10unique_ptrINSt10filesystem7__cxx114path5_List5_ImplENS3_13_Impl_deleterEED2Ev
FN:360,_ZNKSt10unique_ptrINSt10filesystem7__cxx114path5_List5_ImplENS3_13_Impl_deleterEE3getEv
FNDA:0,_ZNKSt10unique_ptrINSt10filesystem7__cxx114path5_List5_ImplENS3_13_Impl_deleterEE3getEv
FN:365,_ZNSt10unique_ptrINSt10filesystem7__cxx114path5_List5_ImplENS3_13_Impl_deleterEE11get_deleterEv
FNDA:0,_ZNSt10unique_ptrINSt10filesystem7__cxx114path5_List5_ImplENS3_13_Impl_deleterEE11get_deleterEv
DA:153,0
DA:154,0
DA:155,0
DA:286,0
DA:290,0
DA:291,0
DA:292,0
DA:293,0
DA:294,0
DA:360,0
DA:361,0
DA:365,0
DA:366,0
end_of_record
SF:/usr/include/c++/9/bits/stl_iterator_base_funcs.h
FN:98,_ZSt10__distanceIPcENSt15iterator_traitsIT_E15difference_typeES2_S2_St26random_access_iterator_tag
FNDA:0,_ZSt10__distanceIPcENSt15iterator_traitsIT_E15difference_typeES2_S2_St26random_access_iterator_tag
FN:98,_ZSt10__distanceIPKcENSt15iterator_traitsIT_E15difference_typeES3_S3_St26random_access_iterator_tag
FNDA:0,_ZSt10__distanceIPKcENSt15iterator_traitsIT_E15difference_typeES3_S3_St26random_access_iterator_tag
FN:138,_ZSt8distanceIPcENSt15iterator_traitsIT_E15difference_typeES2_S2_
FNDA:0,_ZSt8distanceIPcENSt15iterator_traitsIT_E15difference_typeES2_S2_
FN:138,_ZSt8distanceIPKcENSt15iterator_traitsIT_E15difference_typeES3_S3_
FNDA:0,_ZSt8distanceIPKcENSt15iterator_traitsIT_E15difference_typeES3_S3_
DA:98,0
DA:104,0
DA:98,0
DA:104,0
DA:138,0
DA:141,0
DA:142,0
DA:138,0
DA:141,0
DA:142,0
end_of_record
SF:/usr/include/c++/9/bits/exception.h
FN:63,_ZNSt9exceptionC2Ev
FNDA:0,_ZNSt9exceptionC2Ev
DA:63,0
end_of_record
SF:/usr/include/c++/9/bits/move.h
FN:74,_ZSt7forwardIdEOT_RNSt16remove_referenceIS0_E4typeE
FNDA:283338,_ZSt7forwardIdEOT_RNSt16remove_referenceIS0_E4typeE
FN:99,_ZSt4moveIRdEONSt16remove_referenceIT_E4typeEOS2_
FNDA:88209,_ZSt4moveIRdEONSt16remove_referenceIT_E4typeEOS2_
FN:99,_ZSt4moveIRSaIcEEONSt16remove_referenceIT_E4typeEOS3_
FNDA:0,_ZSt4moveIRSaIcEEONSt16remove_referenceIT_E4typeEOS3_
FN:99,_ZSt4moveIRPNSt10filesystem7__cxx114path5_List5_ImplEEONSt16remove_referenceIT_E4typeEOS8_
FNDA:0,_ZSt4moveIRPNSt10filesystem7__cxx114path5_List5_ImplEEONSt16remove_referenceIT_E4typeEOS8_
DA:74,283338
DA:75,283338
DA:99,88209
DA:100,88209
DA:99,0
DA:100,0
DA:99,0
DA:100,0
end_of_record
SF:/usr/include/c++/9/tuple
FN:113,_ZNSt10_Head_baseILm1ENSt10filesystem7__cxx114path5_List13_Impl_deleterELb1EE7_M_headERS5_
FNDA:0,_ZNSt10_Head_baseILm1ENSt10filesystem7__cxx114path5_List13_Impl_deleterELb1EE7_M_headERS5_
FN:160,_ZNSt10_Head_baseILm0EPNSt10filesystem7__cxx114path5_List5_ImplELb0EE7_M_headERS6_
FNDA:0,_ZNSt10_Head_baseILm0EPNSt10filesystem7__cxx114path5_List5_ImplELb0EE7_M_headERS6_
FN:163,_ZNSt10_Head_baseILm0EPNSt10filesystem7__cxx114path5_List5_ImplELb0EE7_M_headERKS6_
FNDA:0,_ZNSt10_Head_baseILm0EPNSt10filesystem7__cxx114path5_List5_ImplELb0EE7_M_headERKS6_
FN:195,_ZNSt11_Tuple_implILm0EJPNSt10filesystem7__cxx114path5_List5_ImplENS3_13_Impl_deleterEEE7_M_headERS7_
FNDA:0,_ZNSt11_Tuple_implILm0EJPNSt10filesystem7__cxx114path5_List5_ImplENS3_13_Impl_deleterEEE7_M_headERS7_
FN:198,_ZNSt11_Tuple_implILm0EJPNSt10filesystem7__cxx114path5_List5_ImplENS3_13_Impl_deleterEEE7_M_headERKS7_
FNDA:0,_ZNSt11_Tuple_implILm0EJPNSt10filesystem7__cxx114path5_List5_ImplENS3_13_Impl_deleterEEE7_M_headERKS7_
FN:334,_ZNSt11_Tuple_implILm1EJNSt10filesystem7__cxx114path5_List13_Impl_deleterEEE7_M_headERS5_
FNDA:0,_ZNSt11_Tuple_implILm1EJNSt10filesystem7__cxx114path5_List13_Impl_deleterEEE7_M_headERS5_
FN:1309,_ZSt12__get_helperILm1ENSt10filesystem7__cxx114path5_List13_Impl_deleterEJEERT0_RSt11_Tuple_implIXT_EJS5_DpT1_EE
FNDA:0,_ZSt12__get_helperILm1ENSt10filesystem7__cxx114path5_List13_Impl_deleterEJEERT0_RSt11_Tuple_implIXT_EJS5_DpT1_EE
FN:1309,_ZSt12__get_helperILm0EPNSt10filesystem7__cxx114path5_List5_ImplEJNS3_13_Impl_deleterEEERT0_RSt11_Tuple_implIXT_EJS7_DpT1_EE
FNDA:0,_ZSt12__get_helperILm0EPNSt10filesystem7__cxx114path5_List5_ImplEJNS3_13_Impl_deleterEEERT0_RSt11_Tuple_implIXT_EJS7_DpT1_EE
FN:1314,_ZSt12__get_helperILm0EPNSt10filesystem7__cxx114path5_List5_ImplEJNS3_13_Impl_deleterEEERKT0_RKSt11_Tuple_implIXT_EJS7_DpT1_EE
FNDA:0,_ZSt12__get_helperILm0EPNSt10filesystem7__cxx114path5_List5_ImplEJNS3_13_Impl_deleterEEERKT0_RKSt11_Tuple_implIXT_EJS7_DpT1_EE
FN:1320,_ZSt3getILm1EJPNSt10filesystem7__cxx114path5_List5_ImplENS3_13_Impl_deleterEEERNSt13tuple_elementIXT_ESt5tupleIJDpT0_EEE4typeERSB_
FNDA:0,_ZSt3getILm1EJPNSt10filesystem7__cxx114path5_List5_ImplENS3_13_Impl_deleterEEERNSt13tuple_elementIXT_ESt5tupleIJDpT0_EEE4typeERSB_
FN:1320,_ZSt3getILm0EJPNSt10filesystem7__cxx114path5_List5_ImplENS3_13_Impl_deleterEEERNSt13tuple_elementIXT_ESt5tupleIJDpT0_EEE4typeERSB_
FNDA:0,_ZSt3getILm0EJPNSt10filesystem7__cxx114path5_List5_ImplENS3_13_Impl_deleterEEERNSt13tuple_elementIXT_ESt5tupleIJDpT0_EEE4typeERSB_
FN:1326,_ZSt3getILm0EJPNSt10filesystem7__cxx114path5_List5_ImplENS3_13_Impl_deleterEEERKNSt13tuple_elementIXT_ESt5tupleIJDpT0_EEE4typeERKSB_
FNDA:0,_ZSt3getILm0EJPNSt10filesystem7__cxx114path5_List5_ImplENS3_13_Impl_deleterEEERKNSt13tuple_elementIXT_ESt5tupleIJDpT0_EEE4typeERKSB_
DA:113,0
DA:160,0
DA:163,0
DA:195,0
DA:198,0
DA:334,0
DA:1309,0
DA:1310,0
DA:1309,0
DA:1310,0
DA:1314,0
DA:1315,0
DA:1320,0
DA:1321,0
DA:1320,0
DA:1321,0
DA:1326,0
DA:1327,0
end_of_record
SF:/usr/include/c++/9/ext/string_conversions.h
FN:54,_ZN9__gnu_cxx6__stoaIddcJEEET0_PFT_PKT1_PPS3_DpT2_EPKcS5_PmS9_
FNDA:88209,_ZN9__gnu_cxx6__stoaIddcJEEET0_PFT_PKT1_PPS3_DpT2_EPKcS5_PmS9_
FN:63,_ZZN9__gnu_cxx6__stoaIddcJEEET0_PFT_PKT1_PPS3_DpT2_EPKcS5_PmS9_EN11_Save_errnoC2Ev
FNDA:88209,_ZZN9__gnu_cxx6__stoaIddcJEEET0_PFT_PKT1_PPS3_DpT2_EPKcS5_PmS9_EN11_Save_errnoC2Ev
FN:64,_ZZN9__gnu_cxx6__stoaIddcJEEET0_PFT_PKT1_PPS3_DpT2_EPKcS5_PmS9_EN11_Save_errnoD2Ev
FNDA:88209,_ZZN9__gnu_cxx6__stoaIddcJEEET0_PFT_PKT1_PPS3_DpT2_EPKcS5_PmS9_EN11_Save_errnoD2Ev
FN:70,_ZZN9__gnu_cxx6__stoaIddcJEEET0_PFT_PKT1_PPS3_DpT2_EPKcS5_PmS9_EN10_Range_chk6_S_chkEdSt17integral_constantIbLb0EE
FNDA:88209,_ZZN9__gnu_cxx6__stoaIddcJEEET0_PFT_PKT1_PPS3_DpT2_EPKcS5_PmS9_EN10_Range_chk6_S_chkEdSt17integral_constantIbLb0EE
DA:54,88209
DA:63,88209
DA:64,88209
DA:66,88209
DA:70,88209
DA:80,88209
DA:82,88209
DA:83,0
DA:84,176418
DA:85,88209
DA:86,0
DA:88,88209
DA:90,88209
DA:91,0
DA:93,176418
end_of_record
SF:/usr/include/c++/9/bits/basic_string.h
FN:243,_ZNSt7__cxx1112basic_stringIcSt11char_traitsIcESaIcEE16_M_construct_auxIPcEEvT_S7_St12__false_type
FNDA:0,_ZNSt7__cxx1112basic_stringIcSt11char_traitsIcESaIcEE16_M_construct_auxIPcEEvT_S7_St12__false_type
FN:243,_ZNSt7__cxx1112basic_stringIcSt11char_traitsIcESaIcEE16_M_construct_auxIPKcEEvT_S8_St12__false_type
FNDA:0,_ZNSt7__cxx1112basic_stringIcSt11char_traitsIcESaIcEE16_M_construct_auxIPKcEEvT_S8_St12__false_type
FN:263,_ZNSt7__cxx1112basic_stringIcSt11char_traitsIcESaIcEE12_M_constructIPcEEvT_S7_
FNDA:0,_ZNSt7__cxx1112basic_stringIcSt11char_traitsIcESaIcEE12_M_constructIPcEEvT_S7_
FN:263,_ZNSt7__cxx1112basic_stringIcSt11char_traitsIcESaIcEE12_M_constructIPKcEEvT_S8_
FNDA:0,_ZNSt7__cxx1112basic_stringIcSt11char_traitsIcESaIcEE12_M_constructIPKcEEvT_S8_
FN:525,_ZNSt7__cxx1112basic_stringIcSt11char_traitsIcESaIcEEC2IS3_EEPKcRKS3_
FNDA:0,_ZNSt7__cxx1112basic_stringIcSt11char_traitsIcESaIcEEC2IS3_EEPKcRKS3_
FN:650,_ZNSt7__cxx1112basic_stringIcSt11char_traitsIcESaIcEEC2ISt17basic_string_viewIcS2_EvEERKT_RKS3_
FNDA:0,_ZNSt7__cxx1112basic_stringIcSt11char_traitsIcESaIcEEC2ISt17basic_string_viewIcS2_EvEERKT_RKS3_
FN:6533,_ZNSt7__cxx114stodERKNS_12basic_stringIcSt11char_traitsIcESaIcEEEPm
FNDA:88209,_ZNSt7__cxx114stodERKNS_12basic_stringIcSt11char_traitsIcESaIcEEEPm
DA:243,0
DA:247,0
DA:248,0
DA:243,0
DA:247,0
DA:248,0
DA:263,0
DA:266,0
DA:267,0
DA:263,0
DA:266,0
DA:267,0
DA:525,0
DA:526,0
DA:527,0
DA:650,0
DA:651,0
DA:6533,88209
DA:6534,88209
end_of_record
SF:/usr/include/c++/9/bits/vector.tcc
FN:109,_ZNSt6vectorIdSaIdEE12emplace_backIJdEEERdDpOT_
FNDA:88209,_ZNSt6vectorIdSaIdEE12emplace_backIJdEEERdDpOT_
FN:426,_ZNSt6vectorIdSaIdEE17_M_realloc_insertIJdEEEvN9__gnu_cxx17__normal_iteratorIPdS1_EEDpOT_
FNDA:18711,_ZNSt6vectorIdSaIdEE17_M_realloc_insertIJdEEEvN9__gnu_cxx17__normal_iteratorIPdS1_EEDpOT_
DA:109,88209
DA:112,88209
DA:115,69498
DA:117,69498
DA:121,18711
DA:123,88209
DA:426,18711
DA:435,18711
DA:437,18711
DA:438,18711
DA:439,18711
DA:440,18711
DA:441,18711
DA:449,18711
DA:450,18711
DA:456,18711
DA:461,18711
DA:462,18711
DA:464,18711
DA:466,18711
DA:467,18711
DA:500,18711
DA:501,18711
DA:502,18711
DA:503,18711
DA:504,18711
DA:505,18711
end_of_record
SF:/usr/include/c++/9/bits/stl_uninitialized.h
FN:924,_ZSt14__relocate_a_1IddENSt9enable_ifIXsrSt24__is_bitwise_relocatableIT_vE5valueEPS2_E4typeES4_S4_S4_RSaIT0_E
FNDA:37422,_ZSt14__relocate_a_1IddENSt9enable_ifIXsrSt24__is_bitwise_relocatableIT_vE5valueEPS2_E4typeES4_S4_S4_RSaIT0_E
FN:958,_ZSt12__relocate_aIPdS0_SaIdEET0_T_S3_S2_RT1_
FNDA:37422,_ZSt12__relocate_aIPdS0_SaIdEET0_T_S3_S2_RT1_
DA:924,37422
DA:927,37422
DA:928,37422
DA:929,16038
DA:930,37422
DA:958,37422
DA:964,37422
DA:966,37422
end_of_record
SF:/usr/include/c++/9/bits/fs_path.h
FN:135,_ZNSt10filesystem7__cxx114path14_S_range_beginIcSt11char_traitsIcESaIcEEEPKT_RKNSt7__cxx1112basic_stringIS6_T0_T1_EE
FNDA:16,_ZNSt10filesystem7__cxx114path14_S_range_beginIcSt11char_traitsIcESaIcEEEPKT_RKNSt7__cxx1112basic_stringIS6_T0_T1_EE
FN:140,_ZNSt10filesystem7__cxx114path12_S_range_endIcSt11char_traitsIcESaIcEEEPKT_RKNSt7__cxx1112basic_stringIS6_T0_T1_EE
FNDA:16,_ZNSt10filesystem7__cxx114path12_S_range_endIcSt11char_traitsIcESaIcEEEPKT_RKNSt7__cxx1112basic_stringIS6_T0_T1_EE
FN:173,_ZNSt10filesystem7__cxx114pathC2Ev
FNDA:0,_ZNSt10filesystem7__cxx114pathC2Ev
FN:191,_ZNSt10filesystem7__cxx114pathC2INSt7__cxx1112basic_stringIcSt11char_traitsIcESaIcEEES1_EERKT_NS1_6formatE
FNDA:16,_ZNSt10filesystem7__cxx114pathC2INSt7__cxx1112basic_stringIcSt11char_traitsIcESaIcEEES1_EERKT_NS1_6formatE
FN:218,_ZNSt10filesystem7__cxx114pathD2Ev
FNDA:0,_ZNSt10filesystem7__cxx114pathD2Ev
FN:376,_ZNKSt10filesystem7__cxx114path5emptyEv
FNDA:0,_ZNKSt10filesystem7__cxx114path5emptyEv
FN:439,_ZNSt10filesystem7__cxx11eqERKNS0_4pathES3_
FNDA:16,_ZNSt10filesystem7__cxx11eqERKNS0_4pathES3_
FN:503,_ZNSt10filesystem7__cxx114path10_S_convertEPKcS3_
FNDA:16,_ZNSt10filesystem7__cxx114path10_S_convertEPKcS3_
FN:552,_ZNKSt10filesystem7__cxx114path7_M_typeEv
FNDA:83,_ZNKSt10filesystem7__cxx114path7_M_typeEv
FN:569,_ZNSt10filesystem7__cxx114path5_ListD2Ev
FNDA:0,_ZNSt10filesystem7__cxx114path5_ListD2Ev
FN:571,_ZNKSt10filesystem7__cxx114path5_List4typeEv
FNDA:83,_ZNKSt10filesystem7__cxx114path5_List4typeEv
FN:829,_ZNSt10filesystem7__cxx11neERKNS0_4path8iteratorES4_
FNDA:17,_ZNSt10filesystem7__cxx11neERKNS0_4path8iteratorES4_
FN:866,_ZNSt10filesystem7__cxx114path8iteratorC2EPKS1_PKNS1_5_CmptE
FNDA:20,_ZNSt10filesystem7__cxx114path8iteratorC2EPKS1_PKNS1_5_CmptE
FN:870,_ZNSt10filesystem7__cxx114path8iteratorC2EPKS1_b
FNDA:0,_ZNSt10filesystem7__cxx114path8iteratorC2EPKS1_b
FN:1196,_ZNKSt10filesystem7__cxx114path5beginEv
FNDA:3,_ZNKSt10filesystem7__cxx114path5beginEv
FN:1204,_ZNKSt10filesystem7__cxx114path3endEv
FNDA:17,_ZNKSt10filesystem7__cxx114path3endEv
FN:1212,_ZNSt10filesystem7__cxx114path8iteratorppEv
FNDA:14,_ZNSt10filesystem7__cxx114path8iteratorppEv
FN:1246,_ZNKSt10filesystem7__cxx114path8iteratordeEv
FNDA:32,_ZNKSt10filesystem7__cxx114path8iteratordeEv
FN:1258,_ZNKSt10filesystem7__cxx114path8iterator9_M_equalsES2_
FNDA:17,_ZNKSt10filesystem7__cxx114path8iterator9_M_equalsES2_
DA:135,16
DA:136,16
DA:140,16
DA:141,16
DA:173,0
DA:191,16
DA:192,16
DA:193,32
DA:194,16
DA:218,0
DA:376,0
DA:439,16
DA:440,16
DA:503,16
DA:504,16
DA:552,83
DA:569,0
DA:571,83
DA:572,83
DA:829,17
DA:830,17
DA:866,20
DA:867,20
DA:868,20
DA:870,0
DA:871,0
DA:872,0
DA:1196,3
DA:1198,3
DA:1199,3
DA:1200,0
DA:1204,17
DA:1206,17
DA:1207,17
DA:1208,0
DA:1212,14
DA:1215,14
DA:1218,14
DA:1223,0
DA:1225,14
DA:1246,32
DA:1249,32
DA:1252,32
DA:1254,0
DA:1258,17
DA:1260,17
DA:1261,0
DA:1262,17
DA:1263,0
DA:1264,17
DA:1265,17
DA:1266,0
end_of_record
SF:/usr/include/c++/9/bits/stl_vector.h
FN:94,_ZNSt12_Vector_baseIdSaIdEE17_Vector_impl_dataC2Ev
FNDA:0,_ZNSt12_Vector_baseIdSaIdEE17_Vector_impl_dataC2Ev
FN:128,_ZNSt12_Vector_baseIdSaIdEE12_Vector_implC2Ev
FNDA:0,_ZNSt12_Vector_baseIdSaIdEE12_Vector_implC2Ev
FN:273,_ZNSt12_Vector_baseIdSaIdEE19_M_get_Tp_allocatorEv
FNDA:0,_ZNSt12_Vector_baseIdSaIdEE19_M_get_Tp_allocatorEv
FN:277,_ZNKSt12_Vector_baseIdSaIdEE19_M_get_Tp_allocatorEv
FNDA:0,_ZNKSt12_Vector_baseIdSaIdEE19_M_get_Tp_allocatorEv
FN:285,_ZNSt12_Vector_baseIdSaIdEEC2Ev
FNDA:0,_ZNSt12_Vector_baseIdSaIdEEC2Ev
FN:330,_ZNSt12_Vector_baseIdSaIdEED2Ev
FNDA:0,_ZNSt12_Vector_baseIdSaIdEED2Ev
FN:340,_ZNSt12_Vector_baseIdSaIdEE11_M_allocateEm
FNDA:0,_ZNSt12_Vector_baseIdSaIdEE11_M_allocateEm
FN:347,_ZNSt12_Vector_baseIdSaIdEE13_M_deallocateEPdm
FNDA:0,_ZNSt12_Vector_baseIdSaIdEE13_M_deallocateEPdm
FN:450,_ZNSt6vectorIdSaIdEE14_S_do_relocateEPdS2_S2_RS0_St17integral_constantIbLb1EE
FNDA:37422,_ZNSt6vectorIdSaIdEE14_S_do_relocateEPdS2_S2_RS0_St17integral_constantIbLb1EE
FN:462,_ZNSt6vectorIdSaIdEE11_S_relocateEPdS2_S2_RS0_
FNDA:37422,_ZNSt6vectorIdSaIdEE11_S_relocateEPdS2_S2_RS0_
FN:484,_ZNSt6vectorIdSaIdEEC2Ev
FNDA:0,_ZNSt6vectorIdSaIdEEC2Ev
FN:675,_ZNSt6vectorIdSaIdEED2Ev
FNDA:0,_ZNSt6vectorIdSaIdEED2Ev
FN:808,_ZNSt6vectorIdSaIdEE5beginEv
FNDA:18711,_ZNSt6vectorIdSaIdEE5beginEv
FN:826,_ZNSt6vectorIdSaIdEE3endEv
FNDA:0,_ZNSt6vectorIdSaIdEE3endEv
FN:915,_ZNKSt6vectorIdSaIdEE4sizeEv
FNDA:0,_ZNKSt6vectorIdSaIdEE4sizeEv
FN:920,_ZNKSt6vectorIdSaIdEE8max_sizeEv
FNDA:37422,_ZNKSt6vectorIdSaIdEE8max_sizeEv
FN:1058,_ZNKSt6vectorIdSaIdEEixEm
FNDA:0,_ZNKSt6vectorIdSaIdEEixEm
FN:1140,_ZNSt6vectorIdSaIdEE4backEv
FNDA:0,_ZNSt6vectorIdSaIdEE4backEv
FN:1200,_ZNSt6vectorIdSaIdEE9push_backEOd
FNDA:88209,_ZNSt6vectorIdSaIdEE9push_backEOd
FN:1753,_ZNKSt6vectorIdSaIdEE12_M_check_lenEmPKc
FNDA:18711,_ZNKSt6vectorIdSaIdEE12_M_check_lenEmPKc
FN:1773,_ZNSt6vectorIdSaIdEE11_S_max_sizeERKS0_
FNDA:0,_ZNSt6vectorIdSaIdEE11_S_max_sizeERKS0_
DA:94,0
DA:95,0
DA:96,0
DA:128,0
DA:130,0
DA:131,0
DA:273,0
DA:274,0
DA:277,0
DA:278,0
DA:285,0
DA:330,0
DA:332,0
DA:333,0
DA:334,0
DA:340,0
DA:343,0
DA:347,0
DA:350,0
DA:351,0
DA:352,0
DA:450,37422
DA:453,37422
DA:462,37422
DA:466,37422
DA:484,0
DA:675,0
DA:677,0
DA:678,0
DA:680,0
DA:808,18711
DA:809,18711
DA:826,0
DA:827,0
DA:915,0
DA:916,0
DA:920,37422
DA:921,37422
DA:1058,0
DA:1061,0
DA:1140,0
DA:1143,0
DA:1200,88209
DA:1201,88209
DA:1753,18711
DA:1755,18711
DA:1756,0
DA:1758,18711
DA:1759,18711
DA:1773,0
DA:1778,0
DA:1780,0
DA:1781,0
end_of_record
SF:/usr/include/c++/9/iostream
end_of_record
SF:/usr/include/c++/9/new
FN:173,_ZnwmPv
FNDA:0,_ZnwmPv
DA:173,0
DA:174,0
end_of_record
SF:/usr/include/c++/9/ext/alloc_traits.h
FN:97,_ZN9__gnu_cxx14__alloc_traitsISaIcEcE17_S_select_on_copyERKS1_
FNDA:0,_ZN9__gnu_cxx14__alloc_traitsISaIcEcE17_S_select_on_copyERKS1_
DA:97,0
DA:98,0
end_of_record
SF:/usr/include/c++/9/bits/basic_string.tcc
FN:206,_ZNSt7__cxx1112basic_stringIcSt11char_traitsIcESaIcEE12_M_constructIPcEEvT_S7_St20forward_iterator_tag
FNDA:0,_ZNSt7__cxx1112basic_stringIcSt11char_traitsIcESaIcEE12_M_constructIPcEEvT_S7_St20forward_iterator_tag
FN:206,_ZNSt7__cxx1112basic_stringIcSt11char_traitsIcESaIcEE12_M_constructIPKcEEvT_S8_St20forward_iterator_tag
FNDA:0,_ZNSt7__cxx1112basic_stringIcSt11char_traitsIcESaIcEE12_M_constructIPKcEEvT_S8_St20forward_iterator_tag
DA:206,0
DA:211,0
DA:212,0
DA:215,0
DA:217,0
DA:219,0
DA:220,0
DA:225,0
DA:226,0
DA:228,0
DA:229,0
DA:232,0
DA:233,0
DA:206,0
DA:211,0
DA:212,0
DA:215,0
DA:217,0
DA:219,0
DA:220,0
DA:225,0
DA:226,0
DA:228,0
DA:229,0
DA:232,0
DA:233,0
end_of_record
TN:
SF:/usr/include/c++/9/bits/stl_algobase.h
FN:222,_ZSt3maxIiERKT_S2_S2_
FNDA:102,_ZSt3maxIiERKT_S2_S2_
DA:222,102
DA:227,102
DA:228,68
DA:229,34
end_of_record
SF:/home/john/cse701/roc/src/minnormsol.cpp
FN:18,_Z15MinNormSolutioniiPdS_
FNDA:34,_Z15MinNormSolutioniiPdS_
DA:18,34
DA:23,34
DA:24,34
DA:25,34
DA:26,34
DA:30,34
DA:32,34
DA:33,34
DA:35,0
DA:37,0
DA:40,34
DA:43,34
DA:46,34
DA:48,34
DA:50,34
DA:52,0
DA:54,0
DA:56,34
DA:58,0
DA:60,0
DA:61,0
DA:62,0
DA:64,34
end_of_record
TN:
SF:/usr/include/c++/9/bits/stl_uninitialized.h
FN:99,_ZNSt20__uninitialized_copyILb1EE13__uninit_copyIPKiPiEET0_T_S6_S5_
FNDA:0,_ZNSt20__uninitialized_copyILb1EE13__uninit_copyIPKiPiEET0_T_S6_S5_
FN:115,_ZSt18uninitialized_copyIPKiPiET0_T_S4_S3_
FNDA:0,_ZSt18uninitialized_copyIPKiPiET0_T_S4_S3_
FN:305,_ZSt22__uninitialized_copy_aIPKiPiiET0_T_S4_S3_RSaIT1_E
FNDA:0,_ZSt22__uninitialized_copy_aIPKiPiiET0_T_S4_S3_RSaIT1_E
DA:99,0
DA:101,0
DA:115,0
DA:134,0
DA:140,0
DA:305,0
DA:307,0
end_of_record
SF:/usr/include/c++/9/bits/basic_string.h
FN:243,_ZNSt7__cxx1112basic_stringIcSt11char_traitsIcESaIcEE16_M_construct_auxIPcEEvT_S7_St12__false_type
FNDA:0,_ZNSt7__cxx1112basic_stringIcSt11char_traitsIcESaIcEE16_M_construct_auxIPcEEvT_S7_St12__false_type
FN:243,_ZNSt7__cxx1112basic_stringIcSt11char_traitsIcESaIcEE16_M_construct_auxIPKcEEvT_S8_St12__false_type
FNDA:0,_ZNSt7__cxx1112basic_stringIcSt11char_traitsIcESaIcEE16_M_construct_auxIPKcEEvT_S8_St12__false_type
FN:263,_ZNSt7__cxx1112basic_stringIcSt11char_traitsIcESaIcEE12_M_constructIPcEEvT_S7_
FNDA:0,_ZNSt7__cxx1112basic_stringIcSt11char_traitsIcESaIcEE12_M_constructIPcEEvT_S7_
FN:263,_ZNSt7__cxx1112basic_stringIcSt11char_traitsIcESaIcEE12_M_constructIPKcEEvT_S8_
FNDA:0,_ZNSt7__cxx1112basic_stringIcSt11char_traitsIcESaIcEE12_M_constructIPKcEEvT_S8_
FN:525,_ZNSt7__cxx1112basic_stringIcSt11char_traitsIcESaIcEEC2IS3_EEPKcRKS3_
FNDA:0,_ZNSt7__cxx1112basic_stringIcSt11char_traitsIcESaIcEEC2IS3_EEPKcRKS3_
FN:6175,_ZSteqIcSt11char_traitsIcESaIcEEbRKNSt7__cxx1112basic_stringIT_T0_T1_EEPKS5_
FNDA:0,_ZSteqIcSt11char_traitsIcESaIcEEbRKNSt7__cxx1112basic_stringIT_T0_T1_EEPKS5_
FN:6213,_ZStneIcSt11char_traitsIcESaIcEEbRKNSt7__cxx1112basic_stringIT_T0_T1_EEPKS5_
FNDA:0,_ZStneIcSt11char_traitsIcESaIcEEbRKNSt7__cxx1112basic_stringIT_T0_T1_EEPKS5_
DA:243,0
DA:247,0
DA:248,0
DA:243,0
DA:247,0
DA:248,0
DA:263,0
DA:266,0
DA:267,0
DA:263,0
DA:266,0
DA:267,0
DA:525,0
DA:526,0
DA:527,0
DA:6175,0
DA:6177,0
DA:6213,0
DA:6215,0
end_of_record
SF:/usr/local/include/gmock/gmock-matchers.h
FN:90,_ZN7testing25StringMatchResultListenerC2Ev
FNDA:0,_ZN7testing25StringMatchResultListenerC2Ev
FN:93,_ZNK7testing25StringMatchResultListener3strB5cxx11Ev
FNDA:0,_ZNK7testing25StringMatchResultListener3strB5cxx11Ev
FN:121,_ZN7testing8internal15MatcherCastImplIRKiNS0_9EqMatcherIiEEE4CastERKS5_
FNDA:0,_ZN7testing8internal15MatcherCastImplIRKiNS0_9EqMatcherIiEEE4CastERKS5_
FN:121,_ZN7testing8internal15MatcherCastImplIRKiNS0_9EqMatcherImEEE4CastERKS5_
FNDA:0,_ZN7testing8internal15MatcherCastImplIRKiNS0_9EqMatcherImEEE4CastERKS5_
FN:121,_ZN7testing8internal15MatcherCastImplIRKmNS0_9EqMatcherIiEEE4CastERKS5_
FNDA:0,_ZN7testing8internal15MatcherCastImplIRKmNS0_9EqMatcherIiEEE4CastERKS5_
FN:142,_ZN7testing8internal15MatcherCastImplIRKiNS0_9EqMatcherImEEE8CastImplILb0EEENS_7MatcherIS3_EERKS5_St17integral_constantIbLb1EESC_IbXT_EE
FNDA:0,_ZN7testing8internal15MatcherCastImplIRKiNS0_9EqMatcherImEEE8CastImplILb0EEENS_7MatcherIS3_EERKS5_St17integral_constantIbLb1EESC_IbXT_EE
FN:142,_ZN7testing8internal15MatcherCastImplIRKiNS0_9EqMatcherIiEEE8CastImplILb0EEENS_7MatcherIS3_EERKS5_St17integral_constantIbLb1EESC_IbXT_EE
FNDA:0,_ZN7testing8internal15MatcherCastImplIRKiNS0_9EqMatcherIiEEE8CastImplILb0EEENS_7MatcherIS3_EERKS5_St17integral_constantIbLb1EESC_IbXT_EE
FN:142,_ZN7testing8internal15MatcherCastImplIRKmNS0_9EqMatcherIiEEE8CastImplILb0EEENS_7MatcherIS3_EERKS5_St17integral_constantIbLb1EESC_IbXT_EE
FNDA:0,_ZN7testing8internal15MatcherCastImplIRKmNS0_9EqMatcherIiEEE8CastImplILb0EEENS_7MatcherIS3_EERKS5_St17integral_constantIbLb1EESC_IbXT_EE
FN:259,_ZN7testing19SafeMatcherCastImplIRKiE4CastINS_8internal9EqMatcherImEEEENS_7MatcherIS2_EERKT_
FNDA:0,_ZN7testing19SafeMatcherCastImplIRKiE4CastINS_8internal9EqMatcherImEEEENS_7MatcherIS2_EERKT_
FN:259,_ZN7testing19SafeMatcherCastImplIRKmE4CastINS_8internal9EqMatcherIiEEEENS_7MatcherIS2_EERKT_
FNDA:0,_ZN7testing19SafeMatcherCastImplIRKmE4CastINS_8internal9EqMatcherIiEEEENS_7MatcherIS2_EERKT_
FN:259,_ZN7testing19SafeMatcherCastImplIRKiE4CastINS_8internal9EqMatcherIiEEEENS_7MatcherIS2_EERKT_
FNDA:0,_ZN7testing19SafeMatcherCastImplIRKiE4CastINS_8internal9EqMatcherIiEEEENS_7MatcherIS2_EERKT_
FN:297,_ZN7testing15SafeMatcherCastIRKiNS_8internal9EqMatcherIiEEEENS_7MatcherIT_EERKT0_
FNDA:0,_ZN7testing15SafeMatcherCastIRKiNS_8internal9EqMatcherIiEEEENS_7MatcherIT_EERKT0_
FN:297,_ZN7testing15SafeMatcherCastIRKiNS_8internal9EqMatcherImEEEENS_7MatcherIT_EERKT0_
FNDA:0,_ZN7testing15SafeMatcherCastIRKiNS_8internal9EqMatcherImEEEENS_7MatcherIT_EERKT0_
FN:297,_ZN7testing15SafeMatcherCastIRKmNS_8internal9EqMatcherIiEEEENS_7MatcherIT_EERKT0_
FNDA:0,_ZN7testing15SafeMatcherCastIRKmNS_8internal9EqMatcherIiEEEENS_7MatcherIT_EERKT0_
FN:310,_ZN7testing8internal15PrintIfNotEmptyERKNSt7__cxx1112basic_stringIcSt11char_traitsIcESaIcEEEPSo
FNDA:0,_ZN7testing8internal15PrintIfNotEmptyERKNSt7__cxx1112basic_stringIcSt11char_traitsIcESaIcEEEPSo
FN:320,_ZN7testing8internal18IsReadableTypeNameERKNSt7__cxx1112basic_stringIcSt11char_traitsIcESaIcEEE
FNDA:0,_ZN7testing8internal18IsReadableTypeNameERKNSt7__cxx1112basic_stringIcSt11char_traitsIcESaIcEEE
FN:333,_ZN7testing8internal20MatchPrintAndExplainIKiRS2_EEbRT_RKNS_7MatcherIT0_EEPNS_19MatchResultListenerE
FNDA:0,_ZN7testing8internal20MatchPrintAndExplainIKiRS2_EEbRT_RKNS_7MatcherIT0_EEPNS_19MatchResultListenerE
FN:333,_ZN7testing8internal20MatchPrintAndExplainIKmRS2_EEbRT_RKNS_7MatcherIT0_EEPNS_19MatchResultListenerE
FNDA:0,_ZN7testing8internal20MatchPrintAndExplainIKmRS2_EEbRT_RKNS_7MatcherIT0_EEPNS_19MatchResultListenerE
FN:1295,_ZN7testing8internal29PredicateFormatterFromMatcherINS0_9EqMatcherImEEEC2ES3_
FNDA:0,_ZN7testing8internal29PredicateFormatterFromMatcherINS0_9EqMatcherImEEEC2ES3_
FN:1295,_ZN7testing8internal29PredicateFormatterFromMatcherINS0_9EqMatcherIiEEEC2ES3_
FNDA:0,_ZN7testing8internal29PredicateFormatterFromMatcherINS0_9EqMatcherIiEEEC2ES3_
FN:1301,_ZNK7testing8internal29PredicateFormatterFromMatcherINS0_9EqMatcherIiEEEclIiEENS_15AssertionResultEPKcRKT_
FNDA:0,_ZNK7testing8internal29PredicateFormatterFromMatcherINS0_9EqMatcherIiEEEclIiEENS_15AssertionResultEPKcRKT_
FN:1301,_ZNK7testing8internal29PredicateFormatterFromMatcherINS0_9EqMatcherImEEEclIiEENS_15AssertionResultEPKcRKT_
FNDA:0,_ZNK7testing8internal29PredicateFormatterFromMatcherINS0_9EqMatcherImEEEclIiEENS_15AssertionResultEPKcRKT_
FN:1301,_ZNK7testing8internal29PredicateFormatterFromMatcherINS0_9EqMatcherIiEEEclImEENS_15AssertionResultEPKcRKT_
FNDA:0,_ZNK7testing8internal29PredicateFormatterFromMatcherINS0_9EqMatcherIiEEEclImEENS_15AssertionResultEPKcRKT_
FN:1348,_ZN7testing8internal33MakePredicateFormatterFromMatcherINS0_9EqMatcherImEEEENS0_29PredicateFormatterFromMatcherIT_EES5_
FNDA:0,_ZN7testing8internal33MakePredicateFormatterFromMatcherINS0_9EqMatcherImEEEENS0_29PredicateFormatterFromMatcherIT_EES5_
FN:1348,_ZN7testing8internal33MakePredicateFormatterFromMatcherINS0_9EqMatcherIiEEEENS0_29PredicateFormatterFromMatcherIT_EES5_
FNDA:0,_ZN7testing8internal33MakePredicateFormatterFromMatcherINS0_9EqMatcherIiEEEENS0_29PredicateFormatterFromMatcherIT_EES5_
DA:90,0
DA:93,0
DA:121,0
DA:137,0
DA:121,0
DA:137,0
DA:121,0
DA:137,0
DA:142,0
DA:153,0
DA:142,0
DA:153,0
DA:142,0
DA:153,0
DA:259,0
DA:260,0
DA:259,0
DA:260,0
DA:259,0
DA:260,0
DA:297,0
DA:298,0
DA:297,0
DA:298,0
DA:297,0
DA:298,0
DA:310,0
DA:312,0
DA:313,0
DA:315,0
DA:320,0
DA:323,0
DA:324,0
DA:333,0
DA:335,0
DA:338,0
DA:341,0
DA:342,0
DA:344,0
DA:346,0
DA:347,0
DA:348,0
DA:350,0
DA:352,0
DA:333,0
DA:335,0
DA:338,0
DA:341,0
DA:342,0
DA:344,0
DA:346,0
DA:347,0
DA:348,0
DA:350,0
DA:352,0
DA:1295,0
DA:1295,0
DA:1301,0
DA:1313,0
DA:1317,0
DA:1318,0
DA:1321,0
DA:1323,0
DA:1324,0
DA:1327,0
DA:1328,0
DA:1329,0
DA:1332,0
DA:1333,0
DA:1301,0
DA:1313,0
DA:1317,0
DA:1318,0
DA:1321,0
DA:1323,0
DA:1324,0
DA:1327,0
DA:1328,0
DA:1329,0
DA:1332,0
DA:1333,0
DA:1301,0
DA:1313,0
DA:1317,0
DA:1318,0
DA:1321,0
DA:1323,0
DA:1324,0
DA:1327,0
DA:1328,0
DA:1329,0
DA:1332,0
DA:1333,0
DA:1348,0
DA:1349,0
DA:1348,0
DA:1349,0
end_of_record
SF:/usr/local/include/gtest/gtest-matchers.h
FN:85,_ZN7testing19MatchResultListenerC2EPSo
FNDA:0,_ZN7testing19MatchResultListenerC2EPSo
FN:97,_ZN7testing19MatchResultListener6streamEv
FNDA:0,_ZN7testing19MatchResultListener6streamEv
FN:103,_ZNK7testing19MatchResultListener12IsInterestedEv
FNDA:0,_ZNK7testing19MatchResultListener12IsInterestedEv
FN:111,_ZN7testing19MatchResultListenerD2Ev
FNDA:0,_ZN7testing19MatchResultListenerD2Ev
FN:111,_ZN7testing19MatchResultListenerD0Ev
FNDA:0,_ZN7testing19MatchResultListenerD0Ev
FN:118,_ZN7testing25MatcherDescriberInterfaceD2Ev
FNDA:0,_ZN7testing25MatcherDescriberInterfaceD2Ev
FN:118,_ZN7testing25MatcherDescriberInterfaceD0Ev
FNDA:0,_ZN7testing25MatcherDescriberInterfaceD0Ev
FN:133,_ZNK7testing25MatcherDescriberInterface18DescribeNegationToEPSo
FNDA:0,_ZNK7testing25MatcherDescriberInterface18DescribeNegationToEPSo
FN:211,_ZNK7testing8internal5AnyEqclIimEEbRKT_RKT0_
FNDA:0,_ZNK7testing8internal5AnyEqclIimEEbRKT_RKT0_
FN:211,_ZNK7testing8internal5AnyEqclImiEEbRKT_RKT0_
FNDA:0,_ZNK7testing8internal5AnyEqclImiEEbRKT_RKT0_
FN:211,_ZNK7testing8internal5AnyEqclIiiEEbRKT_RKT0_
FNDA:0,_ZNK7testing8internal5AnyEqclIiiEEbRKT_RKT0_
FN:237,_ZN7testing8internal24DummyMatchResultListenerC2Ev
FNDA:0,_ZN7testing8internal24DummyMatchResultListenerC2Ev
FN:263,_ZNK7testing8internal11MatcherBaseIRKiE15MatchAndExplainES3_PNS_19MatchResultListenerE
FNDA:0,_ZNK7testing8internal11MatcherBaseIRKiE15MatchAndExplainES3_PNS_19MatchResultListenerE
FN:263,_ZNK7testing8internal11MatcherBaseIRKmE15MatchAndExplainES3_PNS_19MatchResultListenerE
FNDA:0,_ZNK7testing8internal11MatcherBaseIRKmE15MatchAndExplainES3_PNS_19MatchResultListenerE
FN:268,_ZNK7testing8internal11MatcherBaseIRKmE7MatchesES3_
FNDA:0,_ZNK7testing8internal11MatcherBaseIRKmE7MatchesES3_
FN:268,_ZNK7testing8internal11MatcherBaseIRKiE7MatchesES3_
FNDA:0,_ZNK7testing8internal11MatcherBaseIRKiE7MatchesES3_
FN:274,_ZNK7testing8internal11MatcherBaseIRKmE10DescribeToEPSo
FNDA:0,_ZNK7testing8internal11MatcherBaseIRKmE10DescribeToEPSo
FN:274,_ZNK7testing8internal11MatcherBaseIRKiE10DescribeToEPSo
FNDA:0,_ZNK7testing8internal11MatcherBaseIRKiE10DescribeToEPSo
FN:298,_ZN7testing8internal11MatcherBaseIRKiEC2EPKNS_16MatcherInterfaceIS3_EE
FNDA:0,_ZN7testing8internal11MatcherBaseIRKiEC2EPKNS_16MatcherInterfaceIS3_EE
FN:298,_ZN7testing8internal11MatcherBaseIRKmEC2EPKNS_16MatcherInterfaceIS3_EE
FNDA:0,_ZN7testing8internal11MatcherBaseIRKmEC2EPKNS_16MatcherInterfaceIS3_EE
FN:312,_ZN7testing8internal11MatcherBaseIRKmED0Ev
FNDA:0,_ZN7testing8internal11MatcherBaseIRKmED0Ev
FN:312,_ZN7testing8internal11MatcherBaseIRKiED2Ev
FNDA:0,_ZN7testing8internal11MatcherBaseIRKiED2Ev
FN:312,_ZN7testing8internal11MatcherBaseIRKiED0Ev
FNDA:0,_ZN7testing8internal11MatcherBaseIRKiED0Ev
FN:312,_ZN7testing8internal11MatcherBaseIRKmED2Ev
FNDA:0,_ZN7testing8internal11MatcherBaseIRKmED2Ev
FN:333,_ZN7testing7MatcherIRKiEC2EPKNS_16MatcherInterfaceIS2_EE
FNDA:0,_ZN7testing7MatcherIRKiEC2EPKNS_16MatcherInterfaceIS2_EE
FN:333,_ZN7testing7MatcherIRKmEC2EPKNS_16MatcherInterfaceIS2_EE
FNDA:0,_ZN7testing7MatcherIRKmEC2EPKNS_16MatcherInterfaceIS2_EE
FN:531,_ZN7testing8internal14ComparisonBaseINS0_9EqMatcherImEEmNS0_5AnyEqEEC2ERKm
FNDA:0,_ZN7testing8internal14ComparisonBaseINS0_9EqMatcherImEEmNS0_5AnyEqEEC2ERKm
FN:531,_ZN7testing8internal14ComparisonBaseINS0_9EqMatcherIiEEiNS0_5AnyEqEEC2ERKi
FNDA:0,_ZN7testing8internal14ComparisonBaseINS0_9EqMatcherIiEEiNS0_5AnyEqEEC2ERKi
FN:533,_ZNK7testing8internal14ComparisonBaseINS0_9EqMatcherImEEmNS0_5AnyEqEEcvNS_7MatcherIT_EEIRKiEEv
FNDA:0,_ZNK7testing8internal14ComparisonBaseINS0_9EqMatcherImEEmNS0_5AnyEqEEcvNS_7MatcherIT_EEIRKiEEv
FN:533,_ZNK7testing8internal14ComparisonBaseINS0_9EqMatcherIiEEiNS0_5AnyEqEEcvNS_7MatcherIT_EEIRKiEEv
FNDA:0,_ZNK7testing8internal14ComparisonBaseINS0_9EqMatcherIiEEiNS0_5AnyEqEEcvNS_7MatcherIT_EEIRKiEEv
FN:533,_ZNK7testing8internal14ComparisonBaseINS0_9EqMatcherIiEEiNS0_5AnyEqEEcvNS_7MatcherIT_EEIRKmEEv
FNDA:0,_ZNK7testing8internal14ComparisonBaseINS0_9EqMatcherIiEEiNS0_5AnyEqEEcvNS_7MatcherIT_EEIRKmEEv
FN:539,_ZN7testing8internal14ComparisonBaseINS0_9EqMatcherImEEmNS0_5AnyEqEE6UnwrapImEERKT_S9_
FNDA:0,_ZN7testing8internal14ComparisonBaseINS0_9EqMatcherImEEmNS0_5AnyEqEE6UnwrapImEERKT_S9_
FN:539,_ZN7testing8internal14ComparisonBaseINS0_9EqMatcherIiEEiNS0_5AnyEqEE6UnwrapIiEERKT_S9_
FNDA:0,_ZN7testing8internal14ComparisonBaseINS0_9EqMatcherIiEEiNS0_5AnyEqEE6UnwrapIiEERKT_S9_
FN:546,_ZN7testing8internal14ComparisonBaseINS0_9EqMatcherIiEEiNS0_5AnyEqEE4ImplIRKmiEC2ERKi
FNDA:0,_ZN7testing8internal14ComparisonBaseINS0_9EqMatcherIiEEiNS0_5AnyEqEE4ImplIRKmiEC2ERKi
FN:546,_ZN7testing8internal14ComparisonBaseINS0_9EqMatcherImEEmNS0_5AnyEqEE4ImplIRKimEC2ERKm
FNDA:0,_ZN7testing8internal14ComparisonBaseINS0_9EqMatcherImEEmNS0_5AnyEqEE4ImplIRKimEC2ERKm
FN:546,_ZN7testing8internal14ComparisonBaseINS0_9EqMatcherIiEEiNS0_5AnyEqEE4ImplIRKiiEC2ES8_
FNDA:0,_ZN7testing8internal14ComparisonBaseINS0_9EqMatcherIiEEiNS0_5AnyEqEE4ImplIRKiiEC2ES8_
FN:547,_ZNK7testing8internal14ComparisonBaseINS0_9EqMatcherIiEEiNS0_5AnyEqEE4ImplIRKmiE15MatchAndExplainES8_PNS_19MatchResultListenerE
FNDA:0,_ZNK7testing8internal14ComparisonBaseINS0_9EqMatcherIiEEiNS0_5AnyEqEE4ImplIRKmiE15MatchAndExplainES8_PNS_19MatchResultListenerE
FN:547,_ZNK7testing8internal14ComparisonBaseINS0_9EqMatcherIiEEiNS0_5AnyEqEE4ImplIRKiiE15MatchAndExplainES8_PNS_19MatchResultListenerE
FNDA:0,_ZNK7testing8internal14ComparisonBaseINS0_9EqMatcherIiEEiNS0_5AnyEqEE4ImplIRKiiE15MatchAndExplainES8_PNS_19MatchResultListenerE
FN:547,_ZNK7testing8internal14ComparisonBaseINS0_9EqMatcherImEEmNS0_5AnyEqEE4ImplIRKimE15MatchAndExplainES8_PNS_19MatchResultListenerE
FNDA:0,_ZNK7testing8internal14ComparisonBaseINS0_9EqMatcherImEEmNS0_5AnyEqEE4ImplIRKimE15MatchAndExplainES8_PNS_19MatchResultListenerE
FN:551,_ZNK7testing8internal14ComparisonBaseINS0_9EqMatcherIiEEiNS0_5AnyEqEE4ImplIRKiiE10DescribeToEPSo
FNDA:0,_ZNK7testing8internal14ComparisonBaseINS0_9EqMatcherIiEEiNS0_5AnyEqEE4ImplIRKiiE10DescribeToEPSo
FN:551,_ZNK7testing8internal14ComparisonBaseINS0_9EqMatcherImEEmNS0_5AnyEqEE4ImplIRKimE10DescribeToEPSo
FNDA:0,_ZNK7testing8internal14ComparisonBaseINS0_9EqMatcherImEEmNS0_5AnyEqEE4ImplIRKimE10DescribeToEPSo
FN:551,_ZNK7testing8internal14ComparisonBaseINS0_9EqMatcherIiEEiNS0_5AnyEqEE4ImplIRKmiE10DescribeToEPSo
FNDA:0,_ZNK7testing8internal14ComparisonBaseINS0_9EqMatcherIiEEiNS0_5AnyEqEE4ImplIRKmiE10DescribeToEPSo
FN:555,_ZNK7testing8internal14ComparisonBaseINS0_9EqMatcherIiEEiNS0_5AnyEqEE4ImplIRKmiE18DescribeNegationToEPSo
FNDA:0,_ZNK7testing8internal14ComparisonBaseINS0_9EqMatcherIiEEiNS0_5AnyEqEE4ImplIRKmiE18DescribeNegationToEPSo
FN:555,_ZNK7testing8internal14ComparisonBaseINS0_9EqMatcherImEEmNS0_5AnyEqEE4ImplIRKimE18DescribeNegationToEPSo
FNDA:0,_ZNK7testing8internal14ComparisonBaseINS0_9EqMatcherImEEmNS0_5AnyEqEE4ImplIRKimE18DescribeNegationToEPSo
FN:555,_ZNK7testing8internal14ComparisonBaseINS0_9EqMatcherIiEEiNS0_5AnyEqEE4ImplIRKiiE18DescribeNegationToEPSo
FNDA:0,_ZNK7testing8internal14ComparisonBaseINS0_9EqMatcherIiEEiNS0_5AnyEqEE4ImplIRKiiE18DescribeNegationToEPSo
FN:569,_ZN7testing8internal9EqMatcherIiEC2ERKi
FNDA:0,_ZN7testing8internal9EqMatcherIiEC2ERKi
FN:569,_ZN7testing8internal9EqMatcherImEC2ERKm
FNDA:0,_ZN7testing8internal9EqMatcherImEC2ERKm
FN:571,_ZN7testing8internal9EqMatcherIiE4DescEv
FNDA:0,_ZN7testing8internal9EqMatcherIiE4DescEv
FN:571,_ZN7testing8internal9EqMatcherImE4DescEv
FNDA:0,_ZN7testing8internal9EqMatcherImE4DescEv
FN:572,_ZN7testing8internal9EqMatcherIiE11NegatedDescEv
FNDA:0,_ZN7testing8internal9EqMatcherIiE11NegatedDescEv
FN:572,_ZN7testing8internal9EqMatcherImE11NegatedDescEv
FNDA:0,_ZN7testing8internal9EqMatcherImE11NegatedDescEv
FN:695,_ZN7testing2EqIiEENS_8internal9EqMatcherIT_EES3_
FNDA:0,_ZN7testing2EqIiEENS_8internal9EqMatcherIT_EES3_
FN:695,_ZN7testing2EqImEENS_8internal9EqMatcherIT_EES3_
FNDA:0,_ZN7testing2EqImEENS_8internal9EqMatcherIT_EES3_
DA:85,0
DA:97,0
DA:103,0
DA:111,0
DA:112,0
DA:111,0
DA:112,0
DA:118,0
DA:118,0
DA:133,0
DA:134,0
DA:135,0
DA:136,0
DA:137,0
DA:211,0
DA:211,0
DA:211,0
DA:237,0
DA:263,0
DA:264,0
DA:263,0
DA:264,0
DA:268,0
DA:269,0
DA:270,0
DA:268,0
DA:269,0
DA:270,0
DA:274,0
DA:274,0
DA:298,0
DA:298,0
DA:312,0
DA:312,0
DA:312,0
DA:312,0
DA:333,0
DA:334,0
DA:333,0
DA:334,0
DA:531,0
DA:531,0
DA:533,0
DA:534,0
DA:533,0
DA:534,0
DA:533,0
DA:534,0
DA:539,0
DA:539,0
DA:546,0
DA:546,0
DA:546,0
DA:547,0
DA:549,0
DA:547,0
DA:549,0
DA:547,0
DA:549,0
DA:551,0
DA:552,0
DA:553,0
DA:554,0
DA:551,0
DA:552,0
DA:553,0
DA:554,0
DA:551,0
DA:552,0
DA:553,0
DA:554,0
DA:555,0
DA:556,0
DA:557,0
DA:558,0
DA:555,0
DA:556,0
DA:557,0
DA:558,0
DA:555,0
DA:556,0
DA:557,0
DA:558,0
DA:569,0
DA:570,0
DA:569,0
DA:570,0
DA:571,0
DA:571,0
DA:572,0
DA:572,0
DA:695,0
DA:695,0
end_of_record
SF:/usr/include/c++/9/bits/shared_ptr_base.h
FN:117,_ZNSt16_Sp_counted_baseILN9__gnu_cxx12_Lock_policyE2EEC2Ev
FNDA:0,_ZNSt16_Sp_counted_baseILN9__gnu_cxx12_Lock_policyE2EEC2Ev
FN:121,_ZNSt16_Sp_counted_baseILN9__gnu_cxx12_Lock_policyE2EED0Ev
FNDA:0,_ZNSt16_Sp_counted_baseILN9__gnu_cxx12_Lock_policyE2EED0Ev
FN:121,_ZNSt16_Sp_counted_baseILN9__gnu_cxx12_Lock_policyE2EED2Ev
FNDA:0,_ZNSt16_Sp_counted_baseILN9__gnu_cxx12_Lock_policyE2EED2Ev
FN:131,_ZNSt16_Sp_counted_baseILN9__gnu_cxx12_Lock_policyE2EE10_M_destroyEv
FNDA:0,_ZNSt16_Sp_counted_baseILN9__gnu_cxx12_Lock_policyE2EE10_M_destroyEv
FN:148,_ZNSt16_Sp_counted_baseILN9__gnu_cxx12_Lock_policyE2EE10_M_releaseEv
FNDA:0,_ZNSt16_Sp_counted_baseILN9__gnu_cxx12_Lock_policyE2EE10_M_releaseEv
FN:372,_ZNSt15_Sp_counted_ptrIPKN7testing16MatcherInterfaceIRKiEELN9__gnu_cxx12_Lock_policyE2EEC2ES6_
FNDA:0,_ZNSt15_Sp_counted_ptrIPKN7testing16MatcherInterfaceIRKiEELN9__gnu_cxx12_Lock_policyE2EEC2ES6_
FN:372,_ZNSt15_Sp_counted_ptrIPKN7testing16MatcherInterfaceIRKmEELN9__gnu_cxx12_Lock_policyE2EEC2ES6_
FNDA:0,_ZNSt15_Sp_counted_ptrIPKN7testing16MatcherInterfaceIRKmEELN9__gnu_cxx12_Lock_policyE2EEC2ES6_
FN:376,_ZNSt15_Sp_counted_ptrIPKN7testing16MatcherInterfaceIRKmEELN9__gnu_cxx12_Lock_policyE2EE10_M_disposeEv
FNDA:0,_ZNSt15_Sp_counted_ptrIPKN7testing16MatcherInterfaceIRKmEELN9__gnu_cxx12_Lock_policyE2EE10_M_disposeEv
FN:376,_ZNSt15_Sp_counted_ptrIPKN7testing16MatcherInterfaceIRKiEELN9__gnu_cxx12_Lock_policyE2EE10_M_disposeEv
FNDA:0,_ZNSt15_Sp_counted_ptrIPKN7testing16MatcherInterfaceIRKiEELN9__gnu_cxx12_Lock_policyE2EE10_M_disposeEv
FN:380,_ZNSt15_Sp_counted_ptrIPKN7testing16MatcherInterfaceIRKmEELN9__gnu_cxx12_Lock_policyE2EE10_M_destroyEv
FNDA:0,_ZNSt15_Sp_counted_ptrIPKN7testing16MatcherInterfaceIRKmEELN9__gnu_cxx12_Lock_policyE2EE10_M_destroyEv
FN:380,_ZNSt15_Sp_counted_ptrIPKN7testing16MatcherInterfaceIRKiEELN9__gnu_cxx12_Lock_policyE2EE10_M_destroyEv
FNDA:0,_ZNSt15_Sp_counted_ptrIPKN7testing16MatcherInterfaceIRKiEELN9__gnu_cxx12_Lock_policyE2EE10_M_destroyEv
FN:384,_ZNSt15_Sp_counted_ptrIPKN7testing16MatcherInterfaceIRKmEELN9__gnu_cxx12_Lock_policyE2EE14_M_get_deleterERKSt9type_info
FNDA:0,_ZNSt15_Sp_counted_ptrIPKN7testing16MatcherInterfaceIRKmEELN9__gnu_cxx12_Lock_policyE2EE14_M_get_deleterERKSt9type_info
FN:384,_ZNSt15_Sp_counted_ptrIPKN7testing16MatcherInterfaceIRKiEELN9__gnu_cxx12_Lock_policyE2EE14_M_get_deleterERKSt9type_info
FNDA:0,_ZNSt15_Sp_counted_ptrIPKN7testing16MatcherInterfaceIRKiEELN9__gnu_cxx12_Lock_policyE2EE14_M_get_deleterERKSt9type_info
FN:621,_ZNSt14__shared_countILN9__gnu_cxx12_Lock_policyE2EEC2IPKN7testing16MatcherInterfaceIRKmEEEET_
FNDA:0,_ZNSt14__shared_countILN9__gnu_cxx12_Lock_policyE2EEC2IPKN7testing16MatcherInterfaceIRKmEEEET_
FN:621,_ZNSt14__shared_countILN9__gnu_cxx12_Lock_policyE2EEC2IPKN7testing16MatcherInterfaceIRKiEEEET_
FNDA:0,_ZNSt14__shared_countILN9__gnu_cxx12_Lock_policyE2EEC2IPKN7testing16MatcherInterfaceIRKiEEEET_
FN:635,_ZNSt14__shared_countILN9__gnu_cxx12_Lock_policyE2EEC2IPKN7testing16MatcherInterfaceIRKiEEEET_St17integral_constantIbLb0EE
FNDA:0,_ZNSt14__shared_countILN9__gnu_cxx12_Lock_policyE2EEC2IPKN7testing16MatcherInterfaceIRKiEEEET_St17integral_constantIbLb0EE
FN:635,_ZNSt14__shared_countILN9__gnu_cxx12_Lock_policyE2EEC2IPKN7testing16MatcherInterfaceIRKmEEEET_St17integral_constantIbLb0EE
FNDA:0,_ZNSt14__shared_countILN9__gnu_cxx12_Lock_policyE2EEC2IPKN7testing16MatcherInterfaceIRKmEEEET_St17integral_constantIbLb0EE
FN:727,_ZNSt14__shared_countILN9__gnu_cxx12_Lock_policyE2EED2Ev
FNDA:0,_ZNSt14__shared_countILN9__gnu_cxx12_Lock_policyE2EED2Ev
FN:1012,_ZNKSt19__shared_ptr_accessIKN7testing16MatcherInterfaceIRKiEELN9__gnu_cxx12_Lock_policyE2ELb0ELb0EEptEv
FNDA:0,_ZNKSt19__shared_ptr_accessIKN7testing16MatcherInterfaceIRKiEELN9__gnu_cxx12_Lock_policyE2ELb0ELb0EEptEv
FN:1012,_ZNKSt19__shared_ptr_accessIKN7testing16MatcherInterfaceIRKmEELN9__gnu_cxx12_Lock_policyE2ELb0ELb0EEptEv
FNDA:0,_ZNKSt19__shared_ptr_accessIKN7testing16MatcherInterfaceIRKmEELN9__gnu_cxx12_Lock_policyE2ELb0ELb0EEptEv
FN:1020,_ZNKSt19__shared_ptr_accessIKN7testing16MatcherInterfaceIRKiEELN9__gnu_cxx12_Lock_policyE2ELb0ELb0EE6_M_getEv
FNDA:0,_ZNKSt19__shared_ptr_accessIKN7testing16MatcherInterfaceIRKiEELN9__gnu_cxx12_Lock_policyE2ELb0ELb0EE6_M_getEv
FN:1020,_ZNKSt19__shared_ptr_accessIKN7testing16MatcherInterfaceIRKmEELN9__gnu_cxx12_Lock_policyE2ELb0ELb0EE6_M_getEv
FNDA:0,_ZNKSt19__shared_ptr_accessIKN7testing16MatcherInterfaceIRKmEELN9__gnu_cxx12_Lock_policyE2ELb0ELb0EE6_M_getEv
FN:1124,_ZNSt12__shared_ptrIKN7testing16MatcherInterfaceIRKmEELN9__gnu_cxx12_Lock_policyE2EEC2IS5_vEEPT_
FNDA:0,_ZNSt12__shared_ptrIKN7testing16MatcherInterfaceIRKmEELN9__gnu_cxx12_Lock_policyE2EEC2IS5_vEEPT_
FN:1124,_ZNSt12__shared_ptrIKN7testing16MatcherInterfaceIRKiEELN9__gnu_cxx12_Lock_policyE2EEC2IS5_vEEPT_
FNDA:0,_ZNSt12__shared_ptrIKN7testing16MatcherInterfaceIRKiEELN9__gnu_cxx12_Lock_policyE2EEC2IS5_vEEPT_
FN:1169,_ZNSt12__shared_ptrIKN7testing16MatcherInterfaceIRKiEELN9__gnu_cxx12_Lock_policyE2EED2Ev
FNDA:0,_ZNSt12__shared_ptrIKN7testing16MatcherInterfaceIRKiEELN9__gnu_cxx12_Lock_policyE2EED2Ev
FN:1169,_ZNSt12__shared_ptrIKN7testing16MatcherInterfaceIRKmEELN9__gnu_cxx12_Lock_policyE2EED2Ev
FNDA:0,_ZNSt12__shared_ptrIKN7testing16MatcherInterfaceIRKmEELN9__gnu_cxx12_Lock_policyE2EED2Ev
FN:1309,_ZNKSt12__shared_ptrIKN7testing16MatcherInterfaceIRKmEELN9__gnu_cxx12_Lock_policyE2EE3getEv
FNDA:0,_ZNKSt12__shared_ptrIKN7testing16MatcherInterfaceIRKmEELN9__gnu_cxx12_Lock_policyE2EE3getEv
FN:1309,_ZNKSt12__shared_ptrIKN7testing16MatcherInterfaceIRKiEELN9__gnu_cxx12_Lock_policyE2EE3getEv
FNDA:0,_ZNKSt12__shared_ptrIKN7testing16MatcherInterfaceIRKiEELN9__gnu_cxx12_Lock_policyE2EE3getEv
FN:1388,_ZNSt12__shared_ptrIKN7testing16MatcherInterfaceIRKmEELN9__gnu_cxx12_Lock_policyE2EE31_M_enable_shared_from_this_withIS5_S4_EENSt9enable_ifIXntsrNS8_15__has_esft_baseIT0_vEE5valueEvE4typeEPT_
FNDA:0,_ZNSt12__shared_ptrIKN7testing16MatcherInterfaceIRKmEELN9__gnu_cxx12_Lock_policyE2EE31_M_enable_shared_from_this_withIS5_S4_EENSt9enable_ifIXntsrNS8_15__has_esft_baseIT0_vEE5valueEvE4typeEPT_
FN:1388,_ZNSt12__shared_ptrIKN7testing16MatcherInterfaceIRKiEELN9__gnu_cxx12_Lock_policyE2EE31_M_enable_shared_from_this_withIS5_S4_EENSt9enable_ifIXntsrNS8_15__has_esft_baseIT0_vEE5valueEvE4typeEPT_
FNDA:0,_ZNSt12__shared_ptrIKN7testing16MatcherInterfaceIRKiEELN9__gnu_cxx12_Lock_policyE2EE31_M_enable_shared_from_this_withIS5_S4_EENSt9enable_ifIXntsrNS8_15__has_esft_baseIT0_vEE5valueEvE4typeEPT_
DA:117,0
DA:118,0
DA:121,0
DA:122,0
DA:121,0
DA:122,0
DA:131,0
DA:132,0
DA:148,0
DA:152,0
DA:155,0
DA:167,0
DA:168,0
DA:171,0
DA:174,0
DA:372,0
DA:373,0
DA:372,0
DA:373,0
DA:376,0
DA:377,0
DA:376,0
DA:377,0
DA:380,0
DA:381,0
DA:380,0
DA:381,0
DA:384,0
DA:385,0
DA:384,0
DA:385,0
DA:621,0
DA:625,0
DA:627,0
DA:629,0
DA:630,0
DA:632,0
DA:621,0
DA:625,0
DA:627,0
DA:629,0
DA:630,0
DA:632,0
DA:635,0
DA:636,0
DA:637,0
DA:635,0
DA:636,0
DA:637,0
DA:727,0
DA:729,0
DA:730,0
DA:731,0
DA:1012,0
DA:1015,0
DA:1012,0
DA:1015,0
DA:1020,0
DA:1021,0
DA:1020,0
DA:1021,0
DA:1124,0
DA:1125,0
DA:1129,0
DA:1130,0
DA:1124,0
DA:1125,0
DA:1129,0
DA:1130,0
DA:1169,0
DA:1169,0
DA:1309,0
DA:1310,0
DA:1309,0
DA:1310,0
DA:1388,0
DA:1389,0
DA:1388,0
DA:1389,0
end_of_record
SF:/usr/include/c++/9/bits/cpp_type_traits.h
FN:428,_ZSt12__miter_baseIPKiET_S2_
FNDA:0,_ZSt12__miter_baseIPKiET_S2_
DA:428,0
DA:429,0
end_of_record
SF:/home/john/cse701/roc/include/vectorf.hpp
FN:98,_ZN7vectorfIiEC2ERKm
FNDA:6,_ZN7vectorfIiEC2ERKm
FN:98,_ZN7vectorfIdEC2ERKm
FNDA:0,_ZN7vectorfIdEC2ERKm
FN:106,_ZN7vectorfIiEC2ERKSt6vectorIiSaIiEE
FNDA:1,_ZN7vectorfIiEC2ERKSt6vectorIiSaIiEE
FN:116,_ZN7vectorfIiEC2ERKS0_
FNDA:2,_ZN7vectorfIiEC2ERKS0_
FN:125,_ZN7vectorfIiEC2EOS0_
FNDA:1,_ZN7vectorfIiEC2EOS0_
FN:137,_ZN7vectorfIdEaSERKS0_
FNDA:1,_ZN7vectorfIdEaSERKS0_
FN:137,_ZN7vectorfIiEaSERKS0_
FNDA:2,_ZN7vectorfIiEaSERKS0_
FN:151,_ZN7vectorfIdEaSEOS0_
FNDA:1,_ZN7vectorfIdEaSEOS0_
FN:151,_ZN7vectorfIiEaSEOS0_
FNDA:2,_ZN7vectorfIiEaSEOS0_
FN:165,_ZNK7vectorfIiE8get_sizeEv
FNDA:99,_ZNK7vectorfIiE8get_sizeEv
FN:165,_ZNK7vectorfIdE8get_sizeEv
FNDA:733,_ZNK7vectorfIdE8get_sizeEv
FN:172,_ZN7vectorfIiEclERKm
FNDA:108,_ZN7vectorfIiEclERKm
DA:98,6
DA:100,6
DA:101,6
DA:102,6
DA:103,6
DA:98,0
DA:100,0
DA:101,0
DA:102,0
DA:103,0
DA:106,1
DA:108,1
DA:109,1
DA:110,1
DA:111,1
DA:112,1
DA:116,2
DA:118,2
DA:119,2
DA:120,2
DA:121,2
DA:125,1
DA:127,1
DA:128,1
DA:129,1
DA:130,1
DA:131,1
DA:137,1
DA:139,1
DA:140,1
DA:141,0
DA:142,0
DA:143,0
DA:144,0
DA:145,0
DA:146,0
DA:137,2
DA:139,2
DA:140,0
DA:141,2
DA:142,1
DA:143,1
DA:144,1
DA:145,1
DA:146,1
DA:151,1
DA:153,1
DA:154,1
DA:155,0
DA:156,0
DA:157,0
DA:158,0
DA:159,0
DA:160,0
DA:161,0
DA:151,2
DA:153,2
DA:154,0
DA:155,2
DA:156,1
DA:157,1
DA:158,1
DA:159,1
DA:160,1
DA:161,1
DA:165,99
DA:167,99
DA:165,733
DA:167,733
DA:172,108
DA:174,108
end_of_record
SF:/usr/include/c++/9/initializer_list
FN:71,_ZNKSt16initializer_listIiE4sizeEv
FNDA:0,_ZNKSt16initializer_listIiE4sizeEv
FN:75,_ZNKSt16initializer_listIiE5beginEv
FNDA:0,_ZNKSt16initializer_listIiE5beginEv
FN:79,_ZNKSt16initializer_listIiE3endEv
FNDA:0,_ZNKSt16initializer_listIiE3endEv
DA:71,0
DA:75,0
DA:79,0
end_of_record
SF:/usr/include/c++/9/iostream
end_of_record
SF:/usr/include/c++/9/bits/stl_vector.h
FN:94,_ZNSt12_Vector_baseIiSaIiEE17_Vector_impl_dataC2Ev
FNDA:0,_ZNSt12_Vector_baseIiSaIiEE17_Vector_impl_dataC2Ev
FN:133,_ZNSt12_Vector_baseIiSaIiEE12_Vector_implC2ERKS0_
FNDA:0,_ZNSt12_Vector_baseIiSaIiEE12_Vector_implC2ERKS0_
FN:273,_ZNSt12_Vector_baseIiSaIiEE19_M_get_Tp_allocatorEv
FNDA:0,_ZNSt12_Vector_baseIiSaIiEE19_M_get_Tp_allocatorEv
FN:290,_ZNSt12_Vector_baseIiSaIiEEC2ERKS0_
FNDA:0,_ZNSt12_Vector_baseIiSaIiEEC2ERKS0_
FN:330,_ZNSt12_Vector_baseIiSaIiEED2Ev
FNDA:0,_ZNSt12_Vector_baseIiSaIiEED2Ev
FN:340,_ZNSt12_Vector_baseIiSaIiEE11_M_allocateEm
FNDA:0,_ZNSt12_Vector_baseIiSaIiEE11_M_allocateEm
FN:347,_ZNSt12_Vector_baseIiSaIiEE13_M_deallocateEPim
FNDA:0,_ZNSt12_Vector_baseIiSaIiEE13_M_deallocateEPim
FN:622,_ZNSt6vectorIiSaIiEEC2ESt16initializer_listIiERKS0_
FNDA:0,_ZNSt6vectorIiSaIiEEC2ESt16initializer_listIiERKS0_
FN:675,_ZNSt6vectorIiSaIiEED2Ev
FNDA:0,_ZNSt6vectorIiSaIiEED2Ev
FN:915,_ZNKSt6vectorIiSaIiEE4sizeEv
FNDA:0,_ZNKSt6vectorIiSaIiEE4sizeEv
FN:1058,_ZNKSt6vectorIiSaIiEEixEm
FNDA:0,_ZNKSt6vectorIiSaIiEEixEm
FN:1574,_ZNSt6vectorIiSaIiEE19_M_range_initializeIPKiEEvT_S5_St20forward_iterator_tag
FNDA:0,_ZNSt6vectorIiSaIiEE19_M_range_initializeIPKiEEvT_S5_St20forward_iterator_tag
FN:1764,_ZNSt6vectorIiSaIiEE17_S_check_init_lenEmRKS0_
FNDA:0,_ZNSt6vectorIiSaIiEE17_S_check_init_lenEmRKS0_
FN:1773,_ZNSt6vectorIiSaIiEE11_S_max_sizeERKS0_
FNDA:0,_ZNSt6vectorIiSaIiEE11_S_max_sizeERKS0_
DA:94,0
DA:95,0
DA:96,0
DA:133,0
DA:134,0
DA:135,0
DA:273,0
DA:274,0
DA:290,0
DA:291,0
DA:330,0
DA:332,0
DA:333,0
DA:334,0
DA:340,0
DA:343,0
DA:347,0
DA:350,0
DA:351,0
DA:352,0
DA:622,0
DA:624,0
DA:626,0
DA:628,0
DA:675,0
DA:677,0
DA:678,0
DA:680,0
DA:915,0
DA:916,0
DA:1058,0
DA:1061,0
DA:1574,0
DA:1577,0
DA:1578,0
DA:1579,0
DA:1580,0
DA:1581,0
DA:1582,0
DA:1584,0
DA:1585,0
DA:1764,0
DA:1766,0
DA:1767,0
DA:1769,0
DA:1773,0
DA:1778,0
DA:1780,0
DA:1781,0
end_of_record
SF:/usr/include/c++/9/ext/atomicity.h
FN:48,_ZN9__gnu_cxxL18__exchange_and_addEPVii
FNDA:0,_ZN9__gnu_cxxL18__exchange_and_addEPVii
FN:65,_ZN9__gnu_cxxL25__exchange_and_add_singleEPii
FNDA:0,_ZN9__gnu_cxxL25__exchange_and_add_singleEPii
FN:78,_ZN9__gnu_cxxL27__exchange_and_add_dispatchEPii
FNDA:0,_ZN9__gnu_cxxL27__exchange_and_add_dispatchEPii
DA:48,0
DA:49,0
DA:65,0
DA:67,0
DA:68,0
DA:69,0
DA:78,0
DA:81,0
DA:82,0
DA:84,0
end_of_record
SF:/usr/include/c++/9/bits/shared_ptr.h
FN:139,_ZNSt10shared_ptrIKN7testing16MatcherInterfaceIRKiEEEC2IS5_vEEPT_
FNDA:0,_ZNSt10shared_ptrIKN7testing16MatcherInterfaceIRKiEEEC2IS5_vEEPT_
FN:139,_ZNSt10shared_ptrIKN7testing16MatcherInterfaceIRKmEEEC2IS5_vEEPT_
FNDA:0,_ZNSt10shared_ptrIKN7testing16MatcherInterfaceIRKmEEEC2IS5_vEEPT_
DA:139,0
DA:139,0
end_of_record
SF:/usr/include/c++/9/bits/basic_string.tcc
FN:206,_ZNSt7__cxx1112basic_stringIcSt11char_traitsIcESaIcEE12_M_constructIPcEEvT_S7_St20forward_iterator_tag
FNDA:0,_ZNSt7__cxx1112basic_stringIcSt11char_traitsIcESaIcEE12_M_constructIPcEEvT_S7_St20forward_iterator_tag
FN:206,_ZNSt7__cxx1112basic_stringIcSt11char_traitsIcESaIcEE12_M_constructIPKcEEvT_S8_St20forward_iterator_tag
FNDA:0,_ZNSt7__cxx1112basic_stringIcSt11char_traitsIcESaIcEE12_M_constructIPKcEEvT_S8_St20forward_iterator_tag
DA:206,0
DA:211,0
DA:212,0
DA:215,0
DA:217,0
DA:219,0
DA:220,0
DA:225,0
DA:226,0
DA:228,0
DA:229,0
DA:232,0
DA:233,0
DA:206,0
DA:211,0
DA:212,0
DA:215,0
DA:217,0
DA:219,0
DA:220,0
DA:225,0
DA:226,0
DA:228,0
DA:229,0
DA:232,0
DA:233,0
end_of_record
SF:/usr/include/x86_64-linux-gnu/c++/9/bits/gthr-default.h
FN:248,_ZL18__gthread_active_pv
FNDA:0,_ZL18__gthread_active_pv
DA:248,0
DA:252,0
end_of_record
SF:/usr/include/c++/9/ext/alloc_traits.h
FN:97,_ZN9__gnu_cxx14__alloc_traitsISaIcEcE17_S_select_on_copyERKS1_
FNDA:0,_ZN9__gnu_cxx14__alloc_traitsISaIcEcE17_S_select_on_copyERKS1_
DA:97,0
DA:98,0
end_of_record
SF:/usr/local/include/gtest/internal/gtest-internal.h
FN:423,_ZN7testing8internal9GetTypeIdI15TestThatVectorFEEPKvv
FNDA:1128,_ZN7testing8internal9GetTypeIdI15TestThatVectorFEEPKvv
FN:442,_ZN7testing8internal15TestFactoryBaseD2Ev
FNDA:0,_ZN7testing8internal15TestFactoryBaseD2Ev
FN:442,_ZN7testing8internal15TestFactoryBaseD0Ev
FNDA:0,_ZN7testing8internal15TestFactoryBaseD0Ev
FN:449,_ZN7testing8internal15TestFactoryBaseC2Ev
FNDA:0,_ZN7testing8internal15TestFactoryBaseC2Ev
FN:460,_ZN7testing8internal15TestFactoryImplI45TestThatVectorF_HasConstructorWithVector_TestE10CreateTestEv
FNDA:1,_ZN7testing8internal15TestFactoryImplI45TestThatVectorF_HasConstructorWithVector_TestE10CreateTestEv
FN:460,_ZN7testing8internal15TestFactoryImplI71TestThatVectorF_CanConstructAnUninitializedVectorOfSpecifiedLength_TestE10CreateTestEv
FNDA:1,_ZN7testing8internal15TestFactoryImplI71TestThatVectorF_CanConstructAnUninitializedVectorOfSpecifiedLength_TestE10CreateTestEv
FN:460,_ZN7testing8internal15TestFactoryImplI66TestThatVectorF_CannotDoMoveAssignmentWheneverSizesDonotAgree_TestE10CreateTestEv
FNDA:1,_ZN7testing8internal15TestFactoryImplI66TestThatVectorF_CannotDoMoveAssignmentWheneverSizesDonotAgree_TestE10CreateTestEv
FN:460,_ZN7testing8internal15TestFactoryImplI66TestThatVectorF_CannotDoCopyAssignmentWheneverSizesDonotAgree_TestE10CreateTestEv
FNDA:1,_ZN7testing8internal15TestFactoryImplI66TestThatVectorF_CannotDoCopyAssignmentWheneverSizesDonotAgree_TestE10CreateTestEv
FN:460,_ZN7testing8internal15TestFactoryImplI54TestThatVectorF_ImplementsMoveAssignmentCorrectly_TestE10CreateTestEv
FNDA:1,_ZN7testing8internal15TestFactoryImplI54TestThatVectorF_ImplementsMoveAssignmentCorrectly_TestE10CreateTestEv
FN:460,_ZN7testing8internal15TestFactoryImplI55TestThatVectorF_ImplementsMoveConstructorCorrectly_TestE10CreateTestEv
FNDA:1,_ZN7testing8internal15TestFactoryImplI55TestThatVectorF_ImplementsMoveConstructorCorrectly_TestE10CreateTestEv
FN:460,_ZN7testing8internal15TestFactoryImplI54TestThatVectorF_ImplementsCopyAssignmentCorrectly_TestE10CreateTestEv
FNDA:1,_ZN7testing8internal15TestFactoryImplI54TestThatVectorF_ImplementsCopyAssignmentCorrectly_TestE10CreateTestEv
FN:460,_ZN7testing8internal15TestFactoryImplI55TestThatVectorF_ImplementsCopyConstructorCorrectly_TestE10CreateTestEv
FNDA:1,_ZN7testing8internal15TestFactoryImplI55TestThatVectorF_ImplementsCopyConstructorCorrectly_TestE10CreateTestEv
FN:460,_ZN7testing8internal15TestFactoryImplI83TestThatVectorF_CanConstructAnUninitializedVectorSepcifyingSizeANDInitialiseIt_TestE10CreateTestEv
FNDA:1,_ZN7testing8internal15TestFactoryImplI83TestThatVectorF_CanConstructAnUninitializedVectorSepcifyingSizeANDInitialiseIt_TestE10CreateTestEv
FN:460,_ZN7testing8internal15TestFactoryImplI34TestThatVectorF_get_sizeWorks_TestE10CreateTestEv
FNDA:1,_ZN7testing8internal15TestFactoryImplI34TestThatVectorF_get_sizeWorks_TestE10CreateTestEv
FN:460,_ZN7testing8internal15TestFactoryImplI60TestThatVectorF_ConstructorSizeThrowsWheneverSizeIsZero_TestE10CreateTestEv
FNDA:1,_ZN7testing8internal15TestFactoryImplI60TestThatVectorF_ConstructorSizeThrowsWheneverSizeIsZero_TestE10CreateTestEv
FN:460,_ZN7testing8internal15TestFactoryImplI64TestThatVectorF_ConstructorSizeThrowsWheneverSizeIsNegative_TestE10CreateTestEv
FNDA:1,_ZN7testing8internal15TestFactoryImplI64TestThatVectorF_ConstructorSizeThrowsWheneverSizeIsNegative_TestE10CreateTestEv
FN:481,_ZN7testing8internal12CodeLocationC2ERKNSt7__cxx1112basic_stringIcSt11char_traitsIcESaIcEEEi
FNDA:0,_ZN7testing8internal12CodeLocationC2ERKNSt7__cxx1112basic_stringIcSt11char_traitsIcESaIcEEEi
FN:494,_ZN7testing8internal19GetNotDefaultOrNullEPFvvES2_
FNDA:0,_ZN7testing8internal19GetNotDefaultOrNullEPFvvES2_
FN:509,_ZN7testing8internal16SuiteApiResolverI15TestThatVectorFE19GetSetUpCaseOrSuiteEPKci
FNDA:1128,_ZN7testing8internal16SuiteApiResolverI15TestThatVectorFE19GetSetUpCaseOrSuiteEPKci
FN:524,_ZN7testing8internal16SuiteApiResolverI15TestThatVectorFE22GetTearDownCaseOrSuiteEPKci
FNDA:1128,_ZN7testing8internal16SuiteApiResolverI15TestThatVectorFE22GetTearDownCaseOrSuiteEPKci
FN:823,_ZN7testing8internal12ConstCharPtrC2EPKc
FNDA:0,_ZN7testing8internal12ConstCharPtrC2EPKc
FN:824,_ZNK7testing8internal12ConstCharPtrcvbEv
FNDA:0,_ZNK7testing8internal12ConstCharPtrcvbEv
DA:423,1128
DA:428,1128
DA:442,0
DA:442,0
DA:449,0
DA:460,1
DA:460,1
DA:460,1
DA:460,1
DA:460,1
DA:460,1
DA:460,1
DA:460,1
DA:460,1
DA:460,1
DA:460,1
DA:460,1
DA:481,0
DA:482,0
DA:494,0
DA:496,0
DA:509,1128
DA:512,1128
DA:514,1128
DA:516,1128
DA:519,0
DA:521,1128
DA:524,1128
DA:527,1128
DA:529,1128
DA:531,1128
DA:534,0
DA:536,1128
DA:823,0
DA:824,0
end_of_record
SF:/usr/local/include/gtest/internal/gtest-type-util.h
FN:64,_ZN7testing8internal31CanonicalizeForStdLibVersioningENSt7__cxx1112basic_stringIcSt11char_traitsIcESaIcEEE
FNDA:0,_ZN7testing8internal31CanonicalizeForStdLibVersioningENSt7__cxx1112basic_stringIcSt11char_traitsIcESaIcEEE
FN:80,_ZN7testing8internal11GetTypeNameIKiEENSt7__cxx1112basic_stringIcSt11char_traitsIcESaIcEEEv
FNDA:0,_ZN7testing8internal11GetTypeNameIKiEENSt7__cxx1112basic_stringIcSt11char_traitsIcESaIcEEEv
FN:80,_ZN7testing8internal11GetTypeNameIKmEENSt7__cxx1112basic_stringIcSt11char_traitsIcESaIcEEEv
FNDA:0,_ZN7testing8internal11GetTypeNameIKmEENSt7__cxx1112basic_stringIcSt11char_traitsIcESaIcEEEv
DA:64,0
DA:66,0
DA:67,0
DA:68,0
DA:70,0
DA:73,0
DA:80,0
DA:83,0
DA:85,0
DA:91,0
DA:92,0
DA:93,0
DA:94,0
DA:80,0
DA:83,0
DA:85,0
DA:91,0
DA:92,0
DA:93,0
DA:94,0
end_of_record
SF:/usr/include/c++/9/bits/allocator.h
FN:138,_ZNSaIiEC2Ev
FNDA:0,_ZNSaIiEC2Ev
FN:141,_ZNSaIiEC2ERKS_
FNDA:0,_ZNSaIiEC2ERKS_
FN:153,_ZNSaIiED2Ev
FNDA:0,_ZNSaIiED2Ev
DA:138,0
DA:141,0
DA:142,0
DA:153,0
end_of_record
SF:/home/john/cse701/roc/test/vectorfTests.cpp
FN:18,_ZN15TestThatVectorF5SetUpEv
FNDA:12,_ZN15TestThatVectorF5SetUpEv
FN:19,_ZN15TestThatVectorF8TearDownEv
FNDA:12,_ZN15TestThatVectorF8TearDownEv
FN:22,_ZN71TestThatVectorF_CanConstructAnUninitializedVectorOfSpecifiedLength_TestC2Ev
FNDA:1,_ZN71TestThatVectorF_CanConstructAnUninitializedVectorOfSpecifiedLength_TestC2Ev
FN:22,_ZN71TestThatVectorF_CanConstructAnUninitializedVectorOfSpecifiedLength_Test8TestBodyEv
FNDA:1,_ZN71TestThatVectorF_CanConstructAnUninitializedVectorOfSpecifiedLength_Test8TestBodyEv
FN:27,_ZN64TestThatVectorF_ConstructorSizeThrowsWheneverSizeIsNegative_TestC2Ev
FNDA:1,_ZN64TestThatVectorF_ConstructorSizeThrowsWheneverSizeIsNegative_TestC2Ev
FN:27,_ZN64TestThatVectorF_ConstructorSizeThrowsWheneverSizeIsNegative_Test8TestBodyEv
FNDA:1,_ZN64TestThatVectorF_ConstructorSizeThrowsWheneverSizeIsNegative_Test8TestBodyEv
FN:32,_ZN60TestThatVectorF_ConstructorSizeThrowsWheneverSizeIsZero_TestC2Ev
FNDA:1,_ZN60TestThatVectorF_ConstructorSizeThrowsWheneverSizeIsZero_TestC2Ev
FN:32,_ZN60TestThatVectorF_ConstructorSizeThrowsWheneverSizeIsZero_Test8TestBodyEv
FNDA:1,_ZN60TestThatVectorF_ConstructorSizeThrowsWheneverSizeIsZero_Test8TestBodyEv
FN:37,_ZN34TestThatVectorF_get_sizeWorks_TestC2Ev
FNDA:1,_ZN34TestThatVectorF_get_sizeWorks_TestC2Ev
FN:37,_ZN34TestThatVectorF_get_sizeWorks_Test8TestBodyEv
FNDA:1,_ZN34TestThatVectorF_get_sizeWorks_Test8TestBodyEv
FN:44,_ZN83TestThatVectorF_CanConstructAnUninitializedVectorSepcifyingSizeANDInitialiseIt_TestC2Ev
FNDA:1,_ZN83TestThatVectorF_CanConstructAnUninitializedVectorSepcifyingSizeANDInitialiseIt_TestC2Ev
FN:44,_ZN83TestThatVectorF_CanConstructAnUninitializedVectorSepcifyingSizeANDInitialiseIt_Test8TestBodyEv
FNDA:1,_ZN83TestThatVectorF_CanConstructAnUninitializedVectorSepcifyingSizeANDInitialiseIt_Test8TestBodyEv
FN:65,_ZN55TestThatVectorF_ImplementsCopyConstructorCorrectly_TestC2Ev
FNDA:1,_ZN55TestThatVectorF_ImplementsCopyConstructorCorrectly_TestC2Ev
FN:65,_ZN55TestThatVectorF_ImplementsCopyConstructorCorrectly_Test8TestBodyEv
FNDA:1,_ZN55TestThatVectorF_ImplementsCopyConstructorCorrectly_Test8TestBodyEv
FN:104,_ZN54TestThatVectorF_ImplementsCopyAssignmentCorrectly_TestC2Ev
FNDA:1,_ZN54TestThatVectorF_ImplementsCopyAssignmentCorrectly_TestC2Ev
FN:104,_ZN54TestThatVectorF_ImplementsCopyAssignmentCorrectly_Test8TestBodyEv
FNDA:1,_ZN54TestThatVectorF_ImplementsCopyAssignmentCorrectly_Test8TestBodyEv
FN:151,_ZN55TestThatVectorF_ImplementsMoveConstructorCorrectly_TestC2Ev
FNDA:1,_ZN55TestThatVectorF_ImplementsMoveConstructorCorrectly_TestC2Ev
FN:151,_ZN55TestThatVectorF_ImplementsMoveConstructorCorrectly_Test8TestBodyEv
FNDA:1,_ZN55TestThatVectorF_ImplementsMoveConstructorCorrectly_Test8TestBodyEv
FN:188,_ZN54TestThatVectorF_ImplementsMoveAssignmentCorrectly_TestC2Ev
FNDA:1,_ZN54TestThatVectorF_ImplementsMoveAssignmentCorrectly_TestC2Ev
FN:188,_ZN54TestThatVectorF_ImplementsMoveAssignmentCorrectly_Test8TestBodyEv
FNDA:1,_ZN54TestThatVectorF_ImplementsMoveAssignmentCorrectly_Test8TestBodyEv
FN:234,_ZN66TestThatVectorF_CannotDoCopyAssignmentWheneverSizesDonotAgree_TestC2Ev
FNDA:1,_ZN66TestThatVectorF_CannotDoCopyAssignmentWheneverSizesDonotAgree_TestC2Ev
FN:234,_ZN66TestThatVectorF_CannotDoCopyAssignmentWheneverSizesDonotAgree_Test8TestBodyEv
FNDA:1,_ZN66TestThatVectorF_CannotDoCopyAssignmentWheneverSizesDonotAgree_Test8TestBodyEv
FN:242,_ZN66TestThatVectorF_CannotDoMoveAssignmentWheneverSizesDonotAgree_TestC2Ev
FNDA:1,_ZN66TestThatVectorF_CannotDoMoveAssignmentWheneverSizesDonotAgree_TestC2Ev
FN:242,_ZN66TestThatVectorF_CannotDoMoveAssignmentWheneverSizesDonotAgree_Test8TestBodyEv
FNDA:1,_ZN66TestThatVectorF_CannotDoMoveAssignmentWheneverSizesDonotAgree_Test8TestBodyEv
FN:250,_ZN45TestThatVectorF_HasConstructorWithVector_Test8TestBodyEv
FNDA:1,_ZN45TestThatVectorF_HasConstructorWithVector_Test8TestBodyEv
FN:250,_ZN45TestThatVectorF_HasConstructorWithVector_TestC2Ev
FNDA:1,_ZN45TestThatVectorF_HasConstructorWithVector_TestC2Ev
DA:18,12
DA:19,12
DA:22,1
DA:24,1
DA:22,1
DA:27,1
DA:29,3
DA:27,1
DA:32,1
DA:34,3
DA:32,1
DA:37,1
DA:39,2
DA:41,1
DA:42,1
DA:37,1
DA:44,1
DA:47,2
DA:50,1
DA:51,1
DA:52,1
DA:53,1
DA:55,1
DA:58,5
DA:63,1
DA:44,1
DA:65,1
DA:67,2
DA:69,1
DA:70,1
DA:71,1
DA:72,1
DA:75,5
DA:78,2
DA:81,5
DA:84,5
DA:87,1
DA:90,5
DA:93,5
DA:94,4
DA:96,1
DA:100,3
DA:102,1
DA:65,1
DA:104,1
DA:106,2
DA:108,1
DA:109,1
DA:110,1
DA:111,1
DA:114,5
DA:117,2
DA:121,1
DA:123,5
DA:125,1
DA:128,5
DA:131,5
DA:134,1
DA:137,5
DA:140,5
DA:141,4
DA:143,1
DA:147,3
DA:149,1
DA:104,1
DA:151,1
DA:153,2
DA:155,1
DA:156,1
DA:157,1
DA:158,1
DA:161,5
DA:164,2
DA:167,1
DA:168,1
DA:171,5
DA:174,1
DA:177,5
DA:178,4
DA:180,1
DA:184,3
DA:186,1
DA:151,1
DA:188,1
DA:190,2
DA:192,1
DA:193,1
DA:194,1
DA:195,1
DA:198,5
DA:201,2
DA:205,1
DA:208,5
DA:210,1
DA:213,1
DA:214,1
DA:217,5
DA:220,1
DA:223,5
DA:224,4
DA:226,1
DA:230,3
DA:232,1
DA:188,1
DA:234,1
DA:236,1
DA:237,1
DA:239,2
DA:234,1
DA:242,1
DA:244,1
DA:245,1
DA:247,2
DA:242,1
DA:250,1
DA:252,2
DA:253,2
DA:255,1
DA:257,1
DA:258,1
DA:259,1
DA:260,1
DA:261,1
DA:262,1
DA:263,1
DA:250,1
end_of_record
SF:/usr/local/include/gtest/gtest.h
FN:312,_ZNK7testing15AssertionResultcvbEv
FNDA:0,_ZNK7testing15AssertionResultcvbEv
FN:321,_ZNK7testing15AssertionResult7messageEv
FNDA:0,_ZNK7testing15AssertionResult7messageEv
FN:325,_ZNK7testing15AssertionResult15failure_messageEv
FNDA:0,_ZNK7testing15AssertionResult15failure_messageEv
FN:328,_ZN7testing15AssertionResultlsINSt7__cxx1112basic_stringIcSt11char_traitsIcESaIcEEEEERS0_RKT_
FNDA:0,_ZN7testing15AssertionResultlsINSt7__cxx1112basic_stringIcSt11char_traitsIcESaIcEEEEERS0_RKT_
FN:343,_ZN7testing15AssertionResult13AppendMessageERKNS_7MessageE
FNDA:0,_ZN7testing15AssertionResult13AppendMessageERKNS_7MessageE
FN:417,_ZN7testing4Test14SetUpTestSuiteEv
FNDA:0,_ZN7testing4Test14SetUpTestSuiteEv
FN:427,_ZN7testing4Test17TearDownTestSuiteEv
FNDA:0,_ZN7testing4Test17TearDownTestSuiteEv
FN:431,_ZN7testing4Test16TearDownTestCaseEv
FNDA:0,_ZN7testing4Test16TearDownTestCaseEv
FN:432,_ZN7testing4Test13SetUpTestCaseEv
FNDA:0,_ZN7testing4Test13SetUpTestCaseEv
FN:513,_ZN7testing4Test5SetupEv
FNDA:0,_ZN7testing4Test5SetupEv
FN:1504,_ZN7testing8internal18CmpHelperEQFailureIPiDnEENS_15AssertionResultEPKcS5_RKT_RKT0_
FNDA:0,_ZN7testing8internal18CmpHelperEQFailureIPiDnEENS_15AssertionResultEPKcS5_RKT_RKT0_
FN:1523,_ZN7testing8internal11CmpHelperEQIPiDnEENS_15AssertionResultEPKcS5_RKT_RKT0_
FNDA:2,_ZN7testing8internal11CmpHelperEQIPiDnEENS_15AssertionResultEPKcS5_RKT_RKT0_
FN:1551,_ZN7testing8internal8EqHelper7CompareIPiDnLPv0EEENS_15AssertionResultEPKcS7_RKT_RKT0_
FNDA:2,_ZN7testing8internal8EqHelper7CompareIPiDnLPv0EEENS_15AssertionResultEPKcS7_RKT_RKT0_
DA:312,0
DA:321,0
DA:322,0
DA:325,0
DA:328,0
DA:329,0
DA:330,0
DA:343,0
DA:344,0
DA:345,0
DA:346,0
DA:417,0
DA:427,0
DA:431,0
DA:432,0
DA:513,0
DA:1504,0
DA:1511,0
DA:1523,2
DA:1527,2
DA:1528,2
DA:1531,0
DA:1551,2
DA:1554,2
end_of_record
SF:/usr/include/c++/9/typeinfo
FN:99,_ZNKSt9type_info4nameEv
FNDA:0,_ZNKSt9type_info4nameEv
DA:99,0
DA:100,0
end_of_record
SF:/usr/include/c++/9/bits/stl_iterator_base_types.h
FN:205,_ZSt19__iterator_categoryIPcENSt15iterator_traitsIT_E17iterator_categoryERKS2_
FNDA:0,_ZSt19__iterator_categoryIPcENSt15iterator_traitsIT_E17iterator_categoryERKS2_
FN:205,_ZSt19__iterator_categoryIPKcENSt15iterator_traitsIT_E17iterator_categoryERKS3_
FNDA:0,_ZSt19__iterator_categoryIPKcENSt15iterator_traitsIT_E17iterator_categoryERKS3_
FN:205,_ZSt19__iterator_categoryIPKiENSt15iterator_traitsIT_E17iterator_categoryERKS3_
FNDA:0,_ZSt19__iterator_categoryIPKiENSt15iterator_traitsIT_E17iterator_categoryERKS3_
DA:205,0
DA:206,0
DA:205,0
DA:206,0
DA:205,0
DA:206,0
end_of_record
SF:/usr/include/c++/9/bits/stl_construct.h
FN:117,_ZNSt12_Destroy_auxILb1EE9__destroyIPiEEvT_S3_
FNDA:0,_ZNSt12_Destroy_auxILb1EE9__destroyIPiEEvT_S3_
FN:127,_ZSt8_DestroyIPiEvT_S1_
FNDA:0,_ZSt8_DestroyIPiEvT_S1_
FN:203,_ZSt8_DestroyIPiiEvT_S1_RSaIT0_E
FNDA:0,_ZSt8_DestroyIPiiEvT_S1_RSaIT0_E
DA:117,0
DA:127,0
DA:137,0
DA:138,0
DA:203,0
DA:206,0
DA:207,0
end_of_record
SF:/usr/local/include/gtest/gtest-printers.h
FN:260,_ZN16testing_internal26DefaultPrintNonContainerToIiEEvRKT_PSo
FNDA:0,_ZN16testing_internal26DefaultPrintNonContainerToIiEEvRKT_PSo
FN:260,_ZN16testing_internal26DefaultPrintNonContainerToImEEvRKT_PSo
FNDA:0,_ZN16testing_internal26DefaultPrintNonContainerToImEEvRKT_PSo
FN:313,_ZN7testing8internal19FormatForComparisonIPiDnE6FormatB5cxx11ERKS2_
FNDA:0,_ZN7testing8internal19FormatForComparisonIPiDnE6FormatB5cxx11ERKS2_
FN:313,_ZN7testing8internal19FormatForComparisonIDnPiE6FormatB5cxx11ERKDn
FNDA:0,_ZN7testing8internal19FormatForComparisonIDnPiE6FormatB5cxx11ERKDn
FN:377,_ZN7testing8internal33FormatForComparisonFailureMessageIPiDnEENSt7__cxx1112basic_stringIcSt11char_traitsIcESaIcEEERKT_RKT0_
FNDA:0,_ZN7testing8internal33FormatForComparisonFailureMessageIPiDnEENSt7__cxx1112basic_stringIcSt11char_traitsIcESaIcEEERKT_RKT0_
FN:377,_ZN7testing8internal33FormatForComparisonFailureMessageIDnPiEENSt7__cxx1112basic_stringIcSt11char_traitsIcESaIcEEERKT_RKT0_
FNDA:0,_ZN7testing8internal33FormatForComparisonFailureMessageIDnPiEENSt7__cxx1112basic_stringIcSt11char_traitsIcESaIcEEERKT_RKT0_
FN:439,_ZN7testing8internal14DefaultPrintToIiEEvNS0_15WrapPrinterTypeILNS0_18DefaultPrinterTypeE1EEEPT_PSo
FNDA:0,_ZN7testing8internal14DefaultPrintToIiEEvNS0_15WrapPrinterTypeILNS0_18DefaultPrinterTypeE1EEEPT_PSo
FN:466,_ZN7testing8internal14DefaultPrintToImEEvNS0_15WrapPrinterTypeILNS0_18DefaultPrinterTypeE3EEERKT_PSo
FNDA:0,_ZN7testing8internal14DefaultPrintToImEEvNS0_15WrapPrinterTypeILNS0_18DefaultPrinterTypeE3EEERKT_PSo
FN:466,_ZN7testing8internal14DefaultPrintToIiEEvNS0_15WrapPrinterTypeILNS0_18DefaultPrinterTypeE3EEERKT_PSo
FNDA:0,_ZN7testing8internal14DefaultPrintToIiEEvNS0_15WrapPrinterTypeILNS0_18DefaultPrinterTypeE3EEERKT_PSo
FN:483,_ZN7testing8internal7PrintToIPiEEvRKT_PSo
FNDA:0,_ZN7testing8internal7PrintToIPiEEvRKT_PSo
FN:483,_ZN7testing8internal7PrintToImEEvRKT_PSo
FNDA:0,_ZN7testing8internal7PrintToImEEvRKT_PSo
FN:483,_ZN7testing8internal7PrintToIiEEvRKT_PSo
FNDA:0,_ZN7testing8internal7PrintToIiEEvRKT_PSo
FN:613,_ZN7testing8internal7PrintToEDnPSo
FNDA:0,_ZN7testing8internal7PrintToEDnPSo
FN:670,_ZN7testing8internal16UniversalPrinterIPiE5PrintERKS2_PSo
FNDA:0,_ZN7testing8internal16UniversalPrinterIPiE5PrintERKS2_PSo
FN:670,_ZN7testing8internal16UniversalPrinterIDnE5PrintERKDnPSo
FNDA:0,_ZN7testing8internal16UniversalPrinterIDnE5PrintERKDnPSo
FN:670,_ZN7testing8internal16UniversalPrinterIiE5PrintERKiPSo
FNDA:0,_ZN7testing8internal16UniversalPrinterIiE5PrintERKiPSo
FN:670,_ZN7testing8internal16UniversalPrinterImE5PrintERKmPSo
FNDA:0,_ZN7testing8internal16UniversalPrinterImE5PrintERKmPSo
FN:796,_ZN7testing8internal21UniversalTersePrinterIPiE5PrintERKS2_PSo
FNDA:0,_ZN7testing8internal21UniversalTersePrinterIPiE5PrintERKS2_PSo
FN:796,_ZN7testing8internal21UniversalTersePrinterIDnE5PrintERKDnPSo
FNDA:0,_ZN7testing8internal21UniversalTersePrinterIDnE5PrintERKDnPSo
FN:865,_ZN7testing8internal14UniversalPrintIPiEEvRKT_PSo
FNDA:0,_ZN7testing8internal14UniversalPrintIPiEEvRKT_PSo
FN:865,_ZN7testing8internal14UniversalPrintIDnEEvRKT_PSo
FNDA:0,_ZN7testing8internal14UniversalPrintIDnEEvRKT_PSo
FN:865,_ZN7testing8internal14UniversalPrintIiEEvRKT_PSo
FNDA:0,_ZN7testing8internal14UniversalPrintIiEEvRKT_PSo
FN:865,_ZN7testing8internal14UniversalPrintImEEvRKT_PSo
FNDA:0,_ZN7testing8internal14UniversalPrintImEEvRKT_PSo
FN:915,_ZN7testing13PrintToStringIPiEENSt7__cxx1112basic_stringIcSt11char_traitsIcESaIcEEERKT_
FNDA:0,_ZN7testing13PrintToStringIPiEENSt7__cxx1112basic_stringIcSt11char_traitsIcESaIcEEERKT_
FN:915,_ZN7testing13PrintToStringIDnEENSt7__cxx1112basic_stringIcSt11char_traitsIcESaIcEEERKT_
FNDA:0,_ZN7testing13PrintToStringIDnEENSt7__cxx1112basic_stringIcSt11char_traitsIcESaIcEEERKT_
DA:260,0
DA:287,0
DA:288,0
DA:260,0
DA:287,0
DA:288,0
DA:313,0
DA:314,0
DA:313,0
DA:314,0
DA:377,0
DA:379,0
DA:377,0
DA:379,0
DA:439,0
DA:441,0
DA:442,0
DA:447,0
DA:449,0
DA:466,0
DA:468,0
DA:469,0
DA:466,0
DA:468,0
DA:469,0
DA:483,0
DA:503,0
DA:514,0
DA:483,0
DA:503,0
DA:514,0
DA:483,0
DA:503,0
DA:514,0
DA:613,0
DA:670,0
DA:679,0
DA:680,0
DA:670,0
DA:679,0
DA:680,0
DA:670,0
DA:679,0
DA:680,0
DA:670,0
DA:679,0
DA:680,0
DA:796,0
DA:797,0
DA:798,0
DA:796,0
DA:797,0
DA:798,0
DA:865,0
DA:869,0
DA:870,0
DA:865,0
DA:869,0
DA:870,0
DA:865,0
DA:869,0
DA:870,0
DA:865,0
DA:869,0
DA:870,0
DA:915,0
DA:916,0
DA:917,0
DA:918,0
DA:915,0
DA:916,0
DA:917,0
DA:918,0
end_of_record
SF:/usr/include/c++/9/ext/new_allocator.h
FN:80,_ZN9__gnu_cxx13new_allocatorIiEC2Ev
FNDA:0,_ZN9__gnu_cxx13new_allocatorIiEC2Ev
FN:80,_ZN9__gnu_cxx13new_allocatorIcEC2Ev
FNDA:0,_ZN9__gnu_cxx13new_allocatorIcEC2Ev
FN:83,_ZN9__gnu_cxx13new_allocatorIiEC2ERKS1_
FNDA:0,_ZN9__gnu_cxx13new_allocatorIiEC2ERKS1_
FN:83,_ZN9__gnu_cxx13new_allocatorIcEC2ERKS1_
FNDA:0,_ZN9__gnu_cxx13new_allocatorIcEC2ERKS1_
FN:89,_ZN9__gnu_cxx13new_allocatorIiED2Ev
FNDA:0,_ZN9__gnu_cxx13new_allocatorIiED2Ev
FN:89,_ZN9__gnu_cxx13new_allocatorIcED2Ev
FNDA:0,_ZN9__gnu_cxx13new_allocatorIcED2Ev
FN:102,_ZN9__gnu_cxx13new_allocatorIiE8allocateEmPKv
FNDA:0,_ZN9__gnu_cxx13new_allocatorIiE8allocateEmPKv
FN:119,_ZN9__gnu_cxx13new_allocatorIiE10deallocateEPim
FNDA:0,_ZN9__gnu_cxx13new_allocatorIiE10deallocateEPim
FN:132,_ZNK9__gnu_cxx13new_allocatorIiE8max_sizeEv
FNDA:0,_ZNK9__gnu_cxx13new_allocatorIiE8max_sizeEv
DA:80,0
DA:80,0
DA:83,0
DA:83,0
DA:89,0
DA:89,0
DA:102,0
DA:104,0
DA:105,0
DA:114,0
DA:119,0
DA:128,0
DA:132,0
DA:135,0
end_of_record
SF:/usr/include/c++/9/bits/alloc_traits.h
FN:443,_ZNSt16allocator_traitsISaIiEE8allocateERS0_m
FNDA:0,_ZNSt16allocator_traitsISaIiEE8allocateERS0_m
FN:469,_ZNSt16allocator_traitsISaIiEE10deallocateERS0_Pim
FNDA:0,_ZNSt16allocator_traitsISaIiEE10deallocateERS0_Pim
FN:505,_ZNSt16allocator_traitsISaIiEE8max_sizeERKS0_
FNDA:0,_ZNSt16allocator_traitsISaIiEE8max_sizeERKS0_
FN:514,_ZNSt16allocator_traitsISaIcEE37select_on_container_copy_constructionERKS0_
FNDA:0,_ZNSt16allocator_traitsISaIcEE37select_on_container_copy_constructionERKS0_
DA:443,0
DA:444,0
DA:469,0
DA:470,0
DA:505,0
DA:506,0
DA:514,0
DA:515,0
end_of_record
SF:/usr/include/c++/9/bits/char_traits.h
FN:100,_ZN9__gnu_cxx11char_traitsIcE2eqERKcS3_
FNDA:0,_ZN9__gnu_cxx11char_traitsIcE2eqERKcS3_
FN:161,_ZN9__gnu_cxx11char_traitsIcE6lengthEPKc
FNDA:0,_ZN9__gnu_cxx11char_traitsIcE6lengthEPKc
FN:329,_ZNSt11char_traitsIcE6lengthEPKc
FNDA:0,_ZNSt11char_traitsIcE6lengthEPKc
FN:361,_ZNSt11char_traitsIcE4copyEPcPKcm
FNDA:0,_ZNSt11char_traitsIcE4copyEPcPKcm
DA:100,0
DA:101,0
DA:161,0
DA:164,0
DA:165,0
DA:166,0
DA:167,0
DA:236,0
DA:329,0
DA:332,0
DA:333,0
DA:335,0
DA:361,0
DA:363,0
DA:364,0
DA:365,0
end_of_record
SF:/usr/local/include/gtest/internal/gtest-port.h
FN:957,_ZN7testing8internal8GTestLog9GetStreamEv
FNDA:0,_ZN7testing8internal8GTestLog9GetStreamEv
DA:957,0
end_of_record
SF:/home/john/cse701/roc/include/exceptions.hpp
FN:10,_ZN10sayMessageC2ERKNSt7__cxx1112basic_stringIcSt11char_traitsIcESaIcEEE
FNDA:0,_ZN10sayMessageC2ERKNSt7__cxx1112basic_stringIcSt11char_traitsIcESaIcEEE
FN:11,_ZNK10sayMessage4whatEv
FNDA:0,_ZNK10sayMessage4whatEv
DA:10,0
DA:11,0
end_of_record
SF:/usr/include/c++/9/ext/type_traits.h
FN:152,_ZN9__gnu_cxx17__is_null_pointerIcEEbPT_
FNDA:0,_ZN9__gnu_cxx17__is_null_pointerIcEEbPT_
FN:152,_ZN9__gnu_cxx17__is_null_pointerIKcEEbPT_
FNDA:0,_ZN9__gnu_cxx17__is_null_pointerIKcEEbPT_
DA:152,0
DA:153,0
DA:152,0
DA:153,0
end_of_record
SF:/usr/include/c++/9/bits/stl_algobase.h
FN:198,_ZSt3minImERKT_S2_S2_
FNDA:0,_ZSt3minImERKT_S2_S2_
FN:280,_ZSt12__niter_baseIPiET_S1_
FNDA:0,_ZSt12__niter_baseIPiET_S1_
FN:280,_ZSt12__niter_baseIPKiET_S2_
FNDA:0,_ZSt12__niter_baseIPKiET_S2_
FN:295,_ZSt12__niter_wrapIPiET_RKS1_S1_
FNDA:0,_ZSt12__niter_wrapIPiET_RKS1_S1_
FN:375,_ZNSt11__copy_moveILb0ELb1ESt26random_access_iterator_tagE8__copy_mIiEEPT_PKS3_S6_S4_
FNDA:0,_ZNSt11__copy_moveILb0ELb1ESt26random_access_iterator_tagE8__copy_mIiEEPT_PKS3_S6_S4_
FN:393,_ZSt13__copy_move_aILb0EPKiPiET1_T0_S4_S3_
FNDA:0,_ZSt13__copy_move_aILb0EPKiPiET1_T0_S4_S3_
FN:438,_ZSt14__copy_move_a2ILb0EPKiPiET1_T0_S4_S3_
FNDA:0,_ZSt14__copy_move_a2ILb0EPKiPiET1_T0_S4_S3_
FN:465,_ZSt4copyIPKiPiET0_T_S4_S3_
FNDA:0,_ZSt4copyIPKiPiET0_T_S4_S3_
DA:198,0
DA:203,0
DA:204,0
DA:205,0
DA:280,0
DA:282,0
DA:280,0
DA:282,0
DA:295,0
DA:296,0
DA:375,0
DA:384,0
DA:385,0
DA:386,0
DA:387,0
DA:393,0
DA:398,0
DA:404,0
DA:438,0
DA:440,0
DA:443,0
DA:465,0
DA:474,0
end_of_record
SF:/usr/include/c++/9/bits/move.h
FN:74,_ZSt7forwardISt14default_deleteIA_dEEOT_RNSt16remove_referenceIS3_E4typeE
FNDA:0,_ZSt7forwardISt14default_deleteIA_dEEOT_RNSt16remove_referenceIS3_E4typeE
FN:74,_ZSt7forwardISt14default_deleteIA_iEEOT_RNSt16remove_referenceIS3_E4typeE
FNDA:2,_ZSt7forwardISt14default_deleteIA_iEEOT_RNSt16remove_referenceIS3_E4typeE
FN:99,_ZSt4moveIRPiEONSt16remove_referenceIT_E4typeEOS3_
FNDA:0,_ZSt4moveIRPiEONSt16remove_referenceIT_E4typeEOS3_
FN:99,_ZSt4moveIRPdEONSt16remove_referenceIT_E4typeEOS3_
FNDA:0,_ZSt4moveIRPdEONSt16remove_referenceIT_E4typeEOS3_
FN:99,_ZSt4moveIRSt10unique_ptrIA_dSt14default_deleteIS1_EEEONSt16remove_referenceIT_E4typeEOS7_
FNDA:0,_ZSt4moveIRSt10unique_ptrIA_dSt14default_deleteIS1_EEEONSt16remove_referenceIT_E4typeEOS7_
FN:99,_ZSt4moveIRSt10unique_ptrIA_iSt14default_deleteIS1_EEEONSt16remove_referenceIT_E4typeEOS7_
FNDA:2,_ZSt4moveIRSt10unique_ptrIA_iSt14default_deleteIS1_EEEONSt16remove_referenceIT_E4typeEOS7_
FN:99,_ZSt4moveIRN7testing8internal9EqMatcherImEEEONSt16remove_referenceIT_E4typeEOS6_
FNDA:0,_ZSt4moveIRN7testing8internal9EqMatcherImEEEONSt16remove_referenceIT_E4typeEOS6_
FN:99,_ZSt4moveIRN7testing8internal9EqMatcherIiEEEONSt16remove_referenceIT_E4typeEOS6_
FNDA:0,_ZSt4moveIRN7testing8internal9EqMatcherIiEEEONSt16remove_referenceIT_E4typeEOS6_
FN:99,_ZSt4moveIRPNSt7__cxx1112basic_stringIcSt11char_traitsIcESaIcEEEEONSt16remove_referenceIT_E4typeEOS9_
FNDA:0,_ZSt4moveIRPNSt7__cxx1112basic_stringIcSt11char_traitsIcESaIcEEEEONSt16remove_referenceIT_E4typeEOS9_
FN:99,_ZSt4moveIRPNSt7__cxx1118basic_stringstreamIcSt11char_traitsIcESaIcEEEEONSt16remove_referenceIT_E4typeEOS9_
FNDA:0,_ZSt4moveIRPNSt7__cxx1118basic_stringstreamIcSt11char_traitsIcESaIcEEEEONSt16remove_referenceIT_E4typeEOS9_
FN:99,_ZSt4moveIRSaIcEEONSt16remove_referenceIT_E4typeEOS3_
FNDA:0,_ZSt4moveIRSaIcEEONSt16remove_referenceIT_E4typeEOS3_
FN:99,_ZSt4moveIR7vectorfIdEEONSt16remove_referenceIT_E4typeEOS4_
FNDA:1,_ZSt4moveIR7vectorfIdEEONSt16remove_referenceIT_E4typeEOS4_
FN:99,_ZSt4moveIR7vectorfIiEEONSt16remove_referenceIT_E4typeEOS4_
FNDA:3,_ZSt4moveIR7vectorfIiEEONSt16remove_referenceIT_E4typeEOS4_
FN:182,_ZSt4swapIPiENSt9enable_ifIXsrSt6__and_IJSt6__not_ISt15__is_tuple_likeIT_EESt21is_move_constructibleIS5_ESt18is_move_assignableIS5_EEE5valueEvE4typeERS5_SF_
FNDA:0,_ZSt4swapIPiENSt9enable_ifIXsrSt6__and_IJSt6__not_ISt15__is_tuple_likeIT_EESt21is_move_constructibleIS5_ESt18is_move_assignableIS5_EEE5valueEvE4typeERS5_SF_
FN:182,_ZSt4swapIPdENSt9enable_ifIXsrSt6__and_IJSt6__not_ISt15__is_tuple_likeIT_EESt21is_move_constructibleIS5_ESt18is_move_assignableIS5_EEE5valueEvE4typeERS5_SF_
FNDA:0,_ZSt4swapIPdENSt9enable_ifIXsrSt6__and_IJSt6__not_ISt15__is_tuple_likeIT_EESt21is_move_constructibleIS5_ESt18is_move_assignableIS5_EEE5valueEvE4typeERS5_SF_
FN:182,_ZSt4swapIPNSt7__cxx1112basic_stringIcSt11char_traitsIcESaIcEEEENSt9enable_ifIXsrSt6__and_IJSt6__not_ISt15__is_tuple_likeIT_EESt21is_move_constructibleISB_ESt18is_move_assignableISB_EEE5valueEvE4typeERSB_SL_
FNDA:0,_ZSt4swapIPNSt7__cxx1112basic_stringIcSt11char_traitsIcESaIcEEEENSt9enable_ifIXsrSt6__and_IJSt6__not_ISt15__is_tuple_likeIT_EESt21is_move_constructibleISB_ESt18is_move_assignableISB_EEE5valueEvE4typeERSB_SL_
DA:74,0
DA:75,0
DA:74,2
DA:75,2
DA:99,0
DA:100,0
DA:99,0
DA:100,0
DA:99,0
DA:100,0
DA:99,2
DA:100,2
DA:99,0
DA:100,0
DA:99,0
DA:100,0
DA:99,0
DA:100,0
DA:99,0
DA:100,0
DA:99,0
DA:100,0
DA:99,1
DA:100,1
DA:99,3
DA:100,3
DA:182,0
DA:193,0
DA:194,0
DA:195,0
DA:196,0
DA:182,0
DA:193,0
DA:194,0
DA:195,0
DA:196,0
DA:182,0
DA:193,0
DA:194,0
DA:195,0
DA:196,0
end_of_record
SF:/usr/include/c++/9/bits/exception.h
FN:63,_ZNSt9exceptionC2Ev
FNDA:0,_ZNSt9exceptionC2Ev
DA:63,0
end_of_record
SF:/usr/include/c++/9/bits/stl_iterator_base_funcs.h
FN:98,_ZSt10__distanceIPcENSt15iterator_traitsIT_E15difference_typeES2_S2_St26random_access_iterator_tag
FNDA:0,_ZSt10__distanceIPcENSt15iterator_traitsIT_E15difference_typeES2_S2_St26random_access_iterator_tag
FN:98,_ZSt10__distanceIPKcENSt15iterator_traitsIT_E15difference_typeES3_S3_St26random_access_iterator_tag
FNDA:0,_ZSt10__distanceIPKcENSt15iterator_traitsIT_E15difference_typeES3_S3_St26random_access_iterator_tag
FN:98,_ZSt10__distanceIPKiENSt15iterator_traitsIT_E15difference_typeES3_S3_St26random_access_iterator_tag
FNDA:0,_ZSt10__distanceIPKiENSt15iterator_traitsIT_E15difference_typeES3_S3_St26random_access_iterator_tag
FN:138,_ZSt8distanceIPcENSt15iterator_traitsIT_E15difference_typeES2_S2_
FNDA:0,_ZSt8distanceIPcENSt15iterator_traitsIT_E15difference_typeES2_S2_
FN:138,_ZSt8distanceIPKcENSt15iterator_traitsIT_E15difference_typeES3_S3_
FNDA:0,_ZSt8distanceIPKcENSt15iterator_traitsIT_E15difference_typeES3_S3_
FN:138,_ZSt8distanceIPKiENSt15iterator_traitsIT_E15difference_typeES3_S3_
FNDA:0,_ZSt8distanceIPKiENSt15iterator_traitsIT_E15difference_typeES3_S3_
DA:98,0
DA:104,0
DA:98,0
DA:104,0
DA:98,0
DA:104,0
DA:138,0
DA:141,0
DA:142,0
DA:138,0
DA:141,0
DA:142,0
DA:138,0
DA:141,0
DA:142,0
end_of_record
SF:/usr/include/c++/9/bits/unique_ptr.h
FN:75,_ZNKSt14default_deleteINSt7__cxx1112basic_stringIcSt11char_traitsIcESaIcEEEEclEPS5_
FNDA:0,_ZNKSt14default_deleteINSt7__cxx1112basic_stringIcSt11char_traitsIcESaIcEEEEclEPS5_
FN:75,_ZNKSt14default_deleteINSt7__cxx1118basic_stringstreamIcSt11char_traitsIcESaIcEEEEclEPS5_
FNDA:0,_ZNKSt14default_deleteINSt7__cxx1118basic_stringstreamIcSt11char_traitsIcESaIcEEEEclEPS5_
FN:111,_ZNKSt14default_deleteIA_dEclIdEENSt9enable_ifIXsrSt14is_convertibleIPA_T_PS0_E5valueEvE4typeEPS5_
FNDA:0,_ZNKSt14default_deleteIA_dEclIdEENSt9enable_ifIXsrSt14is_convertibleIPA_T_PS0_E5valueEvE4typeEPS5_
FN:111,_ZNKSt14default_deleteIA_iEclIiEENSt9enable_ifIXsrSt14is_convertibleIPA_T_PS0_E5valueEvE4typeEPS5_
FNDA:0,_ZNKSt14default_deleteIA_iEclIiEENSt9enable_ifIXsrSt14is_convertibleIPA_T_PS0_E5valueEvE4typeEPS5_
FN:146,_ZNSt15__uniq_ptr_implIiSt14default_deleteIA_iEEC2Ev
FNDA:0,_ZNSt15__uniq_ptr_implIiSt14default_deleteIA_iEEC2Ev
FN:146,_ZNSt15__uniq_ptr_implIdSt14default_deleteIA_dEEC2Ev
FNDA:0,_ZNSt15__uniq_ptr_implIdSt14default_deleteIA_dEEC2Ev
FN:153,_ZNSt15__uniq_ptr_implIdSt14default_deleteIA_dEE6_M_ptrEv
FNDA:0,_ZNSt15__uniq_ptr_implIdSt14default_deleteIA_dEE6_M_ptrEv
FN:153,_ZNSt15__uniq_ptr_implINSt7__cxx1112basic_stringIcSt11char_traitsIcESaIcEEESt14default_deleteIS5_EE6_M_ptrEv
FNDA:0,_ZNSt15__uniq_ptr_implINSt7__cxx1112basic_stringIcSt11char_traitsIcESaIcEEESt14default_deleteIS5_EE6_M_ptrEv
FN:153,_ZNSt15__uniq_ptr_implIiSt14default_deleteIA_iEE6_M_ptrEv
FNDA:0,_ZNSt15__uniq_ptr_implIiSt14default_deleteIA_iEE6_M_ptrEv
FN:153,_ZNSt15__uniq_ptr_implINSt7__cxx1118basic_stringstreamIcSt11char_traitsIcESaIcEEESt14default_deleteIS5_EE6_M_ptrEv
FNDA:0,_ZNSt15__uniq_ptr_implINSt7__cxx1118basic_stringstreamIcSt11char_traitsIcESaIcEEESt14default_deleteIS5_EE6_M_ptrEv
FN:154,_ZNKSt15__uniq_ptr_implINSt7__cxx1118basic_stringstreamIcSt11char_traitsIcESaIcEEESt14default_deleteIS5_EE6_M_ptrEv
FNDA:0,_ZNKSt15__uniq_ptr_implINSt7__cxx1118basic_stringstreamIcSt11char_traitsIcESaIcEEESt14default_deleteIS5_EE6_M_ptrEv
FN:154,_ZNKSt15__uniq_ptr_implINSt7__cxx1112basic_stringIcSt11char_traitsIcESaIcEEESt14default_deleteIS5_EE6_M_ptrEv
FNDA:0,_ZNKSt15__uniq_ptr_implINSt7__cxx1112basic_stringIcSt11char_traitsIcESaIcEEESt14default_deleteIS5_EE6_M_ptrEv
FN:154,_ZNKSt15__uniq_ptr_implIdSt14default_deleteIA_dEE6_M_ptrEv
FNDA:0,_ZNKSt15__uniq_ptr_implIdSt14default_deleteIA_dEE6_M_ptrEv
FN:154,_ZNKSt15__uniq_ptr_implIiSt14default_deleteIA_iEE6_M_ptrEv
FNDA:0,_ZNKSt15__uniq_ptr_implIiSt14default_deleteIA_iEE6_M_ptrEv
FN:155,_ZNSt15__uniq_ptr_implINSt7__cxx1118basic_stringstreamIcSt11char_traitsIcESaIcEEESt14default_deleteIS5_EE10_M_deleterEv
FNDA:0,_ZNSt15__uniq_ptr_implINSt7__cxx1118basic_stringstreamIcSt11char_traitsIcESaIcEEESt14default_deleteIS5_EE10_M_deleterEv
FN:155,_ZNSt15__uniq_ptr_implINSt7__cxx1112basic_stringIcSt11char_traitsIcESaIcEEESt14default_deleteIS5_EE10_M_deleterEv
FNDA:0,_ZNSt15__uniq_ptr_implINSt7__cxx1112basic_stringIcSt11char_traitsIcESaIcEEESt14default_deleteIS5_EE10_M_deleterEv
FN:155,_ZNSt15__uniq_ptr_implIdSt14default_deleteIA_dEE10_M_deleterEv
FNDA:0,_ZNSt15__uniq_ptr_implIdSt14default_deleteIA_dEE10_M_deleterEv
FN:155,_ZNSt15__uniq_ptr_implIiSt14default_deleteIA_iEE10_M_deleterEv
FNDA:0,_ZNSt15__uniq_ptr_implIiSt14default_deleteIA_iEE10_M_deleterEv
FN:286,_ZNSt10unique_ptrINSt7__cxx1112basic_stringIcSt11char_traitsIcESaIcEEESt14default_deleteIS5_EED2Ev
FNDA:0,_ZNSt10unique_ptrINSt7__cxx1112basic_stringIcSt11char_traitsIcESaIcEEESt14default_deleteIS5_EED2Ev
FN:286,_ZNSt10unique_ptrINSt7__cxx1118basic_stringstreamIcSt11char_traitsIcESaIcEEESt14default_deleteIS5_EED2Ev
FNDA:0,_ZNSt10unique_ptrINSt7__cxx1118basic_stringstreamIcSt11char_traitsIcESaIcEEESt14default_deleteIS5_EED2Ev
FN:344,_ZNKSt10unique_ptrINSt7__cxx1118basic_stringstreamIcSt11char_traitsIcESaIcEEESt14default_deleteIS5_EEdeEv
FNDA:0,_ZNKSt10unique_ptrINSt7__cxx1118basic_stringstreamIcSt11char_traitsIcESaIcEEESt14default_deleteIS5_EEdeEv
FN:352,_ZNKSt10unique_ptrINSt7__cxx1112basic_stringIcSt11char_traitsIcESaIcEEESt14default_deleteIS5_EEptEv
FNDA:0,_ZNKSt10unique_ptrINSt7__cxx1112basic_stringIcSt11char_traitsIcESaIcEEESt14default_deleteIS5_EEptEv
FN:360,_ZNKSt10unique_ptrINSt7__cxx1112basic_stringIcSt11char_traitsIcESaIcEEESt14default_deleteIS5_EE3getEv
FNDA:0,_ZNKSt10unique_ptrINSt7__cxx1112basic_stringIcSt11char_traitsIcESaIcEEESt14default_deleteIS5_EE3getEv
FN:360,_ZNKSt10unique_ptrINSt7__cxx1118basic_stringstreamIcSt11char_traitsIcESaIcEEESt14default_deleteIS5_EE3getEv
FNDA:0,_ZNKSt10unique_ptrINSt7__cxx1118basic_stringstreamIcSt11char_traitsIcESaIcEEESt14default_deleteIS5_EE3getEv
FN:365,_ZNSt10unique_ptrINSt7__cxx1112basic_stringIcSt11char_traitsIcESaIcEEESt14default_deleteIS5_EE11get_deleterEv
FNDA:0,_ZNSt10unique_ptrINSt7__cxx1112basic_stringIcSt11char_traitsIcESaIcEEESt14default_deleteIS5_EE11get_deleterEv
FN:365,_ZNSt10unique_ptrINSt7__cxx1118basic_stringstreamIcSt11char_traitsIcESaIcEEESt14default_deleteIS5_EE11get_deleterEv
FNDA:0,_ZNSt10unique_ptrINSt7__cxx1118basic_stringstreamIcSt11char_traitsIcESaIcEEESt14default_deleteIS5_EE11get_deleterEv
FN:395,_ZNSt10unique_ptrINSt7__cxx1112basic_stringIcSt11char_traitsIcESaIcEEESt14default_deleteIS5_EE5resetEPS5_
FNDA:0,_ZNSt10unique_ptrINSt7__cxx1112basic_stringIcSt11char_traitsIcESaIcEEESt14default_deleteIS5_EE5resetEPS5_
FN:541,_ZNSt10unique_ptrIA_dSt14default_deleteIS0_EEC2IS2_vEEDn
FNDA:0,_ZNSt10unique_ptrIA_dSt14default_deleteIS0_EEC2IS2_vEEDn
FN:541,_ZNSt10unique_ptrIA_iSt14default_deleteIS0_EEC2IS2_vEEDn
FNDA:0,_ZNSt10unique_ptrIA_iSt14default_deleteIS0_EEC2IS2_vEEDn
FN:555,_ZNSt10unique_ptrIA_dSt14default_deleteIS0_EED2Ev
FNDA:0,_ZNSt10unique_ptrIA_dSt14default_deleteIS0_EED2Ev
FN:555,_ZNSt10unique_ptrIA_iSt14default_deleteIS0_EED2Ev
FNDA:0,_ZNSt10unique_ptrIA_iSt14default_deleteIS0_EED2Ev
FN:572,_ZNSt10unique_ptrIA_iSt14default_deleteIS0_EEaSEOS3_
FNDA:2,_ZNSt10unique_ptrIA_iSt14default_deleteIS0_EEaSEOS3_
FN:572,_ZNSt10unique_ptrIA_dSt14default_deleteIS0_EEaSEOS3_
FNDA:0,_ZNSt10unique_ptrIA_dSt14default_deleteIS0_EEaSEOS3_
FN:619,_ZNKSt10unique_ptrIA_dSt14default_deleteIS0_EE3getEv
FNDA:0,_ZNKSt10unique_ptrIA_dSt14default_deleteIS0_EE3getEv
FN:619,_ZNKSt10unique_ptrIA_iSt14default_deleteIS0_EE3getEv
FNDA:0,_ZNKSt10unique_ptrIA_iSt14default_deleteIS0_EE3getEv
FN:624,_ZNSt10unique_ptrIA_iSt14default_deleteIS0_EE11get_deleterEv
FNDA:0,_ZNSt10unique_ptrIA_iSt14default_deleteIS0_EE11get_deleterEv
FN:624,_ZNSt10unique_ptrIA_dSt14default_deleteIS0_EE11get_deleterEv
FNDA:0,_ZNSt10unique_ptrIA_dSt14default_deleteIS0_EE11get_deleterEv
FN:640,_ZNSt10unique_ptrIA_iSt14default_deleteIS0_EE7releaseEv
FNDA:2,_ZNSt10unique_ptrIA_iSt14default_deleteIS0_EE7releaseEv
FN:640,_ZNSt10unique_ptrIA_dSt14default_deleteIS0_EE7releaseEv
FNDA:0,_ZNSt10unique_ptrIA_dSt14default_deleteIS0_EE7releaseEv
FN:666,_ZNSt10unique_ptrIA_iSt14default_deleteIS0_EE5resetIPivEEvT_
FNDA:0,_ZNSt10unique_ptrIA_iSt14default_deleteIS0_EE5resetIPivEEvT_
FN:666,_ZNSt10unique_ptrIA_dSt14default_deleteIS0_EE5resetIPdvEEvT_
FNDA:0,_ZNSt10unique_ptrIA_dSt14default_deleteIS0_EE5resetIPdvEEvT_
DA:75,0
DA:81,0
DA:82,0
DA:75,0
DA:81,0
DA:82,0
DA:111,0
DA:115,0
DA:116,0
DA:111,0
DA:115,0
DA:116,0
DA:146,0
DA:146,0
DA:153,0
DA:153,0
DA:153,0
DA:153,0
DA:154,0
DA:154,0
DA:154,0
DA:154,0
DA:155,0
DA:155,0
DA:155,0
DA:155,0
DA:286,0
DA:290,0
DA:291,0
DA:292,0
DA:293,0
DA:294,0
DA:286,0
DA:290,0
DA:291,0
DA:292,0
DA:293,0
DA:294,0
DA:344,0
DA:347,0
DA:352,0
DA:355,0
DA:360,0
DA:361,0
DA:360,0
DA:361,0
DA:365,0
DA:366,0
DA:365,0
DA:366,0
DA:395,0
DA:400,0
DA:401,0
DA:402,0
DA:403,0
DA:541,0
DA:542,0
DA:543,0
DA:541,0
DA:542,0
DA:543,0
DA:555,0
DA:557,0
DA:558,0
DA:559,0
DA:560,0
DA:561,0
DA:555,0
DA:557,0
DA:558,0
DA:559,0
DA:560,0
DA:561,0
DA:572,0
DA:574,0
DA:575,0
DA:576,0
DA:572,2
DA:574,2
DA:575,2
DA:576,2
DA:619,0
DA:620,0
DA:619,0
DA:620,0
DA:624,0
DA:625,0
DA:624,0
DA:625,0
DA:640,0
DA:642,0
DA:643,0
DA:644,0
DA:640,2
DA:642,2
DA:643,2
DA:644,2
DA:666,0
DA:668,0
DA:670,0
DA:671,0
DA:672,0
DA:673,0
DA:666,0
DA:668,0
DA:670,0
DA:671,0
DA:672,0
DA:673,0
end_of_record
SF:/usr/include/c++/9/tuple
FN:76,_ZNSt10_Head_baseILm1ESt14default_deleteIA_dELb1EEC2Ev
FNDA:0,_ZNSt10_Head_baseILm1ESt14default_deleteIA_dELb1EEC2Ev
FN:76,_ZNSt10_Head_baseILm1ESt14default_deleteIA_iELb1EEC2Ev
FNDA:0,_ZNSt10_Head_baseILm1ESt14default_deleteIA_iELb1EEC2Ev
FN:113,_ZNSt10_Head_baseILm1ESt14default_deleteIA_dELb1EE7_M_headERS3_
FNDA:0,_ZNSt10_Head_baseILm1ESt14default_deleteIA_dELb1EE7_M_headERS3_
FN:113,_ZNSt10_Head_baseILm1ESt14default_deleteINSt7__cxx1112basic_stringIcSt11char_traitsIcESaIcEEEELb1EE7_M_headERS8_
FNDA:0,_ZNSt10_Head_baseILm1ESt14default_deleteINSt7__cxx1112basic_stringIcSt11char_traitsIcESaIcEEEELb1EE7_M_headERS8_
FN:113,_ZNSt10_Head_baseILm1ESt14default_deleteINSt7__cxx1118basic_stringstreamIcSt11char_traitsIcESaIcEEEELb1EE7_M_headERS8_
FNDA:0,_ZNSt10_Head_baseILm1ESt14default_deleteINSt7__cxx1118basic_stringstreamIcSt11char_traitsIcESaIcEEEELb1EE7_M_headERS8_
FN:113,_ZNSt10_Head_baseILm1ESt14default_deleteIA_iELb1EE7_M_headERS3_
FNDA:0,_ZNSt10_Head_baseILm1ESt14default_deleteIA_iELb1EE7_M_headERS3_
FN:122,_ZNSt10_Head_baseILm0EPdLb0EEC2Ev
FNDA:0,_ZNSt10_Head_baseILm0EPdLb0EEC2Ev
FN:122,_ZNSt10_Head_baseILm0EPiLb0EEC2Ev
FNDA:0,_ZNSt10_Head_baseILm0EPiLb0EEC2Ev
FN:160,_ZNSt10_Head_baseILm0EPiLb0EE7_M_headERS1_
FNDA:0,_ZNSt10_Head_baseILm0EPiLb0EE7_M_headERS1_
FN:160,_ZNSt10_Head_baseILm0EPNSt7__cxx1112basic_stringIcSt11char_traitsIcESaIcEEELb0EE7_M_headERS7_
FNDA:0,_ZNSt10_Head_baseILm0EPNSt7__cxx1112basic_stringIcSt11char_traitsIcESaIcEEELb0EE7_M_headERS7_
FN:160,_ZNSt10_Head_baseILm0EPNSt7__cxx1118basic_stringstreamIcSt11char_traitsIcESaIcEEELb0EE7_M_headERS7_
FNDA:0,_ZNSt10_Head_baseILm0EPNSt7__cxx1118basic_stringstreamIcSt11char_traitsIcESaIcEEELb0EE7_M_headERS7_
FN:160,_ZNSt10_Head_baseILm0EPdLb0EE7_M_headERS1_
FNDA:0,_ZNSt10_Head_baseILm0EPdLb0EE7_M_headERS1_
FN:163,_ZNSt10_Head_baseILm0EPNSt7__cxx1118basic_stringstreamIcSt11char_traitsIcESaIcEEELb0EE7_M_headERKS7_
FNDA:0,_ZNSt10_Head_baseILm0EPNSt7__cxx1118basic_stringstreamIcSt11char_traitsIcESaIcEEELb0EE7_M_headERKS7_
FN:163,_ZNSt10_Head_baseILm0EPdLb0EE7_M_headERKS1_
FNDA:0,_ZNSt10_Head_baseILm0EPdLb0EE7_M_headERKS1_
FN:163,_ZNSt10_Head_baseILm0EPNSt7__cxx1112basic_stringIcSt11char_traitsIcESaIcEEELb0EE7_M_headERKS7_
FNDA:0,_ZNSt10_Head_baseILm0EPNSt7__cxx1112basic_stringIcSt11char_traitsIcESaIcEEELb0EE7_M_headERKS7_
FN:163,_ZNSt10_Head_baseILm0EPiLb0EE7_M_headERKS1_
FNDA:0,_ZNSt10_Head_baseILm0EPiLb0EE7_M_headERKS1_
FN:195,_ZNSt11_Tuple_implILm0EJPiSt14default_deleteIA_iEEE7_M_headERS4_
FNDA:0,_ZNSt11_Tuple_implILm0EJPiSt14default_deleteIA_iEEE7_M_headERS4_
FN:195,_ZNSt11_Tuple_implILm0EJPdSt14default_deleteIA_dEEE7_M_headERS4_
FNDA:0,_ZNSt11_Tuple_implILm0EJPdSt14default_deleteIA_dEEE7_M_headERS4_
FN:195,_ZNSt11_Tuple_implILm0EJPNSt7__cxx1112basic_stringIcSt11char_traitsIcESaIcEEESt14default_deleteIS5_EEE7_M_headERS9_
FNDA:0,_ZNSt11_Tuple_implILm0EJPNSt7__cxx1112basic_stringIcSt11char_traitsIcESaIcEEESt14default_deleteIS5_EEE7_M_headERS9_
FN:195,_ZNSt11_Tuple_implILm0EJPNSt7__cxx1118basic_stringstreamIcSt11char_traitsIcESaIcEEESt14default_deleteIS5_EEE7_M_headERS9_
FNDA:0,_ZNSt11_Tuple_implILm0EJPNSt7__cxx1118basic_stringstreamIcSt11char_traitsIcESaIcEEESt14default_deleteIS5_EEE7_M_headERS9_
FN:198,_ZNSt11_Tuple_implILm0EJPNSt7__cxx1112basic_stringIcSt11char_traitsIcESaIcEEESt14default_deleteIS5_EEE7_M_headERKS9_
FNDA:0,_ZNSt11_Tuple_implILm0EJPNSt7__cxx1112basic_stringIcSt11char_traitsIcESaIcEEESt14default_deleteIS5_EEE7_M_headERKS9_
FN:198,_ZNSt11_Tuple_implILm0EJPNSt7__cxx1118basic_stringstreamIcSt11char_traitsIcESaIcEEESt14default_deleteIS5_EEE7_M_headERKS9_
FNDA:0,_ZNSt11_Tuple_implILm0EJPNSt7__cxx1118basic_stringstreamIcSt11char_traitsIcESaIcEEESt14default_deleteIS5_EEE7_M_headERKS9_
FN:198,_ZNSt11_Tuple_implILm0EJPdSt14default_deleteIA_dEEE7_M_headERKS4_
FNDA:0,_ZNSt11_Tuple_implILm0EJPdSt14default_deleteIA_dEEE7_M_headERKS4_
FN:198,_ZNSt11_Tuple_implILm0EJPiSt14default_deleteIA_iEEE7_M_headERKS4_
FNDA:0,_ZNSt11_Tuple_implILm0EJPiSt14default_deleteIA_iEEE7_M_headERKS4_
FN:206,_ZNSt11_Tuple_implILm0EJPdSt14default_deleteIA_dEEEC2Ev
FNDA:0,_ZNSt11_Tuple_implILm0EJPdSt14default_deleteIA_dEEEC2Ev
FN:206,_ZNSt11_Tuple_implILm0EJPiSt14default_deleteIA_iEEEC2Ev
FNDA:0,_ZNSt11_Tuple_implILm0EJPiSt14default_deleteIA_iEEEC2Ev
FN:334,_ZNSt11_Tuple_implILm1EJSt14default_deleteINSt7__cxx1118basic_stringstreamIcSt11char_traitsIcESaIcEEEEEE7_M_headERS8_
FNDA:0,_ZNSt11_Tuple_implILm1EJSt14default_deleteINSt7__cxx1118basic_stringstreamIcSt11char_traitsIcESaIcEEEEEE7_M_headERS8_
FN:334,_ZNSt11_Tuple_implILm1EJSt14default_deleteINSt7__cxx1112basic_stringIcSt11char_traitsIcESaIcEEEEEE7_M_headERS8_
FNDA:0,_ZNSt11_Tuple_implILm1EJSt14default_deleteINSt7__cxx1112basic_stringIcSt11char_traitsIcESaIcEEEEEE7_M_headERS8_
FN:334,_ZNSt11_Tuple_implILm1EJSt14default_deleteIA_dEEE7_M_headERS3_
FNDA:0,_ZNSt11_Tuple_implILm1EJSt14default_deleteIA_dEEE7_M_headERS3_
FN:334,_ZNSt11_Tuple_implILm1EJSt14default_deleteIA_iEEE7_M_headERS3_
FNDA:0,_ZNSt11_Tuple_implILm1EJSt14default_deleteIA_iEEE7_M_headERS3_
FN:339,_ZNSt11_Tuple_implILm1EJSt14default_deleteIA_dEEEC2Ev
FNDA:0,_ZNSt11_Tuple_implILm1EJSt14default_deleteIA_dEEEC2Ev
FN:339,_ZNSt11_Tuple_implILm1EJSt14default_deleteIA_iEEEC2Ev
FNDA:0,_ZNSt11_Tuple_implILm1EJSt14default_deleteIA_iEEEC2Ev
FN:918,_ZNSt5tupleIJPdSt14default_deleteIA_dEEEC2IS0_S3_Lb1EEEv
FNDA:0,_ZNSt5tupleIJPdSt14default_deleteIA_dEEEC2IS0_S3_Lb1EEEv
FN:918,_ZNSt5tupleIJPiSt14default_deleteIA_iEEEC2IS0_S3_Lb1EEEv
FNDA:0,_ZNSt5tupleIJPiSt14default_deleteIA_iEEEC2IS0_S3_Lb1EEEv
FN:1309,_ZSt12__get_helperILm0EPdJSt14default_deleteIA_dEEERT0_RSt11_Tuple_implIXT_EJS4_DpT1_EE
FNDA:0,_ZSt12__get_helperILm0EPdJSt14default_deleteIA_dEEERT0_RSt11_Tuple_implIXT_EJS4_DpT1_EE
FN:1309,_ZSt12__get_helperILm0EPNSt7__cxx1118basic_stringstreamIcSt11char_traitsIcESaIcEEEJSt14default_deleteIS5_EEERT0_RSt11_Tuple_implIXT_EJS9_DpT1_EE
FNDA:0,_ZSt12__get_helperILm0EPNSt7__cxx1118basic_stringstreamIcSt11char_traitsIcESaIcEEEJSt14default_deleteIS5_EEERT0_RSt11_Tuple_implIXT_EJS9_DpT1_EE
FN:1309,_ZSt12__get_helperILm0EPNSt7__cxx1112basic_stringIcSt11char_traitsIcESaIcEEEJSt14default_deleteIS5_EEERT0_RSt11_Tuple_implIXT_EJS9_DpT1_EE
FNDA:0,_ZSt12__get_helperILm0EPNSt7__cxx1112basic_stringIcSt11char_traitsIcESaIcEEEJSt14default_deleteIS5_EEERT0_RSt11_Tuple_implIXT_EJS9_DpT1_EE
FN:1309,_ZSt12__get_helperILm1ESt14default_deleteIA_iEJEERT0_RSt11_Tuple_implIXT_EJS3_DpT1_EE
FNDA:0,_ZSt12__get_helperILm1ESt14default_deleteIA_iEJEERT0_RSt11_Tuple_implIXT_EJS3_DpT1_EE
FN:1309,_ZSt12__get_helperILm1ESt14default_deleteIA_dEJEERT0_RSt11_Tuple_implIXT_EJS3_DpT1_EE
FNDA:0,_ZSt12__get_helperILm1ESt14default_deleteIA_dEJEERT0_RSt11_Tuple_implIXT_EJS3_DpT1_EE
FN:1309,_ZSt12__get_helperILm0EPiJSt14default_deleteIA_iEEERT0_RSt11_Tuple_implIXT_EJS4_DpT1_EE
FNDA:0,_ZSt12__get_helperILm0EPiJSt14default_deleteIA_iEEERT0_RSt11_Tuple_implIXT_EJS4_DpT1_EE
FN:1309,_ZSt12__get_helperILm1ESt14default_deleteINSt7__cxx1118basic_stringstreamIcSt11char_traitsIcESaIcEEEEJEERT0_RSt11_Tuple_implIXT_EJS8_DpT1_EE
FNDA:0,_ZSt12__get_helperILm1ESt14default_deleteINSt7__cxx1118basic_stringstreamIcSt11char_traitsIcESaIcEEEEJEERT0_RSt11_Tuple_implIXT_EJS8_DpT1_EE
FN:1309,_ZSt12__get_helperILm1ESt14default_deleteINSt7__cxx1112basic_stringIcSt11char_traitsIcESaIcEEEEJEERT0_RSt11_Tuple_implIXT_EJS8_DpT1_EE
FNDA:0,_ZSt12__get_helperILm1ESt14default_deleteINSt7__cxx1112basic_stringIcSt11char_traitsIcESaIcEEEEJEERT0_RSt11_Tuple_implIXT_EJS8_DpT1_EE
FN:1314,_ZSt12__get_helperILm0EPiJSt14default_deleteIA_iEEERKT0_RKSt11_Tuple_implIXT_EJS4_DpT1_EE
FNDA:0,_ZSt12__get_helperILm0EPiJSt14default_deleteIA_iEEERKT0_RKSt11_Tuple_implIXT_EJS4_DpT1_EE
FN:1314,_ZSt12__get_helperILm0EPNSt7__cxx1112basic_stringIcSt11char_traitsIcESaIcEEEJSt14default_deleteIS5_EEERKT0_RKSt11_Tuple_implIXT_EJS9_DpT1_EE
FNDA:0,_ZSt12__get_helperILm0EPNSt7__cxx1112basic_stringIcSt11char_traitsIcESaIcEEEJSt14default_deleteIS5_EEERKT0_RKSt11_Tuple_implIXT_EJS9_DpT1_EE
FN:1314,_ZSt12__get_helperILm0EPdJSt14default_deleteIA_dEEERKT0_RKSt11_Tuple_implIXT_EJS4_DpT1_EE
FNDA:0,_ZSt12__get_helperILm0EPdJSt14default_deleteIA_dEEERKT0_RKSt11_Tuple_implIXT_EJS4_DpT1_EE
FN:1314,_ZSt12__get_helperILm0EPNSt7__cxx1118basic_stringstreamIcSt11char_traitsIcESaIcEEEJSt14default_deleteIS5_EEERKT0_RKSt11_Tuple_implIXT_EJS9_DpT1_EE
FNDA:0,_ZSt12__get_helperILm0EPNSt7__cxx1118basic_stringstreamIcSt11char_traitsIcESaIcEEEJSt14default_deleteIS5_EEERKT0_RKSt11_Tuple_implIXT_EJS9_DpT1_EE
FN:1320,_ZSt3getILm1EJPNSt7__cxx1118basic_stringstreamIcSt11char_traitsIcESaIcEEESt14default_deleteIS5_EEERNSt13tuple_elementIXT_ESt5tupleIJDpT0_EEE4typeERSD_
FNDA:0,_ZSt3getILm1EJPNSt7__cxx1118basic_stringstreamIcSt11char_traitsIcESaIcEEESt14default_deleteIS5_EEERNSt13tuple_elementIXT_ESt5tupleIJDpT0_EEE4typeERSD_
FN:1320,_ZSt3getILm0EJPNSt7__cxx1118basic_stringstreamIcSt11char_traitsIcESaIcEEESt14default_deleteIS5_EEERNSt13tuple_elementIXT_ESt5tupleIJDpT0_EEE4typeERSD_
FNDA:0,_ZSt3getILm0EJPNSt7__cxx1118basic_stringstreamIcSt11char_traitsIcESaIcEEESt14default_deleteIS5_EEERNSt13tuple_elementIXT_ESt5tupleIJDpT0_EEE4typeERSD_
FN:1320,_ZSt3getILm0EJPNSt7__cxx1112basic_stringIcSt11char_traitsIcESaIcEEESt14default_deleteIS5_EEERNSt13tuple_elementIXT_ESt5tupleIJDpT0_EEE4typeERSD_
FNDA:0,_ZSt3getILm0EJPNSt7__cxx1112basic_stringIcSt11char_traitsIcESaIcEEESt14default_deleteIS5_EEERNSt13tuple_elementIXT_ESt5tupleIJDpT0_EEE4typeERSD_
FN:1320,_ZSt3getILm0EJPdSt14default_deleteIA_dEEERNSt13tuple_elementIXT_ESt5tupleIJDpT0_EEE4typeERS8_
FNDA:0,_ZSt3getILm0EJPdSt14default_deleteIA_dEEERNSt13tuple_elementIXT_ESt5tupleIJDpT0_EEE4typeERS8_
FN:1320,_ZSt3getILm0EJPiSt14default_deleteIA_iEEERNSt13tuple_elementIXT_ESt5tupleIJDpT0_EEE4typeERS8_
FNDA:0,_ZSt3getILm0EJPiSt14default_deleteIA_iEEERNSt13tuple_elementIXT_ESt5tupleIJDpT0_EEE4typeERS8_
FN:1320,_ZSt3getILm1EJPNSt7__cxx1112basic_stringIcSt11char_traitsIcESaIcEEESt14default_deleteIS5_EEERNSt13tuple_elementIXT_ESt5tupleIJDpT0_EEE4typeERSD_
FNDA:0,_ZSt3getILm1EJPNSt7__cxx1112basic_stringIcSt11char_traitsIcESaIcEEESt14default_deleteIS5_EEERNSt13tuple_elementIXT_ESt5tupleIJDpT0_EEE4typeERSD_
FN:1320,_ZSt3getILm1EJPiSt14default_deleteIA_iEEERNSt13tuple_elementIXT_ESt5tupleIJDpT0_EEE4typeERS8_
FNDA:0,_ZSt3getILm1EJPiSt14default_deleteIA_iEEERNSt13tuple_elementIXT_ESt5tupleIJDpT0_EEE4typeERS8_
FN:1320,_ZSt3getILm1EJPdSt14default_deleteIA_dEEERNSt13tuple_elementIXT_ESt5tupleIJDpT0_EEE4typeERS8_
FNDA:0,_ZSt3getILm1EJPdSt14default_deleteIA_dEEERNSt13tuple_elementIXT_ESt5tupleIJDpT0_EEE4typeERS8_
FN:1326,_ZSt3getILm0EJPiSt14default_deleteIA_iEEERKNSt13tuple_elementIXT_ESt5tupleIJDpT0_EEE4typeERKS8_
FNDA:0,_ZSt3getILm0EJPiSt14default_deleteIA_iEEERKNSt13tuple_elementIXT_ESt5tupleIJDpT0_EEE4typeERKS8_
FN:1326,_ZSt3getILm0EJPNSt7__cxx1118basic_stringstreamIcSt11char_traitsIcESaIcEEESt14default_deleteIS5_EEERKNSt13tuple_elementIXT_ESt5tupleIJDpT0_EEE4typeERKSD_
FNDA:0,_ZSt3getILm0EJPNSt7__cxx1118basic_stringstreamIcSt11char_traitsIcESaIcEEESt14default_deleteIS5_EEERKNSt13tuple_elementIXT_ESt5tupleIJDpT0_EEE4typeERKSD_
FN:1326,_ZSt3getILm0EJPNSt7__cxx1112basic_stringIcSt11char_traitsIcESaIcEEESt14default_deleteIS5_EEERKNSt13tuple_elementIXT_ESt5tupleIJDpT0_EEE4typeERKSD_
FNDA:0,_ZSt3getILm0EJPNSt7__cxx1112basic_stringIcSt11char_traitsIcESaIcEEESt14default_deleteIS5_EEERKNSt13tuple_elementIXT_ESt5tupleIJDpT0_EEE4typeERKSD_
FN:1326,_ZSt3getILm0EJPdSt14default_deleteIA_dEEERKNSt13tuple_elementIXT_ESt5tupleIJDpT0_EEE4typeERKS8_
FNDA:0,_ZSt3getILm0EJPdSt14default_deleteIA_dEEERKNSt13tuple_elementIXT_ESt5tupleIJDpT0_EEE4typeERKS8_
DA:76,0
DA:77,0
DA:76,0
DA:77,0
DA:113,0
DA:113,0
DA:113,0
DA:113,0
DA:122,0
DA:123,0
DA:122,0
DA:123,0
DA:160,0
DA:160,0
DA:160,0
DA:160,0
DA:163,0
DA:163,0
DA:163,0
DA:163,0
DA:195,0
DA:195,0
DA:195,0
DA:195,0
DA:198,0
DA:198,0
DA:198,0
DA:198,0
DA:206,0
DA:207,0
DA:206,0
DA:207,0
DA:334,0
DA:334,0
DA:334,0
DA:334,0
DA:339,0
DA:340,0
DA:339,0
DA:340,0
DA:918,0
DA:919,0
DA:918,0
DA:919,0
DA:1309,0
DA:1310,0
DA:1309,0
DA:1310,0
DA:1309,0
DA:1310,0
DA:1309,0
DA:1310,0
DA:1309,0
DA:1310,0
DA:1309,0
DA:1310,0
DA:1309,0
DA:1310,0
DA:1309,0
DA:1310,0
DA:1314,0
DA:1315,0
DA:1314,0
DA:1315,0
DA:1314,0
DA:1315,0
DA:1314,0
DA:1315,0
DA:1320,0
DA:1321,0
DA:1320,0
DA:1321,0
DA:1320,0
DA:1321,0
DA:1320,0
DA:1321,0
DA:1320,0
DA:1321,0
DA:1320,0
DA:1321,0
DA:1320,0
DA:1321,0
DA:1320,0
DA:1321,0
DA:1326,0
DA:1327,0
DA:1326,0
DA:1327,0
DA:1326,0
DA:1327,0
DA:1326,0
DA:1327,0
end_of_record
SF:/usr/local/include/gtest/gtest-message.h
FN:112,_ZN7testing7MessagelsINSt7__cxx1112basic_stringIcSt11char_traitsIcESaIcEEEEERS0_RKT_
FNDA:0,_ZN7testing7MessagelsINSt7__cxx1112basic_stringIcSt11char_traitsIcESaIcEEEEERS0_RKT_
DA:112,0
DA:128,0
DA:129,0
end_of_record
TN:
SF:/usr/include/c++/9/bits/basic_string.h
FN:243,_ZNSt7__cxx1112basic_stringIcSt11char_traitsIcESaIcEE16_M_construct_auxIPcEEvT_S7_St12__false_type
FNDA:0,_ZNSt7__cxx1112basic_stringIcSt11char_traitsIcESaIcEE16_M_construct_auxIPcEEvT_S7_St12__false_type
FN:243,_ZNSt7__cxx1112basic_stringIcSt11char_traitsIcESaIcEE16_M_construct_auxIPKcEEvT_S8_St12__false_type
FNDA:8858,_ZNSt7__cxx1112basic_stringIcSt11char_traitsIcESaIcEE16_M_construct_auxIPKcEEvT_S8_St12__false_type
FN:263,_ZNSt7__cxx1112basic_stringIcSt11char_traitsIcESaIcEE12_M_constructIPcEEvT_S7_
FNDA:0,_ZNSt7__cxx1112basic_stringIcSt11char_traitsIcESaIcEE12_M_constructIPcEEvT_S7_
FN:263,_ZNSt7__cxx1112basic_stringIcSt11char_traitsIcESaIcEE12_M_constructIPKcEEvT_S8_
FNDA:8858,_ZNSt7__cxx1112basic_stringIcSt11char_traitsIcESaIcEE12_M_constructIPKcEEvT_S8_
FN:525,_ZNSt7__cxx1112basic_stringIcSt11char_traitsIcESaIcEEC2IS3_EEPKcRKS3_
FNDA:8858,_ZNSt7__cxx1112basic_stringIcSt11char_traitsIcESaIcEEC2IS3_EEPKcRKS3_
DA:243,0
DA:247,0
DA:248,0
DA:243,8858
DA:247,8858
DA:248,8858
DA:263,0
DA:266,0
DA:267,0
DA:263,8858
DA:266,8858
DA:267,8858
DA:525,8858
DA:526,8858
DA:527,8858
end_of_record
SF:/home/john/cse701/roc/test/exceptionsTests.cpp
FN:8,_ZN56TestExceptions_HandleWhatMethodOfBaseClassException_Test8TestBodyEv
FNDA:1,_ZN56TestExceptions_HandleWhatMethodOfBaseClassException_Test8TestBodyEv
FN:8,_ZN56TestExceptions_HandleWhatMethodOfBaseClassException_TestC2Ev
FNDA:1,_ZN56TestExceptions_HandleWhatMethodOfBaseClassException_TestC2Ev
DA:8,1
DA:12,2
DA:13,1
DA:15,2
DA:17,1
DA:8,1
end_of_record
SF:/usr/include/c++/9/iostream
end_of_record
SF:/usr/include/c++/9/ext/alloc_traits.h
FN:97,_ZN9__gnu_cxx14__alloc_traitsISaIcEcE17_S_select_on_copyERKS1_
FNDA:0,_ZN9__gnu_cxx14__alloc_traitsISaIcEcE17_S_select_on_copyERKS1_
DA:97,0
DA:98,0
end_of_record
SF:/usr/include/c++/9/bits/basic_string.tcc
FN:206,_ZNSt7__cxx1112basic_stringIcSt11char_traitsIcESaIcEE12_M_constructIPcEEvT_S7_St20forward_iterator_tag
FNDA:0,_ZNSt7__cxx1112basic_stringIcSt11char_traitsIcESaIcEE12_M_constructIPcEEvT_S7_St20forward_iterator_tag
FN:206,_ZNSt7__cxx1112basic_stringIcSt11char_traitsIcESaIcEE12_M_constructIPKcEEvT_S8_St20forward_iterator_tag
FNDA:48622,_ZNSt7__cxx1112basic_stringIcSt11char_traitsIcESaIcEE12_M_constructIPKcEEvT_S8_St20forward_iterator_tag
DA:206,0
DA:211,0
DA:212,0
DA:215,0
DA:217,0
DA:219,0
DA:220,0
DA:225,0
DA:226,0
DA:228,0
DA:229,0
DA:232,0
DA:233,0
DA:206,48622
DA:211,48622
DA:212,0
DA:215,48622
DA:217,48622
DA:219,35176
DA:220,35176
DA:225,48622
DA:226,0
DA:228,0
DA:229,0
DA:232,48622
DA:233,48622
end_of_record
SF:/usr/local/include/gtest/internal/gtest-internal.h
FN:442,_ZN7testing8internal15TestFactoryBaseD0Ev
FNDA:0,_ZN7testing8internal15TestFactoryBaseD0Ev
FN:442,_ZN7testing8internal15TestFactoryBaseD2Ev
FNDA:8836,_ZN7testing8internal15TestFactoryBaseD2Ev
FN:449,_ZN7testing8internal15TestFactoryBaseC2Ev
FNDA:8836,_ZN7testing8internal15TestFactoryBaseC2Ev
FN:460,_ZN7testing8internal15TestFactoryImplI56TestExceptions_HandleWhatMethodOfBaseClassException_TestE10CreateTestEv
FNDA:1,_ZN7testing8internal15TestFactoryImplI56TestExceptions_HandleWhatMethodOfBaseClassException_TestE10CreateTestEv
FN:481,_ZN7testing8internal12CodeLocationC2ERKNSt7__cxx1112basic_stringIcSt11char_traitsIcESaIcEEEi
FNDA:8836,_ZN7testing8internal12CodeLocationC2ERKNSt7__cxx1112basic_stringIcSt11char_traitsIcESaIcEEEi
FN:494,_ZN7testing8internal19GetNotDefaultOrNullEPFvvES2_
FNDA:35344,_ZN7testing8internal19GetNotDefaultOrNullEPFvvES2_
FN:509,_ZN7testing8internal16SuiteApiResolverINS_4TestEE19GetSetUpCaseOrSuiteEPKci
FNDA:3572,_ZN7testing8internal16SuiteApiResolverINS_4TestEE19GetSetUpCaseOrSuiteEPKci
FN:524,_ZN7testing8internal16SuiteApiResolverINS_4TestEE22GetTearDownCaseOrSuiteEPKci
FNDA:3572,_ZN7testing8internal16SuiteApiResolverINS_4TestEE22GetTearDownCaseOrSuiteEPKci
DA:442,0
DA:442,8836
DA:449,8836
DA:460,1
DA:481,8836
DA:482,8836
DA:494,35344
DA:496,35344
DA:509,3572
DA:512,3572
DA:514,3572
DA:516,3572
DA:519,0
DA:521,3572
DA:524,3572
DA:527,3572
DA:529,3572
DA:531,3572
DA:534,0
DA:536,3572
end_of_record
SF:/usr/local/include/gtest/gtest.h
FN:312,_ZNK7testing15AssertionResultcvbEv
FNDA:8541,_ZNK7testing15AssertionResultcvbEv
FN:321,_ZNK7testing15AssertionResult7messageEv
FNDA:0,_ZNK7testing15AssertionResult7messageEv
FN:325,_ZNK7testing15AssertionResult15failure_messageEv
FNDA:0,_ZNK7testing15AssertionResult15failure_messageEv
FN:417,_ZN7testing4Test14SetUpTestSuiteEv
FNDA:0,_ZN7testing4Test14SetUpTestSuiteEv
FN:427,_ZN7testing4Test17TearDownTestSuiteEv
FNDA:0,_ZN7testing4Test17TearDownTestSuiteEv
FN:431,_ZN7testing4Test16TearDownTestCaseEv
FNDA:0,_ZN7testing4Test16TearDownTestCaseEv
FN:432,_ZN7testing4Test13SetUpTestCaseEv
FNDA:0,_ZN7testing4Test13SetUpTestCaseEv
FN:513,_ZN7testing4Test5SetupEv
FNDA:0,_ZN7testing4Test5SetupEv
DA:312,8541
DA:321,0
DA:322,0
DA:325,0
DA:417,0
DA:427,0
DA:431,0
DA:432,0
DA:513,0
end_of_record
SF:/usr/include/c++/9/bits/stl_iterator_base_types.h
FN:205,_ZSt19__iterator_categoryIPcENSt15iterator_traitsIT_E17iterator_categoryERKS2_
FNDA:0,_ZSt19__iterator_categoryIPcENSt15iterator_traitsIT_E17iterator_categoryERKS2_
FN:205,_ZSt19__iterator_categoryIPKcENSt15iterator_traitsIT_E17iterator_categoryERKS3_
FNDA:48622,_ZSt19__iterator_categoryIPKcENSt15iterator_traitsIT_E17iterator_categoryERKS3_
DA:205,0
DA:206,0
DA:205,48622
DA:206,48622
end_of_record
SF:/usr/include/c++/9/ext/new_allocator.h
FN:80,_ZN9__gnu_cxx13new_allocatorIcEC2Ev
FNDA:0,_ZN9__gnu_cxx13new_allocatorIcEC2Ev
FN:83,_ZN9__gnu_cxx13new_allocatorIcEC2ERKS1_
FNDA:0,_ZN9__gnu_cxx13new_allocatorIcEC2ERKS1_
FN:89,_ZN9__gnu_cxx13new_allocatorIcED2Ev
FNDA:0,_ZN9__gnu_cxx13new_allocatorIcED2Ev
DA:80,0
DA:83,0
DA:89,0
end_of_record
SF:/usr/local/include/gtest/internal/gtest-port.h
FN:957,_ZN7testing8internal8GTestLog9GetStreamEv
FNDA:0,_ZN7testing8internal8GTestLog9GetStreamEv
DA:957,0
end_of_record
SF:/usr/include/c++/9/bits/char_traits.h
FN:100,_ZN9__gnu_cxx11char_traitsIcE2eqERKcS3_
FNDA:0,_ZN9__gnu_cxx11char_traitsIcE2eqERKcS3_
FN:161,_ZN9__gnu_cxx11char_traitsIcE6lengthEPKc
FNDA:0,_ZN9__gnu_cxx11char_traitsIcE6lengthEPKc
FN:329,_ZNSt11char_traitsIcE6lengthEPKc
FNDA:8860,_ZNSt11char_traitsIcE6lengthEPKc
DA:100,0
DA:101,0
DA:161,0
DA:164,0
DA:165,0
DA:166,0
DA:167,0
DA:236,8860
DA:329,8860
DA:332,8860
DA:333,0
DA:335,8860
end_of_record
SF:/usr/include/c++/9/bits/alloc_traits.h
FN:514,_ZNSt16allocator_traitsISaIcEE37select_on_container_copy_constructionERKS0_
FNDA:0,_ZNSt16allocator_traitsISaIcEE37select_on_container_copy_constructionERKS0_
DA:514,0
DA:515,0
end_of_record
SF:/home/john/cse701/roc/include/exceptions.hpp
FN:10,_ZN10sayMessageC2ERKNSt7__cxx1112basic_stringIcSt11char_traitsIcESaIcEEE
FNDA:29,_ZN10sayMessageC2ERKNSt7__cxx1112basic_stringIcSt11char_traitsIcESaIcEEE
FN:11,_ZNK10sayMessage4whatEv
FNDA:1,_ZNK10sayMessage4whatEv
DA:10,29
DA:11,1
end_of_record
SF:/usr/include/c++/9/ext/type_traits.h
FN:152,_ZN9__gnu_cxx17__is_null_pointerIcEEbPT_
FNDA:0,_ZN9__gnu_cxx17__is_null_pointerIcEEbPT_
FN:152,_ZN9__gnu_cxx17__is_null_pointerIKcEEbPT_
FNDA:48622,_ZN9__gnu_cxx17__is_null_pointerIKcEEbPT_
DA:152,0
DA:153,0
DA:152,48622
DA:153,48622
end_of_record
SF:/usr/include/c++/9/bits/unique_ptr.h
FN:75,_ZNKSt14default_deleteINSt7__cxx1112basic_stringIcSt11char_traitsIcESaIcEEEEclEPS5_
FNDA:0,_ZNKSt14default_deleteINSt7__cxx1112basic_stringIcSt11char_traitsIcESaIcEEEEclEPS5_
FN:75,_ZNKSt14default_deleteINSt7__cxx1118basic_stringstreamIcSt11char_traitsIcESaIcEEEEclEPS5_
FNDA:4794,_ZNKSt14default_deleteINSt7__cxx1118basic_stringstreamIcSt11char_traitsIcESaIcEEEEclEPS5_
FN:153,_ZNSt15__uniq_ptr_implINSt7__cxx1112basic_stringIcSt11char_traitsIcESaIcEEESt14default_deleteIS5_EE6_M_ptrEv
FNDA:8541,_ZNSt15__uniq_ptr_implINSt7__cxx1112basic_stringIcSt11char_traitsIcESaIcEEESt14default_deleteIS5_EE6_M_ptrEv
FN:153,_ZNSt15__uniq_ptr_implINSt7__cxx1118basic_stringstreamIcSt11char_traitsIcESaIcEEESt14default_deleteIS5_EE6_M_ptrEv
FNDA:9588,_ZNSt15__uniq_ptr_implINSt7__cxx1118basic_stringstreamIcSt11char_traitsIcESaIcEEESt14default_deleteIS5_EE6_M_ptrEv
FN:154,_ZNKSt15__uniq_ptr_implINSt7__cxx1112basic_stringIcSt11char_traitsIcESaIcEEESt14default_deleteIS5_EE6_M_ptrEv
FNDA:0,_ZNKSt15__uniq_ptr_implINSt7__cxx1112basic_stringIcSt11char_traitsIcESaIcEEESt14default_deleteIS5_EE6_M_ptrEv
FN:155,_ZNSt15__uniq_ptr_implINSt7__cxx1112basic_stringIcSt11char_traitsIcESaIcEEESt14default_deleteIS5_EE10_M_deleterEv
FNDA:0,_ZNSt15__uniq_ptr_implINSt7__cxx1112basic_stringIcSt11char_traitsIcESaIcEEESt14default_deleteIS5_EE10_M_deleterEv
FN:155,_ZNSt15__uniq_ptr_implINSt7__cxx1118basic_stringstreamIcSt11char_traitsIcESaIcEEESt14default_deleteIS5_EE10_M_deleterEv
FNDA:4794,_ZNSt15__uniq_ptr_implINSt7__cxx1118basic_stringstreamIcSt11char_traitsIcESaIcEEESt14default_deleteIS5_EE10_M_deleterEv
FN:286,_ZNSt10unique_ptrINSt7__cxx1112basic_stringIcSt11char_traitsIcESaIcEEESt14default_deleteIS5_EED2Ev
FNDA:8541,_ZNSt10unique_ptrINSt7__cxx1112basic_stringIcSt11char_traitsIcESaIcEEESt14default_deleteIS5_EED2Ev
FN:286,_ZNSt10unique_ptrINSt7__cxx1118basic_stringstreamIcSt11char_traitsIcESaIcEEESt14default_deleteIS5_EED2Ev
FNDA:4794,_ZNSt10unique_ptrINSt7__cxx1118basic_stringstreamIcSt11char_traitsIcESaIcEEESt14default_deleteIS5_EED2Ev
FN:352,_ZNKSt10unique_ptrINSt7__cxx1112basic_stringIcSt11char_traitsIcESaIcEEESt14default_deleteIS5_EEptEv
FNDA:0,_ZNKSt10unique_ptrINSt7__cxx1112basic_stringIcSt11char_traitsIcESaIcEEESt14default_deleteIS5_EEptEv
FN:360,_ZNKSt10unique_ptrINSt7__cxx1112basic_stringIcSt11char_traitsIcESaIcEEESt14default_deleteIS5_EE3getEv
FNDA:0,_ZNKSt10unique_ptrINSt7__cxx1112basic_stringIcSt11char_traitsIcESaIcEEESt14default_deleteIS5_EE3getEv
FN:365,_ZNSt10unique_ptrINSt7__cxx1112basic_stringIcSt11char_traitsIcESaIcEEESt14default_deleteIS5_EE11get_deleterEv
FNDA:0,_ZNSt10unique_ptrINSt7__cxx1112basic_stringIcSt11char_traitsIcESaIcEEESt14default_deleteIS5_EE11get_deleterEv
FN:365,_ZNSt10unique_ptrINSt7__cxx1118basic_stringstreamIcSt11char_traitsIcESaIcEEESt14default_deleteIS5_EE11get_deleterEv
FNDA:4794,_ZNSt10unique_ptrINSt7__cxx1118basic_stringstreamIcSt11char_traitsIcESaIcEEESt14default_deleteIS5_EE11get_deleterEv
DA:75,0
DA:81,0
DA:82,0
DA:75,4794
DA:81,4794
DA:82,4794
DA:153,8541
DA:153,9588
DA:154,0
DA:155,0
DA:155,4794
DA:286,8541
DA:290,8541
DA:291,8541
DA:292,0
DA:293,8541
DA:294,8541
DA:286,4794
DA:290,4794
DA:291,4794
DA:292,4794
DA:293,4794
DA:294,4794
DA:352,0
DA:355,0
DA:360,0
DA:361,0
DA:365,0
DA:366,0
DA:365,4794
DA:366,4794
end_of_record
SF:/usr/include/c++/9/bits/stl_iterator_base_funcs.h
FN:98,_ZSt10__distanceIPcENSt15iterator_traitsIT_E15difference_typeES2_S2_St26random_access_iterator_tag
FNDA:0,_ZSt10__distanceIPcENSt15iterator_traitsIT_E15difference_typeES2_S2_St26random_access_iterator_tag
FN:98,_ZSt10__distanceIPKcENSt15iterator_traitsIT_E15difference_typeES3_S3_St26random_access_iterator_tag
FNDA:48622,_ZSt10__distanceIPKcENSt15iterator_traitsIT_E15difference_typeES3_S3_St26random_access_iterator_tag
FN:138,_ZSt8distanceIPcENSt15iterator_traitsIT_E15difference_typeES2_S2_
FNDA:0,_ZSt8distanceIPcENSt15iterator_traitsIT_E15difference_typeES2_S2_
FN:138,_ZSt8distanceIPKcENSt15iterator_traitsIT_E15difference_typeES3_S3_
FNDA:48622,_ZSt8distanceIPKcENSt15iterator_traitsIT_E15difference_typeES3_S3_
DA:98,0
DA:104,0
DA:98,48622
DA:104,48622
DA:138,0
DA:141,0
DA:142,0
DA:138,48622
DA:141,48622
DA:142,97244
end_of_record
SF:/usr/include/c++/9/bits/exception.h
FN:63,_ZNSt9exceptionC2Ev
FNDA:29,_ZNSt9exceptionC2Ev
DA:63,29
end_of_record
SF:/usr/include/c++/9/bits/move.h
FN:99,_ZSt4moveIRPNSt7__cxx1112basic_stringIcSt11char_traitsIcESaIcEEEEONSt16remove_referenceIT_E4typeEOS9_
FNDA:0,_ZSt4moveIRPNSt7__cxx1112basic_stringIcSt11char_traitsIcESaIcEEEEONSt16remove_referenceIT_E4typeEOS9_
FN:99,_ZSt4moveIRPNSt7__cxx1118basic_stringstreamIcSt11char_traitsIcESaIcEEEEONSt16remove_referenceIT_E4typeEOS9_
FNDA:4794,_ZSt4moveIRPNSt7__cxx1118basic_stringstreamIcSt11char_traitsIcESaIcEEEEONSt16remove_referenceIT_E4typeEOS9_
FN:99,_ZSt4moveIRSaIcEEONSt16remove_referenceIT_E4typeEOS3_
FNDA:0,_ZSt4moveIRSaIcEEONSt16remove_referenceIT_E4typeEOS3_
DA:99,0
DA:100,0
DA:99,4794
DA:100,4794
DA:99,0
DA:100,0
end_of_record
SF:/usr/local/include/gtest/gtest-message.h
end_of_record
SF:/usr/include/c++/9/tuple
FN:113,_ZNSt10_Head_baseILm1ESt14default_deleteINSt7__cxx1118basic_stringstreamIcSt11char_traitsIcESaIcEEEELb1EE7_M_headERS8_
FNDA:4794,_ZNSt10_Head_baseILm1ESt14default_deleteINSt7__cxx1118basic_stringstreamIcSt11char_traitsIcESaIcEEEELb1EE7_M_headERS8_
FN:113,_ZNSt10_Head_baseILm1ESt14default_deleteINSt7__cxx1112basic_stringIcSt11char_traitsIcESaIcEEEELb1EE7_M_headERS8_
FNDA:0,_ZNSt10_Head_baseILm1ESt14default_deleteINSt7__cxx1112basic_stringIcSt11char_traitsIcESaIcEEEELb1EE7_M_headERS8_
FN:160,_ZNSt10_Head_baseILm0EPNSt7__cxx1112basic_stringIcSt11char_traitsIcESaIcEEELb0EE7_M_headERS7_
FNDA:8541,_ZNSt10_Head_baseILm0EPNSt7__cxx1112basic_stringIcSt11char_traitsIcESaIcEEELb0EE7_M_headERS7_
FN:160,_ZNSt10_Head_baseILm0EPNSt7__cxx1118basic_stringstreamIcSt11char_traitsIcESaIcEEELb0EE7_M_headERS7_
FNDA:9588,_ZNSt10_Head_baseILm0EPNSt7__cxx1118basic_stringstreamIcSt11char_traitsIcESaIcEEELb0EE7_M_headERS7_
FN:163,_ZNSt10_Head_baseILm0EPNSt7__cxx1112basic_stringIcSt11char_traitsIcESaIcEEELb0EE7_M_headERKS7_
FNDA:0,_ZNSt10_Head_baseILm0EPNSt7__cxx1112basic_stringIcSt11char_traitsIcESaIcEEELb0EE7_M_headERKS7_
FN:195,_ZNSt11_Tuple_implILm0EJPNSt7__cxx1112basic_stringIcSt11char_traitsIcESaIcEEESt14default_deleteIS5_EEE7_M_headERS9_
FNDA:8541,_ZNSt11_Tuple_implILm0EJPNSt7__cxx1112basic_stringIcSt11char_traitsIcESaIcEEESt14default_deleteIS5_EEE7_M_headERS9_
FN:195,_ZNSt11_Tuple_implILm0EJPNSt7__cxx1118basic_stringstreamIcSt11char_traitsIcESaIcEEESt14default_deleteIS5_EEE7_M_headERS9_
FNDA:9588,_ZNSt11_Tuple_implILm0EJPNSt7__cxx1118basic_stringstreamIcSt11char_traitsIcESaIcEEESt14default_deleteIS5_EEE7_M_headERS9_
FN:198,_ZNSt11_Tuple_implILm0EJPNSt7__cxx1112basic_stringIcSt11char_traitsIcESaIcEEESt14default_deleteIS5_EEE7_M_headERKS9_
FNDA:0,_ZNSt11_Tuple_implILm0EJPNSt7__cxx1112basic_stringIcSt11char_traitsIcESaIcEEESt14default_deleteIS5_EEE7_M_headERKS9_
FN:334,_ZNSt11_Tuple_implILm1EJSt14default_deleteINSt7__cxx1112basic_stringIcSt11char_traitsIcESaIcEEEEEE7_M_headERS8_
FNDA:0,_ZNSt11_Tuple_implILm1EJSt14default_deleteINSt7__cxx1112basic_stringIcSt11char_traitsIcESaIcEEEEEE7_M_headERS8_
FN:334,_ZNSt11_Tuple_implILm1EJSt14default_deleteINSt7__cxx1118basic_stringstreamIcSt11char_traitsIcESaIcEEEEEE7_M_headERS8_
FNDA:4794,_ZNSt11_Tuple_implILm1EJSt14default_deleteINSt7__cxx1118basic_stringstreamIcSt11char_traitsIcESaIcEEEEEE7_M_headERS8_
FN:1309,_ZSt12__get_helperILm1ESt14default_deleteINSt7__cxx1118basic_stringstreamIcSt11char_traitsIcESaIcEEEEJEERT0_RSt11_Tuple_implIXT_EJS8_DpT1_EE
FNDA:4794,_ZSt12__get_helperILm1ESt14default_deleteINSt7__cxx1118basic_stringstreamIcSt11char_traitsIcESaIcEEEEJEERT0_RSt11_Tuple_implIXT_EJS8_DpT1_EE
FN:1309,_ZSt12__get_helperILm0EPNSt7__cxx1118basic_stringstreamIcSt11char_traitsIcESaIcEEEJSt14default_deleteIS5_EEERT0_RSt11_Tuple_implIXT_EJS9_DpT1_EE
FNDA:9588,_ZSt12__get_helperILm0EPNSt7__cxx1118basic_stringstreamIcSt11char_traitsIcESaIcEEEJSt14default_deleteIS5_EEERT0_RSt11_Tuple_implIXT_EJS9_DpT1_EE
FN:1309,_ZSt12__get_helperILm0EPNSt7__cxx1112basic_stringIcSt11char_traitsIcESaIcEEEJSt14default_deleteIS5_EEERT0_RSt11_Tuple_implIXT_EJS9_DpT1_EE
FNDA:8541,_ZSt12__get_helperILm0EPNSt7__cxx1112basic_stringIcSt11char_traitsIcESaIcEEEJSt14default_deleteIS5_EEERT0_RSt11_Tuple_implIXT_EJS9_DpT1_EE
FN:1309,_ZSt12__get_helperILm1ESt14default_deleteINSt7__cxx1112basic_stringIcSt11char_traitsIcESaIcEEEEJEERT0_RSt11_Tuple_implIXT_EJS8_DpT1_EE
FNDA:0,_ZSt12__get_helperILm1ESt14default_deleteINSt7__cxx1112basic_stringIcSt11char_traitsIcESaIcEEEEJEERT0_RSt11_Tuple_implIXT_EJS8_DpT1_EE
FN:1314,_ZSt12__get_helperILm0EPNSt7__cxx1112basic_stringIcSt11char_traitsIcESaIcEEEJSt14default_deleteIS5_EEERKT0_RKSt11_Tuple_implIXT_EJS9_DpT1_EE
FNDA:0,_ZSt12__get_helperILm0EPNSt7__cxx1112basic_stringIcSt11char_traitsIcESaIcEEEJSt14default_deleteIS5_EEERKT0_RKSt11_Tuple_implIXT_EJS9_DpT1_EE
FN:1320,_ZSt3getILm1EJPNSt7__cxx1112basic_stringIcSt11char_traitsIcESaIcEEESt14default_deleteIS5_EEERNSt13tuple_elementIXT_ESt5tupleIJDpT0_EEE4typeERSD_
FNDA:0,_ZSt3getILm1EJPNSt7__cxx1112basic_stringIcSt11char_traitsIcESaIcEEESt14default_deleteIS5_EEERNSt13tuple_elementIXT_ESt5tupleIJDpT0_EEE4typeERSD_
FN:1320,_ZSt3getILm1EJPNSt7__cxx1118basic_stringstreamIcSt11char_traitsIcESaIcEEESt14default_deleteIS5_EEERNSt13tuple_elementIXT_ESt5tupleIJDpT0_EEE4typeERSD_
FNDA:4794,_ZSt3getILm1EJPNSt7__cxx1118basic_stringstreamIcSt11char_traitsIcESaIcEEESt14default_deleteIS5_EEERNSt13tuple_elementIXT_ESt5tupleIJDpT0_EEE4typeERSD_
FN:1320,_ZSt3getILm0EJPNSt7__cxx1112basic_stringIcSt11char_traitsIcESaIcEEESt14default_deleteIS5_EEERNSt13tuple_elementIXT_ESt5tupleIJDpT0_EEE4typeERSD_
FNDA:8541,_ZSt3getILm0EJPNSt7__cxx1112basic_stringIcSt11char_traitsIcESaIcEEESt14default_deleteIS5_EEERNSt13tuple_elementIXT_ESt5tupleIJDpT0_EEE4typeERSD_
FN:1320,_ZSt3getILm0EJPNSt7__cxx1118basic_stringstreamIcSt11char_traitsIcESaIcEEESt14default_deleteIS5_EEERNSt13tuple_elementIXT_ESt5tupleIJDpT0_EEE4typeERSD_
FNDA:9588,_ZSt3getILm0EJPNSt7__cxx1118basic_stringstreamIcSt11char_traitsIcESaIcEEESt14default_deleteIS5_EEERNSt13tuple_elementIXT_ESt5tupleIJDpT0_EEE4typeERSD_
FN:1326,_ZSt3getILm0EJPNSt7__cxx1112basic_stringIcSt11char_traitsIcESaIcEEESt14default_deleteIS5_EEERKNSt13tuple_elementIXT_ESt5tupleIJDpT0_EEE4typeERKSD_
FNDA:0,_ZSt3getILm0EJPNSt7__cxx1112basic_stringIcSt11char_traitsIcESaIcEEESt14default_deleteIS5_EEERKNSt13tuple_elementIXT_ESt5tupleIJDpT0_EEE4typeERKSD_
DA:113,0
DA:113,4794
DA:160,8541
DA:160,9588
DA:163,0
DA:195,8541
DA:195,9588
DA:198,0
DA:334,0
DA:334,4794
DA:1309,0
DA:1310,0
DA:1309,4794
DA:1310,4794
DA:1309,8541
DA:1310,8541
DA:1309,9588
DA:1310,9588
DA:1314,0
DA:1315,0
DA:1320,0
DA:1321,0
DA:1320,4794
DA:1321,4794
DA:1320,8541
DA:1321,8541
DA:1320,9588
DA:1321,9588
DA:1326,0
DA:1327,0
end_of_record
TN:
SF:/usr/include/c++/9/bits/shared_ptr.h
FN:139,_ZNSt10shared_ptrIKN7testing16MatcherInterfaceIRKmEEEC2IS5_vEEPT_
FNDA:2729,_ZNSt10shared_ptrIKN7testing16MatcherInterfaceIRKmEEEC2IS5_vEEPT_
FN:139,_ZNSt10shared_ptrIKN7testing16MatcherInterfaceIRKdEEEC2IS5_vEEPT_
FNDA:5655,_ZNSt10shared_ptrIKN7testing16MatcherInterfaceIRKdEEEC2IS5_vEEPT_
FN:139,_ZNSt10shared_ptrIKN7testing16MatcherInterfaceIRKNSt7__cxx1112basic_stringIcSt11char_traitsIcESaIcEEEEEEC2ISB_vEEPT_
FNDA:1,_ZNSt10shared_ptrIKN7testing16MatcherInterfaceIRKNSt7__cxx1112basic_stringIcSt11char_traitsIcESaIcEEEEEEC2ISB_vEEPT_
DA:139,2729
DA:139,5655
DA:139,1
end_of_record
SF:/usr/local/include/gtest/internal/gtest-internal.h
FN:442,_ZN7testing8internal15TestFactoryBaseD0Ev
FNDA:0,_ZN7testing8internal15TestFactoryBaseD0Ev
FN:442,_ZN7testing8internal15TestFactoryBaseD2Ev
FNDA:0,_ZN7testing8internal15TestFactoryBaseD2Ev
FN:449,_ZN7testing8internal15TestFactoryBaseC2Ev
FNDA:0,_ZN7testing8internal15TestFactoryBaseC2Ev
FN:460,_ZN7testing8internal15TestFactoryImplI61TestThatIO_FindsROCSubdirectoryInCurrentWorkingDirectory_TestE10CreateTestEv
FNDA:1,_ZN7testing8internal15TestFactoryImplI61TestThatIO_FindsROCSubdirectoryInCurrentWorkingDirectory_TestE10CreateTestEv
FN:460,_ZN7testing8internal15TestFactoryImplI90TestThatIO_ThrowsExceptionWhenItDoesNotFindGivenSubdirectoryInCurrentWorkingDirectory_TestE10CreateTestEv
FNDA:1,_ZN7testing8internal15TestFactoryImplI90TestThatIO_ThrowsExceptionWhenItDoesNotFindGivenSubdirectoryInCurrentWorkingDirectory_TestE10CreateTestEv
FN:460,_ZN7testing8internal15TestFactoryImplI25TestThatIO_ReadsData_TestE10CreateTestEv
FNDA:1,_ZN7testing8internal15TestFactoryImplI25TestThatIO_ReadsData_TestE10CreateTestEv
FN:481,_ZN7testing8internal12CodeLocationC2ERKNSt7__cxx1112basic_stringIcSt11char_traitsIcESaIcEEEi
FNDA:0,_ZN7testing8internal12CodeLocationC2ERKNSt7__cxx1112basic_stringIcSt11char_traitsIcESaIcEEEi
FN:494,_ZN7testing8internal19GetNotDefaultOrNullEPFvvES2_
FNDA:0,_ZN7testing8internal19GetNotDefaultOrNullEPFvvES2_
FN:509,_ZN7testing8internal16SuiteApiResolverINS_4TestEE19GetSetUpCaseOrSuiteEPKci
FNDA:0,_ZN7testing8internal16SuiteApiResolverINS_4TestEE19GetSetUpCaseOrSuiteEPKci
FN:524,_ZN7testing8internal16SuiteApiResolverINS_4TestEE22GetTearDownCaseOrSuiteEPKci
FNDA:0,_ZN7testing8internal16SuiteApiResolverINS_4TestEE22GetTearDownCaseOrSuiteEPKci
FN:823,_ZN7testing8internal12ConstCharPtrC2EPKc
FNDA:30,_ZN7testing8internal12ConstCharPtrC2EPKc
FN:824,_ZNK7testing8internal12ConstCharPtrcvbEv
FNDA:30,_ZNK7testing8internal12ConstCharPtrcvbEv
DA:442,0
DA:442,0
DA:449,0
DA:460,1
DA:460,1
DA:460,1
DA:481,0
DA:482,0
DA:494,0
DA:496,0
DA:509,0
DA:512,0
DA:514,0
DA:516,0
DA:519,0
DA:521,0
DA:524,0
DA:527,0
DA:529,0
DA:531,0
DA:534,0
DA:536,0
DA:823,30
DA:824,30
end_of_record
SF:/usr/local/include/gtest/internal/gtest-type-util.h
FN:64,_ZN7testing8internal31CanonicalizeForStdLibVersioningENSt7__cxx1112basic_stringIcSt11char_traitsIcESaIcEEE
FNDA:0,_ZN7testing8internal31CanonicalizeForStdLibVersioningENSt7__cxx1112basic_stringIcSt11char_traitsIcESaIcEEE
FN:80,_ZN7testing8internal11GetTypeNameIKmEENSt7__cxx1112basic_stringIcSt11char_traitsIcESaIcEEEv
FNDA:0,_ZN7testing8internal11GetTypeNameIKmEENSt7__cxx1112basic_stringIcSt11char_traitsIcESaIcEEEv
FN:80,_ZN7testing8internal11GetTypeNameIKdEENSt7__cxx1112basic_stringIcSt11char_traitsIcESaIcEEEv
FNDA:0,_ZN7testing8internal11GetTypeNameIKdEENSt7__cxx1112basic_stringIcSt11char_traitsIcESaIcEEEv
FN:80,_ZN7testing8internal11GetTypeNameIKNSt7__cxx1112basic_stringIcSt11char_traitsIcESaIcEEEEES7_v
FNDA:0,_ZN7testing8internal11GetTypeNameIKNSt7__cxx1112basic_stringIcSt11char_traitsIcESaIcEEEEES7_v
DA:64,0
DA:66,0
DA:67,0
DA:68,0
DA:70,0
DA:73,0
DA:80,0
DA:83,0
DA:85,0
DA:91,0
DA:92,0
DA:93,0
DA:94,0
DA:80,0
DA:83,0
DA:85,0
DA:91,0
DA:92,0
DA:93,0
DA:94,0
DA:80,0
DA:83,0
DA:85,0
DA:91,0
DA:92,0
DA:93,0
DA:94,0
end_of_record
SF:/usr/include/c++/9/iomanip
FN:470,_ZSt6quotedIcSt11char_traitsIcESaIcEEDaRKNSt7__cxx1112basic_stringIT_T0_T1_EES5_S5_
FNDA:1,_ZSt6quotedIcSt11char_traitsIcESaIcEEDaRKNSt7__cxx1112basic_stringIT_T0_T1_EES5_S5_
DA:470,1
DA:475,1
end_of_record
SF:/usr/include/x86_64-linux-gnu/c++/9/bits/gthr-default.h
FN:248,_ZL18__gthread_active_pv
FNDA:17070,_ZL18__gthread_active_pv
DA:248,17070
DA:252,17070
end_of_record
SF:/usr/include/c++/9/bits/basic_string.tcc
FN:206,_ZNSt7__cxx1112basic_stringIcSt11char_traitsIcESaIcEE12_M_constructIPcEEvT_S7_St20forward_iterator_tag
FNDA:0,_ZNSt7__cxx1112basic_stringIcSt11char_traitsIcESaIcEE12_M_constructIPcEEvT_S7_St20forward_iterator_tag
FN:206,_ZNSt7__cxx1112basic_stringIcSt11char_traitsIcESaIcEE12_M_constructIPKcEEvT_S8_St20forward_iterator_tag
FNDA:0,_ZNSt7__cxx1112basic_stringIcSt11char_traitsIcESaIcEE12_M_constructIPKcEEvT_S8_St20forward_iterator_tag
DA:206,0
DA:211,0
DA:212,0
DA:215,0
DA:217,0
DA:219,0
DA:220,0
DA:225,0
DA:226,0
DA:228,0
DA:229,0
DA:232,0
DA:233,0
DA:206,0
DA:211,0
DA:212,0
DA:215,0
DA:217,0
DA:219,0
DA:220,0
DA:225,0
DA:226,0
DA:228,0
DA:229,0
DA:232,0
DA:233,0
end_of_record
SF:/usr/include/c++/9/ext/alloc_traits.h
FN:97,_ZN9__gnu_cxx14__alloc_traitsISaIcEcE17_S_select_on_copyERKS1_
FNDA:0,_ZN9__gnu_cxx14__alloc_traitsISaIcEcE17_S_select_on_copyERKS1_
DA:97,0
DA:98,0
end_of_record
SF:/usr/include/c++/9/bits/fs_path.h
FN:125,_ZNSt10filesystem7__cxx114path14_S_range_beginIPKcEET_S5_
FNDA:2,_ZNSt10filesystem7__cxx114path14_S_range_beginIPKcEET_S5_
FN:131,_ZNSt10filesystem7__cxx114path12_S_range_endIPKcEENS1_17__null_terminatedET_
FNDA:2,_ZNSt10filesystem7__cxx114path12_S_range_endIPKcEENS1_17__null_terminatedET_
FN:173,_ZNSt10filesystem7__cxx114pathC2Ev
FNDA:4,_ZNSt10filesystem7__cxx114pathC2Ev
FN:175,_ZNSt10filesystem7__cxx114pathC2ERKS1_
FNDA:2,_ZNSt10filesystem7__cxx114pathC2ERKS1_
FN:191,_ZNSt10filesystem7__cxx114pathC2IA10_cS1_EERKT_NS1_6formatE
FNDA:1,_ZNSt10filesystem7__cxx114pathC2IA10_cS1_EERKT_NS1_6formatE
FN:191,_ZNSt10filesystem7__cxx114pathC2IA5_cS1_EERKT_NS1_6formatE
FNDA:1,_ZNSt10filesystem7__cxx114pathC2IA5_cS1_EERKT_NS1_6formatE
FN:218,_ZNSt10filesystem7__cxx114pathD2Ev
FNDA:28,_ZNSt10filesystem7__cxx114pathD2Ev
FN:304,_ZNSt10filesystem7__cxx114path5clearEv
FNDA:1,_ZNSt10filesystem7__cxx114path5clearEv
FN:317,_ZNKSt10filesystem7__cxx114pathcvNSt7__cxx1112basic_stringIcSt11char_traitsIcESaIcEEEEv
FNDA:1,_ZNKSt10filesystem7__cxx114pathcvNSt7__cxx1112basic_stringIcSt11char_traitsIcESaIcEEEEv
FN:403,_ZNSt10filesystem7__cxx11lsIcSt11char_traitsIcEEERSt13basic_ostreamIT_T0_ES8_RKNS0_4pathE
FNDA:1,_ZNSt10filesystem7__cxx11lsIcSt11char_traitsIcEEERSt13basic_ostreamIT_T0_ES8_RKNS0_4pathE
FN:447,_ZNSt10filesystem7__cxx11dvERKNS0_4pathES3_
FNDA:2,_ZNSt10filesystem7__cxx11dvERKNS0_4pathES3_
FN:495,_ZNSt10filesystem7__cxx114path10_S_convertEPKcNS1_17__null_terminatedE
FNDA:2,_ZNSt10filesystem7__cxx114path10_S_convertEPKcNS1_17__null_terminatedE
FN:558,_ZNSt10filesystem7__cxx114path5_ListaSEOS2_
FNDA:1,_ZNSt10filesystem7__cxx114path5_ListaSEOS2_
FN:569,_ZNSt10filesystem7__cxx114path5_ListD2Ev
FNDA:28,_ZNSt10filesystem7__cxx114path5_ListD2Ev
FN:883,_ZNSt10filesystem7__cxx114pathaSEOS1_
FNDA:1,_ZNSt10filesystem7__cxx114pathaSEOS1_
FN:1012,_ZNKSt10filesystem7__cxx114path6stringIcSt11char_traitsIcESaIcEEENSt7__cxx1112basic_stringIT_T0_T1_EERKSA_
FNDA:1,_ZNKSt10filesystem7__cxx114path6stringIcSt11char_traitsIcESaIcEEENSt7__cxx1112basic_stringIT_T0_T1_EERKSA_
DA:125,2
DA:131,2
DA:173,4
DA:175,2
DA:191,1
DA:192,1
DA:193,2
DA:194,1
DA:191,1
DA:192,1
DA:193,2
DA:194,1
DA:218,28
DA:304,1
DA:317,1
DA:403,1
DA:405,1
DA:406,1
DA:447,2
DA:449,2
DA:450,2
DA:451,2
DA:495,2
DA:496,2
DA:558,1
DA:569,28
DA:883,1
DA:885,1
DA:886,0
DA:888,1
DA:889,1
DA:890,1
DA:891,1
DA:1012,1
DA:1015,1
end_of_record
SF:/usr/include/c++/9/bits/quoted_string.h
FN:55,_ZNSt8__detail14_Quoted_stringIRKNSt7__cxx1112basic_stringIcSt11char_traitsIcESaIcEEEcEC2ES8_cc
FNDA:1,_ZNSt8__detail14_Quoted_stringIRKNSt7__cxx1112basic_stringIcSt11char_traitsIcESaIcEEEcEC2ES8_cc
FN:117,_ZNSt8__detaillsIcSt11char_traitsIcERKNSt7__cxx1112basic_stringIcS2_SaIcEEEEERSt13basic_ostreamIT_T0_ESD_RKNS_14_Quoted_stringIT1_SA_EE
FNDA:1,_ZNSt8__detaillsIcSt11char_traitsIcERKNSt7__cxx1112basic_stringIcS2_SaIcEEEEERSt13basic_ostreamIT_T0_ESD_RKNS_14_Quoted_stringIT1_SA_EE
DA:55,1
DA:56,1
DA:57,1
DA:117,1
DA:120,1
DA:121,1
DA:122,37
DA:124,36
DA:125,0
DA:126,36
DA:128,1
DA:130,2
end_of_record
SF:/usr/local/include/gmock/gmock-matchers.h
FN:90,_ZN7testing25StringMatchResultListenerC2Ev
FNDA:0,_ZN7testing25StringMatchResultListenerC2Ev
FN:93,_ZNK7testing25StringMatchResultListener3strB5cxx11Ev
FNDA:0,_ZNK7testing25StringMatchResultListener3strB5cxx11Ev
FN:121,_ZN7testing8internal15MatcherCastImplIRKmNS0_9EqMatcherIiEEE4CastERKS5_
FNDA:2725,_ZN7testing8internal15MatcherCastImplIRKmNS0_9EqMatcherIiEEE4CastERKS5_
FN:121,_ZN7testing8internal15MatcherCastImplIRKdNS0_9GtMatcherIdEEE4CastERKS5_
FNDA:2673,_ZN7testing8internal15MatcherCastImplIRKdNS0_9GtMatcherIdEEE4CastERKS5_
FN:121,_ZN7testing8internal15MatcherCastImplIRKdNS0_9GeMatcherIdEEE4CastERKS5_
FNDA:2673,_ZN7testing8internal15MatcherCastImplIRKdNS0_9GeMatcherIdEEE4CastERKS5_
FN:121,_ZN7testing8internal15MatcherCastImplIRKNSt7__cxx1112basic_stringIcSt11char_traitsIcESaIcEEENS_18PolymorphicMatcherINS0_15EndsWithMatcherIS7_EEEEE4CastERKSD_
FNDA:1,_ZN7testing8internal15MatcherCastImplIRKNSt7__cxx1112basic_stringIcSt11char_traitsIcESaIcEEENS_18PolymorphicMatcherINS0_15EndsWithMatcherIS7_EEEEE4CastERKSD_
FN:142,_ZN7testing8internal15MatcherCastImplIRKmNS0_9EqMatcherIiEEE8CastImplILb0EEENS_7MatcherIS3_EERKS5_St17integral_constantIbLb1EESC_IbXT_EE
FNDA:2725,_ZN7testing8internal15MatcherCastImplIRKmNS0_9EqMatcherIiEEE8CastImplILb0EEENS_7MatcherIS3_EERKS5_St17integral_constantIbLb1EESC_IbXT_EE
FN:142,_ZN7testing8internal15MatcherCastImplIRKdNS0_9GtMatcherIdEEE8CastImplILb0EEENS_7MatcherIS3_EERKS5_St17integral_constantIbLb1EESC_IbXT_EE
FNDA:2673,_ZN7testing8internal15MatcherCastImplIRKdNS0_9GtMatcherIdEEE8CastImplILb0EEENS_7MatcherIS3_EERKS5_St17integral_constantIbLb1EESC_IbXT_EE
FN:142,_ZN7testing8internal15MatcherCastImplIRKdNS0_9GeMatcherIdEEE8CastImplILb0EEENS_7MatcherIS3_EERKS5_St17integral_constantIbLb1EESC_IbXT_EE
FNDA:2673,_ZN7testing8internal15MatcherCastImplIRKdNS0_9GeMatcherIdEEE8CastImplILb0EEENS_7MatcherIS3_EERKS5_St17integral_constantIbLb1EESC_IbXT_EE
FN:142,_ZN7testing8internal15MatcherCastImplIRKNSt7__cxx1112basic_stringIcSt11char_traitsIcESaIcEEENS_18PolymorphicMatcherINS0_15EndsWithMatcherIS7_EEEEE8CastImplILb0EEENS_7MatcherIS9_EERKSD_St17integral_constantIbLb1EESK_IbXT_EE
FNDA:1,_ZN7testing8internal15MatcherCastImplIRKNSt7__cxx1112basic_stringIcSt11char_traitsIcESaIcEEENS_18PolymorphicMatcherINS0_15EndsWithMatcherIS7_EEEEE8CastImplILb0EEENS_7MatcherIS9_EERKSD_St17integral_constantIbLb1EESK_IbXT_EE
FN:259,_ZN7testing19SafeMatcherCastImplIRKmE4CastINS_8internal9EqMatcherIiEEEENS_7MatcherIS2_EERKT_
FNDA:2725,_ZN7testing19SafeMatcherCastImplIRKmE4CastINS_8internal9EqMatcherIiEEEENS_7MatcherIS2_EERKT_
FN:259,_ZN7testing19SafeMatcherCastImplIRKNSt7__cxx1112basic_stringIcSt11char_traitsIcESaIcEEEE4CastINS_18PolymorphicMatcherINS_8internal15EndsWithMatcherIS6_EEEEEENS_7MatcherIS8_EERKT_
FNDA:1,_ZN7testing19SafeMatcherCastImplIRKNSt7__cxx1112basic_stringIcSt11char_traitsIcESaIcEEEE4CastINS_18PolymorphicMatcherINS_8internal15EndsWithMatcherIS6_EEEEEENS_7MatcherIS8_EERKT_
FN:259,_ZN7testing19SafeMatcherCastImplIRKdE4CastINS_8internal9GeMatcherIdEEEENS_7MatcherIS2_EERKT_
FNDA:2673,_ZN7testing19SafeMatcherCastImplIRKdE4CastINS_8internal9GeMatcherIdEEEENS_7MatcherIS2_EERKT_
FN:259,_ZN7testing19SafeMatcherCastImplIRKdE4CastINS_8internal9GtMatcherIdEEEENS_7MatcherIS2_EERKT_
FNDA:2673,_ZN7testing19SafeMatcherCastImplIRKdE4CastINS_8internal9GtMatcherIdEEEENS_7MatcherIS2_EERKT_
FN:297,_ZN7testing15SafeMatcherCastIRKmNS_8internal9EqMatcherIiEEEENS_7MatcherIT_EERKT0_
FNDA:2725,_ZN7testing15SafeMatcherCastIRKmNS_8internal9EqMatcherIiEEEENS_7MatcherIT_EERKT0_
FN:297,_ZN7testing15SafeMatcherCastIRKdNS_8internal9GtMatcherIdEEEENS_7MatcherIT_EERKT0_
FNDA:2673,_ZN7testing15SafeMatcherCastIRKdNS_8internal9GtMatcherIdEEEENS_7MatcherIT_EERKT0_
FN:297,_ZN7testing15SafeMatcherCastIRKNSt7__cxx1112basic_stringIcSt11char_traitsIcESaIcEEENS_18PolymorphicMatcherINS_8internal15EndsWithMatcherIS6_EEEEEENS_7MatcherIT_EERKT0_
FNDA:1,_ZN7testing15SafeMatcherCastIRKNSt7__cxx1112basic_stringIcSt11char_traitsIcESaIcEEENS_18PolymorphicMatcherINS_8internal15EndsWithMatcherIS6_EEEEEENS_7MatcherIT_EERKT0_
FN:297,_ZN7testing15SafeMatcherCastIRKdNS_8internal9GeMatcherIdEEEENS_7MatcherIT_EERKT0_
FNDA:2673,_ZN7testing15SafeMatcherCastIRKdNS_8internal9GeMatcherIdEEEENS_7MatcherIT_EERKT0_
FN:310,_ZN7testing8internal15PrintIfNotEmptyERKNSt7__cxx1112basic_stringIcSt11char_traitsIcESaIcEEEPSo
FNDA:0,_ZN7testing8internal15PrintIfNotEmptyERKNSt7__cxx1112basic_stringIcSt11char_traitsIcESaIcEEEPSo
FN:320,_ZN7testing8internal18IsReadableTypeNameERKNSt7__cxx1112basic_stringIcSt11char_traitsIcESaIcEEE
FNDA:0,_ZN7testing8internal18IsReadableTypeNameERKNSt7__cxx1112basic_stringIcSt11char_traitsIcESaIcEEE
FN:333,_ZN7testing8internal20MatchPrintAndExplainIKdRS2_EEbRT_RKNS_7MatcherIT0_EEPNS_19MatchResultListenerE
FNDA:0,_ZN7testing8internal20MatchPrintAndExplainIKdRS2_EEbRT_RKNS_7MatcherIT0_EEPNS_19MatchResultListenerE
FN:333,_ZN7testing8internal20MatchPrintAndExplainIKNSt7__cxx1112basic_stringIcSt11char_traitsIcESaIcEEERS8_EEbRT_RKNS_7MatcherIT0_EEPNS_19MatchResultListenerE
FNDA:0,_ZN7testing8internal20MatchPrintAndExplainIKNSt7__cxx1112basic_stringIcSt11char_traitsIcESaIcEEERS8_EEbRT_RKNS_7MatcherIT0_EEPNS_19MatchResultListenerE
FN:333,_ZN7testing8internal20MatchPrintAndExplainIKmRS2_EEbRT_RKNS_7MatcherIT0_EEPNS_19MatchResultListenerE
FNDA:0,_ZN7testing8internal20MatchPrintAndExplainIKmRS2_EEbRT_RKNS_7MatcherIT0_EEPNS_19MatchResultListenerE
FN:844,_ZN7testing8internal15EndsWithMatcherINSt7__cxx1112basic_stringIcSt11char_traitsIcESaIcEEEEC2ERKS7_
FNDA:1,_ZN7testing8internal15EndsWithMatcherINSt7__cxx1112basic_stringIcSt11char_traitsIcESaIcEEEEC2ERKS7_
FN:871,_ZNK7testing8internal15EndsWithMatcherINSt7__cxx1112basic_stringIcSt11char_traitsIcESaIcEEEE15MatchAndExplainIS7_EEbRKT_PNS_19MatchResultListenerE
FNDA:1,_ZNK7testing8internal15EndsWithMatcherINSt7__cxx1112basic_stringIcSt11char_traitsIcESaIcEEEE15MatchAndExplainIS7_EEbRKT_PNS_19MatchResultListenerE
FN:878,_ZNK7testing8internal15EndsWithMatcherINSt7__cxx1112basic_stringIcSt11char_traitsIcESaIcEEEE10DescribeToEPSo
FNDA:0,_ZNK7testing8internal15EndsWithMatcherINSt7__cxx1112basic_stringIcSt11char_traitsIcESaIcEEEE10DescribeToEPSo
FN:883,_ZNK7testing8internal15EndsWithMatcherINSt7__cxx1112basic_stringIcSt11char_traitsIcESaIcEEEE18DescribeNegationToEPSo
FNDA:0,_ZNK7testing8internal15EndsWithMatcherINSt7__cxx1112basic_stringIcSt11char_traitsIcESaIcEEEE18DescribeNegationToEPSo
FN:1295,_ZN7testing8internal29PredicateFormatterFromMatcherINS0_9EqMatcherIiEEEC2ES3_
FNDA:2775,_ZN7testing8internal29PredicateFormatterFromMatcherINS0_9EqMatcherIiEEEC2ES3_
FN:1295,_ZN7testing8internal29PredicateFormatterFromMatcherINS_18PolymorphicMatcherINS0_15EndsWithMatcherINSt7__cxx1112basic_stringIcSt11char_traitsIcESaIcEEEEEEEEC2ESB_
FNDA:1,_ZN7testing8internal29PredicateFormatterFromMatcherINS_18PolymorphicMatcherINS0_15EndsWithMatcherINSt7__cxx1112basic_stringIcSt11char_traitsIcESaIcEEEEEEEEC2ESB_
FN:1295,_ZN7testing8internal29PredicateFormatterFromMatcherINS0_9GtMatcherIdEEEC2ES3_
FNDA:2673,_ZN7testing8internal29PredicateFormatterFromMatcherINS0_9GtMatcherIdEEEC2ES3_
FN:1295,_ZN7testing8internal29PredicateFormatterFromMatcherINS0_9GeMatcherIdEEEC2ES3_
FNDA:2673,_ZN7testing8internal29PredicateFormatterFromMatcherINS0_9GeMatcherIdEEEC2ES3_
FN:1301,_ZNK7testing8internal29PredicateFormatterFromMatcherINS0_9GtMatcherIdEEEclIdEENS_15AssertionResultEPKcRKT_
FNDA:2673,_ZNK7testing8internal29PredicateFormatterFromMatcherINS0_9GtMatcherIdEEEclIdEENS_15AssertionResultEPKcRKT_
FN:1301,_ZNK7testing8internal29PredicateFormatterFromMatcherINS0_9GeMatcherIdEEEclIdEENS_15AssertionResultEPKcRKT_
FNDA:2673,_ZNK7testing8internal29PredicateFormatterFromMatcherINS0_9GeMatcherIdEEEclIdEENS_15AssertionResultEPKcRKT_
FN:1301,_ZNK7testing8internal29PredicateFormatterFromMatcherINS_18PolymorphicMatcherINS0_15EndsWithMatcherINSt7__cxx1112basic_stringIcSt11char_traitsIcESaIcEEEEEEEEclIS9_EENS_15AssertionResultEPKcRKT_
FNDA:1,_ZNK7testing8internal29PredicateFormatterFromMatcherINS_18PolymorphicMatcherINS0_15EndsWithMatcherINSt7__cxx1112basic_stringIcSt11char_traitsIcESaIcEEEEEEEEclIS9_EENS_15AssertionResultEPKcRKT_
FN:1301,_ZNK7testing8internal29PredicateFormatterFromMatcherINS0_9EqMatcherIiEEEclImEENS_15AssertionResultEPKcRKT_
FNDA:2725,_ZNK7testing8internal29PredicateFormatterFromMatcherINS0_9EqMatcherIiEEEclImEENS_15AssertionResultEPKcRKT_
FN:1348,_ZN7testing8internal33MakePredicateFormatterFromMatcherINS0_9EqMatcherIiEEEENS0_29PredicateFormatterFromMatcherIT_EES5_
FNDA:2775,_ZN7testing8internal33MakePredicateFormatterFromMatcherINS0_9EqMatcherIiEEEENS0_29PredicateFormatterFromMatcherIT_EES5_
FN:1348,_ZN7testing8internal33MakePredicateFormatterFromMatcherINS0_9GtMatcherIdEEEENS0_29PredicateFormatterFromMatcherIT_EES5_
FNDA:2673,_ZN7testing8internal33MakePredicateFormatterFromMatcherINS0_9GtMatcherIdEEEENS0_29PredicateFormatterFromMatcherIT_EES5_
FN:1348,_ZN7testing8internal33MakePredicateFormatterFromMatcherINS0_9GeMatcherIdEEEENS0_29PredicateFormatterFromMatcherIT_EES5_
FNDA:2673,_ZN7testing8internal33MakePredicateFormatterFromMatcherINS0_9GeMatcherIdEEEENS0_29PredicateFormatterFromMatcherIT_EES5_
FN:1348,_ZN7testing8internal33MakePredicateFormatterFromMatcherINS_18PolymorphicMatcherINS0_15EndsWithMatcherINSt7__cxx1112basic_stringIcSt11char_traitsIcESaIcEEEEEEEEENS0_29PredicateFormatterFromMatcherIT_EESD_
FNDA:1,_ZN7testing8internal33MakePredicateFormatterFromMatcherINS_18PolymorphicMatcherINS0_15EndsWithMatcherINSt7__cxx1112basic_stringIcSt11char_traitsIcESaIcEEEEEEEEENS0_29PredicateFormatterFromMatcherIT_EESD_
FN:3854,_ZN7testing8EndsWithERKNSt7__cxx1112basic_stringIcSt11char_traitsIcESaIcEEE
FNDA:1,_ZN7testing8EndsWithERKNSt7__cxx1112basic_stringIcSt11char_traitsIcESaIcEEE
DA:90,0
DA:93,0
DA:121,2725
DA:137,2725
DA:121,2673
DA:137,2673
DA:121,2673
DA:137,2673
DA:121,1
DA:137,1
DA:142,2725
DA:153,2725
DA:142,2673
DA:153,2673
DA:142,2673
DA:153,2673
DA:142,1
DA:153,1
DA:259,2725
DA:260,2725
DA:259,2673
DA:260,2673
DA:259,2673
DA:260,2673
DA:259,1
DA:260,1
DA:297,2725
DA:298,2725
DA:297,2673
DA:298,2673
DA:297,2673
DA:298,2673
DA:297,1
DA:298,1
DA:310,0
DA:312,0
DA:313,0
DA:315,0
DA:320,0
DA:323,0
DA:324,0
DA:333,0
DA:335,0
DA:338,0
DA:341,0
DA:342,0
DA:344,0
DA:346,0
DA:347,0
DA:348,0
DA:350,0
DA:352,0
DA:333,0
DA:335,0
DA:338,0
DA:341,0
DA:342,0
DA:344,0
DA:346,0
DA:347,0
DA:348,0
DA:350,0
DA:352,0
DA:333,0
DA:335,0
DA:338,0
DA:341,0
DA:342,0
DA:344,0
DA:346,0
DA:347,0
DA:348,0
DA:350,0
DA:352,0
DA:844,1
DA:871,1
DA:873,1
DA:874,2
DA:875,2
DA:878,0
DA:879,0
DA:880,0
DA:881,0
DA:883,0
DA:884,0
DA:885,0
DA:886,0
DA:1295,2775
DA:1295,2673
DA:1295,2673
DA:1295,1
DA:1301,2725
DA:1313,5450
DA:1317,2725
DA:1318,2725
DA:1321,0
DA:1323,0
DA:1324,0
DA:1327,0
DA:1328,0
DA:1329,0
DA:1332,0
DA:1333,0
DA:1301,2673
DA:1313,5346
DA:1317,2673
DA:1318,2673
DA:1321,0
DA:1323,0
DA:1324,0
DA:1327,0
DA:1328,0
DA:1329,0
DA:1332,0
DA:1333,0
DA:1301,2673
DA:1313,5346
DA:1317,2673
DA:1318,2673
DA:1321,0
DA:1323,0
DA:1324,0
DA:1327,0
DA:1328,0
DA:1329,0
DA:1332,0
DA:1333,0
DA:1301,1
DA:1313,2
DA:1317,1
DA:1318,1
DA:1321,0
DA:1323,0
DA:1324,0
DA:1327,0
DA:1328,0
DA:1329,0
DA:1332,0
DA:1333,0
DA:1348,2775
DA:1349,2775
DA:1348,2673
DA:1349,2673
DA:1348,2673
DA:1349,2673
DA:1348,1
DA:1349,1
DA:3854,1
DA:3856,2
end_of_record
SF:/usr/include/c++/9/bits/basic_string.h
FN:243,_ZNSt7__cxx1112basic_stringIcSt11char_traitsIcESaIcEE16_M_construct_auxIPcEEvT_S7_St12__false_type
FNDA:0,_ZNSt7__cxx1112basic_stringIcSt11char_traitsIcESaIcEE16_M_construct_auxIPcEEvT_S7_St12__false_type
FN:243,_ZNSt7__cxx1112basic_stringIcSt11char_traitsIcESaIcEE16_M_construct_auxIPKcEEvT_S8_St12__false_type
FNDA:0,_ZNSt7__cxx1112basic_stringIcSt11char_traitsIcESaIcEE16_M_construct_auxIPKcEEvT_S8_St12__false_type
FN:263,_ZNSt7__cxx1112basic_stringIcSt11char_traitsIcESaIcEE12_M_constructIPcEEvT_S7_
FNDA:0,_ZNSt7__cxx1112basic_stringIcSt11char_traitsIcESaIcEE12_M_constructIPcEEvT_S7_
FN:263,_ZNSt7__cxx1112basic_stringIcSt11char_traitsIcESaIcEE12_M_constructIPKcEEvT_S8_
FNDA:0,_ZNSt7__cxx1112basic_stringIcSt11char_traitsIcESaIcEE12_M_constructIPKcEEvT_S8_
FN:525,_ZNSt7__cxx1112basic_stringIcSt11char_traitsIcESaIcEEC2IS3_EEPKcRKS3_
FNDA:0,_ZNSt7__cxx1112basic_stringIcSt11char_traitsIcESaIcEEC2IS3_EEPKcRKS3_
FN:650,_ZNSt7__cxx1112basic_stringIcSt11char_traitsIcESaIcEEC2ISt17basic_string_viewIcS2_EvEERKT_RKS3_
FNDA:18,_ZNSt7__cxx1112basic_stringIcSt11char_traitsIcESaIcEEC2ISt17basic_string_viewIcS2_EvEERKT_RKS3_
FN:6149,_ZSteqIcEN9__gnu_cxx11__enable_ifIXsrSt9__is_charIT_E7__valueEbE6__typeERKNSt7__cxx1112basic_stringIS3_St11char_traitsIS3_ESaIS3_EEESE_
FNDA:1,_ZSteqIcEN9__gnu_cxx11__enable_ifIXsrSt9__is_charIT_E7__valueEbE6__typeERKNSt7__cxx1112basic_stringIS3_St11char_traitsIS3_ESaIS3_EEESE_
FN:6175,_ZSteqIcSt11char_traitsIcESaIcEEbRKNSt7__cxx1112basic_stringIT_T0_T1_EEPKS5_
FNDA:376,_ZSteqIcSt11char_traitsIcESaIcEEbRKNSt7__cxx1112basic_stringIT_T0_T1_EEPKS5_
FN:6213,_ZStneIcSt11char_traitsIcESaIcEEbRKNSt7__cxx1112basic_stringIT_T0_T1_EEPKS5_
FNDA:94,_ZStneIcSt11char_traitsIcESaIcEEbRKNSt7__cxx1112basic_stringIT_T0_T1_EEPKS5_
DA:243,0
DA:247,0
DA:248,0
DA:243,0
DA:247,0
DA:248,0
DA:263,0
DA:266,0
DA:267,0
DA:263,0
DA:266,0
DA:267,0
DA:525,0
DA:526,0
DA:527,0
DA:650,18
DA:651,18
DA:6149,1
DA:6151,1
DA:6152,1
DA:6153,1
DA:6175,376
DA:6177,376
DA:6213,94
DA:6215,94
end_of_record
SF:/usr/local/include/gtest/gtest-matchers.h
FN:85,_ZN7testing19MatchResultListenerC2EPSo
FNDA:8535,_ZN7testing19MatchResultListenerC2EPSo
FN:97,_ZN7testing19MatchResultListener6streamEv
FNDA:0,_ZN7testing19MatchResultListener6streamEv
FN:103,_ZNK7testing19MatchResultListener12IsInterestedEv
FNDA:0,_ZNK7testing19MatchResultListener12IsInterestedEv
FN:111,_ZN7testing19MatchResultListenerD2Ev
FNDA:8535,_ZN7testing19MatchResultListenerD2Ev
FN:111,_ZN7testing19MatchResultListenerD0Ev
FNDA:0,_ZN7testing19MatchResultListenerD0Ev
FN:118,_ZN7testing25MatcherDescriberInterfaceD2Ev
FNDA:8535,_ZN7testing25MatcherDescriberInterfaceD2Ev
FN:118,_ZN7testing25MatcherDescriberInterfaceD0Ev
FNDA:0,_ZN7testing25MatcherDescriberInterfaceD0Ev
FN:133,_ZNK7testing25MatcherDescriberInterface18DescribeNegationToEPSo
FNDA:0,_ZNK7testing25MatcherDescriberInterface18DescribeNegationToEPSo
FN:211,_ZNK7testing8internal5AnyEqclImiEEbRKT_RKT0_
FNDA:2725,_ZNK7testing8internal5AnyEqclImiEEbRKT_RKT0_
FN:223,_ZNK7testing8internal5AnyGtclIddEEbRKT_RKT0_
FNDA:2673,_ZNK7testing8internal5AnyGtclIddEEbRKT_RKT0_
FN:231,_ZNK7testing8internal5AnyGeclIddEEbRKT_RKT0_
FNDA:2673,_ZNK7testing8internal5AnyGeclIddEEbRKT_RKT0_
FN:237,_ZN7testing8internal24DummyMatchResultListenerC2Ev
FNDA:8535,_ZN7testing8internal24DummyMatchResultListenerC2Ev
FN:263,_ZNK7testing8internal11MatcherBaseIRKmE15MatchAndExplainES3_PNS_19MatchResultListenerE
FNDA:2729,_ZNK7testing8internal11MatcherBaseIRKmE15MatchAndExplainES3_PNS_19MatchResultListenerE
FN:263,_ZNK7testing8internal11MatcherBaseIRKNSt7__cxx1112basic_stringIcSt11char_traitsIcESaIcEEEE15MatchAndExplainES9_PNS_19MatchResultListenerE
FNDA:1,_ZNK7testing8internal11MatcherBaseIRKNSt7__cxx1112basic_stringIcSt11char_traitsIcESaIcEEEE15MatchAndExplainES9_PNS_19MatchResultListenerE
FN:263,_ZNK7testing8internal11MatcherBaseIRKdE15MatchAndExplainES3_PNS_19MatchResultListenerE
FNDA:5655,_ZNK7testing8internal11MatcherBaseIRKdE15MatchAndExplainES3_PNS_19MatchResultListenerE
FN:268,_ZNK7testing8internal11MatcherBaseIRKmE7MatchesES3_
FNDA:2729,_ZNK7testing8internal11MatcherBaseIRKmE7MatchesES3_
FN:268,_ZNK7testing8internal11MatcherBaseIRKNSt7__cxx1112basic_stringIcSt11char_traitsIcESaIcEEEE7MatchesES9_
FNDA:1,_ZNK7testing8internal11MatcherBaseIRKNSt7__cxx1112basic_stringIcSt11char_traitsIcESaIcEEEE7MatchesES9_
FN:268,_ZNK7testing8internal11MatcherBaseIRKdE7MatchesES3_
FNDA:5655,_ZNK7testing8internal11MatcherBaseIRKdE7MatchesES3_
FN:274,_ZNK7testing8internal11MatcherBaseIRKmE10DescribeToEPSo
FNDA:0,_ZNK7testing8internal11MatcherBaseIRKmE10DescribeToEPSo
FN:274,_ZNK7testing8internal11MatcherBaseIRKNSt7__cxx1112basic_stringIcSt11char_traitsIcESaIcEEEE10DescribeToEPSo
FNDA:0,_ZNK7testing8internal11MatcherBaseIRKNSt7__cxx1112basic_stringIcSt11char_traitsIcESaIcEEEE10DescribeToEPSo
FN:274,_ZNK7testing8internal11MatcherBaseIRKdE10DescribeToEPSo
FNDA:0,_ZNK7testing8internal11MatcherBaseIRKdE10DescribeToEPSo
FN:298,_ZN7testing8internal11MatcherBaseIRKNSt7__cxx1112basic_stringIcSt11char_traitsIcESaIcEEEEC2EPKNS_16MatcherInterfaceIS9_EE
FNDA:1,_ZN7testing8internal11MatcherBaseIRKNSt7__cxx1112basic_stringIcSt11char_traitsIcESaIcEEEEC2EPKNS_16MatcherInterfaceIS9_EE
FN:298,_ZN7testing8internal11MatcherBaseIRKmEC2EPKNS_16MatcherInterfaceIS3_EE
FNDA:2729,_ZN7testing8internal11MatcherBaseIRKmEC2EPKNS_16MatcherInterfaceIS3_EE
FN:298,_ZN7testing8internal11MatcherBaseIRKdEC2EPKNS_16MatcherInterfaceIS3_EE
FNDA:5655,_ZN7testing8internal11MatcherBaseIRKdEC2EPKNS_16MatcherInterfaceIS3_EE
FN:312,_ZN7testing8internal11MatcherBaseIRKdED0Ev
FNDA:0,_ZN7testing8internal11MatcherBaseIRKdED0Ev
FN:312,_ZN7testing8internal11MatcherBaseIRKmED0Ev
FNDA:0,_ZN7testing8internal11MatcherBaseIRKmED0Ev
FN:312,_ZN7testing8internal11MatcherBaseIRKmED2Ev
FNDA:2729,_ZN7testing8internal11MatcherBaseIRKmED2Ev
FN:312,_ZN7testing8internal11MatcherBaseIRKdED2Ev
FNDA:5655,_ZN7testing8internal11MatcherBaseIRKdED2Ev
FN:312,_ZN7testing8internal11MatcherBaseIRKNSt7__cxx1112basic_stringIcSt11char_traitsIcESaIcEEEED2Ev
FNDA:1,_ZN7testing8internal11MatcherBaseIRKNSt7__cxx1112basic_stringIcSt11char_traitsIcESaIcEEEED2Ev
FN:312,_ZN7testing8internal11MatcherBaseIRKNSt7__cxx1112basic_stringIcSt11char_traitsIcESaIcEEEED0Ev
FNDA:0,_ZN7testing8internal11MatcherBaseIRKNSt7__cxx1112basic_stringIcSt11char_traitsIcESaIcEEEED0Ev
FN:333,_ZN7testing7MatcherIRKmEC2EPKNS_16MatcherInterfaceIS2_EE
FNDA:2729,_ZN7testing7MatcherIRKmEC2EPKNS_16MatcherInterfaceIS2_EE
FN:333,_ZN7testing7MatcherIRKdEC2EPKNS_16MatcherInterfaceIS2_EE
FNDA:5655,_ZN7testing7MatcherIRKdEC2EPKNS_16MatcherInterfaceIS2_EE
FN:357,_ZN7testing7MatcherIRKNSt7__cxx1112basic_stringIcSt11char_traitsIcESaIcEEEEC2EPKNS_16MatcherInterfaceIS8_EE
FNDA:1,_ZN7testing7MatcherIRKNSt7__cxx1112basic_stringIcSt11char_traitsIcESaIcEEEEC2EPKNS_16MatcherInterfaceIS8_EE
FN:456,_ZN7testing18PolymorphicMatcherINS_8internal15EndsWithMatcherINSt7__cxx1112basic_stringIcSt11char_traitsIcESaIcEEEEEEC2ERKS9_
FNDA:1,_ZN7testing18PolymorphicMatcherINS_8internal15EndsWithMatcherINSt7__cxx1112basic_stringIcSt11char_traitsIcESaIcEEEEEEC2ERKS9_
FN:467,_ZNK7testing18PolymorphicMatcherINS_8internal15EndsWithMatcherINSt7__cxx1112basic_stringIcSt11char_traitsIcESaIcEEEEEEcvNS_7MatcherIT_EEIRKS8_EEv
FNDA:1,_ZNK7testing18PolymorphicMatcherINS_8internal15EndsWithMatcherINSt7__cxx1112basic_stringIcSt11char_traitsIcESaIcEEEEEEcvNS_7MatcherIT_EEIRKS8_EEv
FN:475,_ZN7testing18PolymorphicMatcherINS_8internal15EndsWithMatcherINSt7__cxx1112basic_stringIcSt11char_traitsIcESaIcEEEEEE15MonomorphicImplIRKS8_EC2ERKS9_
FNDA:1,_ZN7testing18PolymorphicMatcherINS_8internal15EndsWithMatcherINSt7__cxx1112basic_stringIcSt11char_traitsIcESaIcEEEEEE15MonomorphicImplIRKS8_EC2ERKS9_
FN:477,_ZNK7testing18PolymorphicMatcherINS_8internal15EndsWithMatcherINSt7__cxx1112basic_stringIcSt11char_traitsIcESaIcEEEEEE15MonomorphicImplIRKS8_E10DescribeToEPSo
FNDA:0,_ZNK7testing18PolymorphicMatcherINS_8internal15EndsWithMatcherINSt7__cxx1112basic_stringIcSt11char_traitsIcESaIcEEEEEE15MonomorphicImplIRKS8_E10DescribeToEPSo
FN:479,_ZNK7testing18PolymorphicMatcherINS_8internal15EndsWithMatcherINSt7__cxx1112basic_stringIcSt11char_traitsIcESaIcEEEEEE15MonomorphicImplIRKS8_E18DescribeNegationToEPSo
FNDA:0,_ZNK7testing18PolymorphicMatcherINS_8internal15EndsWithMatcherINSt7__cxx1112basic_stringIcSt11char_traitsIcESaIcEEEEEE15MonomorphicImplIRKS8_E18DescribeNegationToEPSo
FN:483,_ZNK7testing18PolymorphicMatcherINS_8internal15EndsWithMatcherINSt7__cxx1112basic_stringIcSt11char_traitsIcESaIcEEEEEE15MonomorphicImplIRKS8_E15MatchAndExplainESD_PNS_19MatchResultListenerE
FNDA:1,_ZNK7testing18PolymorphicMatcherINS_8internal15EndsWithMatcherINSt7__cxx1112basic_stringIcSt11char_traitsIcESaIcEEEEEE15MonomorphicImplIRKS8_E15MatchAndExplainESD_PNS_19MatchResultListenerE
FN:513,_ZN7testing22MakePolymorphicMatcherINS_8internal15EndsWithMatcherINSt7__cxx1112basic_stringIcSt11char_traitsIcESaIcEEEEEEENS_18PolymorphicMatcherIT_EERKSB_
FNDA:1,_ZN7testing22MakePolymorphicMatcherINS_8internal15EndsWithMatcherINSt7__cxx1112basic_stringIcSt11char_traitsIcESaIcEEEEEEENS_18PolymorphicMatcherIT_EERKSB_
FN:531,_ZN7testing8internal14ComparisonBaseINS0_9EqMatcherIiEEiNS0_5AnyEqEEC2ERKi
FNDA:2775,_ZN7testing8internal14ComparisonBaseINS0_9EqMatcherIiEEiNS0_5AnyEqEEC2ERKi
FN:531,_ZN7testing8internal14ComparisonBaseINS0_9GtMatcherIdEEdNS0_5AnyGtEEC2ERKd
FNDA:2673,_ZN7testing8internal14ComparisonBaseINS0_9GtMatcherIdEEdNS0_5AnyGtEEC2ERKd
FN:531,_ZN7testing8internal14ComparisonBaseINS0_9GeMatcherIdEEdNS0_5AnyGeEEC2ERKd
FNDA:2673,_ZN7testing8internal14ComparisonBaseINS0_9GeMatcherIdEEdNS0_5AnyGeEEC2ERKd
FN:533,_ZNK7testing8internal14ComparisonBaseINS0_9GeMatcherIdEEdNS0_5AnyGeEEcvNS_7MatcherIT_EEIRKdEEv
FNDA:2673,_ZNK7testing8internal14ComparisonBaseINS0_9GeMatcherIdEEdNS0_5AnyGeEEcvNS_7MatcherIT_EEIRKdEEv
FN:533,_ZNK7testing8internal14ComparisonBaseINS0_9GtMatcherIdEEdNS0_5AnyGtEEcvNS_7MatcherIT_EEIRKdEEv
FNDA:2673,_ZNK7testing8internal14ComparisonBaseINS0_9GtMatcherIdEEdNS0_5AnyGtEEcvNS_7MatcherIT_EEIRKdEEv
FN:533,_ZNK7testing8internal14ComparisonBaseINS0_9EqMatcherIiEEiNS0_5AnyEqEEcvNS_7MatcherIT_EEIRKmEEv
FNDA:2725,_ZNK7testing8internal14ComparisonBaseINS0_9EqMatcherIiEEiNS0_5AnyEqEEcvNS_7MatcherIT_EEIRKmEEv
FN:539,_ZN7testing8internal14ComparisonBaseINS0_9GeMatcherIdEEdNS0_5AnyGeEE6UnwrapIdEERKT_S9_
FNDA:2673,_ZN7testing8internal14ComparisonBaseINS0_9GeMatcherIdEEdNS0_5AnyGeEE6UnwrapIdEERKT_S9_
FN:539,_ZN7testing8internal14ComparisonBaseINS0_9EqMatcherIiEEiNS0_5AnyEqEE6UnwrapIiEERKT_S9_
FNDA:2775,_ZN7testing8internal14ComparisonBaseINS0_9EqMatcherIiEEiNS0_5AnyEqEE6UnwrapIiEERKT_S9_
FN:539,_ZN7testing8internal14ComparisonBaseINS0_9GtMatcherIdEEdNS0_5AnyGtEE6UnwrapIdEERKT_S9_
FNDA:2673,_ZN7testing8internal14ComparisonBaseINS0_9GtMatcherIdEEdNS0_5AnyGtEE6UnwrapIdEERKT_S9_
FN:546,_ZN7testing8internal14ComparisonBaseINS0_9EqMatcherIiEEiNS0_5AnyEqEE4ImplIRKmiEC2ERKi
FNDA:2725,_ZN7testing8internal14ComparisonBaseINS0_9EqMatcherIiEEiNS0_5AnyEqEE4ImplIRKmiEC2ERKi
FN:546,_ZN7testing8internal14ComparisonBaseINS0_9GtMatcherIdEEdNS0_5AnyGtEE4ImplIRKddEC2ES8_
FNDA:2673,_ZN7testing8internal14ComparisonBaseINS0_9GtMatcherIdEEdNS0_5AnyGtEE4ImplIRKddEC2ES8_
FN:546,_ZN7testing8internal14ComparisonBaseINS0_9GeMatcherIdEEdNS0_5AnyGeEE4ImplIRKddEC2ES8_
FNDA:2673,_ZN7testing8internal14ComparisonBaseINS0_9GeMatcherIdEEdNS0_5AnyGeEE4ImplIRKddEC2ES8_
FN:547,_ZNK7testing8internal14ComparisonBaseINS0_9EqMatcherIiEEiNS0_5AnyEqEE4ImplIRKmiE15MatchAndExplainES8_PNS_19MatchResultListenerE
FNDA:2725,_ZNK7testing8internal14ComparisonBaseINS0_9EqMatcherIiEEiNS0_5AnyEqEE4ImplIRKmiE15MatchAndExplainES8_PNS_19MatchResultListenerE
FN:547,_ZNK7testing8internal14ComparisonBaseINS0_9GtMatcherIdEEdNS0_5AnyGtEE4ImplIRKddE15MatchAndExplainES8_PNS_19MatchResultListenerE
FNDA:2673,_ZNK7testing8internal14ComparisonBaseINS0_9GtMatcherIdEEdNS0_5AnyGtEE4ImplIRKddE15MatchAndExplainES8_PNS_19MatchResultListenerE
FN:547,_ZNK7testing8internal14ComparisonBaseINS0_9GeMatcherIdEEdNS0_5AnyGeEE4ImplIRKddE15MatchAndExplainES8_PNS_19MatchResultListenerE
FNDA:2673,_ZNK7testing8internal14ComparisonBaseINS0_9GeMatcherIdEEdNS0_5AnyGeEE4ImplIRKddE15MatchAndExplainES8_PNS_19MatchResultListenerE
FN:551,_ZNK7testing8internal14ComparisonBaseINS0_9EqMatcherIiEEiNS0_5AnyEqEE4ImplIRKmiE10DescribeToEPSo
FNDA:0,_ZNK7testing8internal14ComparisonBaseINS0_9EqMatcherIiEEiNS0_5AnyEqEE4ImplIRKmiE10DescribeToEPSo
FN:551,_ZNK7testing8internal14ComparisonBaseINS0_9GtMatcherIdEEdNS0_5AnyGtEE4ImplIRKddE10DescribeToEPSo
FNDA:0,_ZNK7testing8internal14ComparisonBaseINS0_9GtMatcherIdEEdNS0_5AnyGtEE4ImplIRKddE10DescribeToEPSo
FN:551,_ZNK7testing8internal14ComparisonBaseINS0_9GeMatcherIdEEdNS0_5AnyGeEE4ImplIRKddE10DescribeToEPSo
FNDA:0,_ZNK7testing8internal14ComparisonBaseINS0_9GeMatcherIdEEdNS0_5AnyGeEE4ImplIRKddE10DescribeToEPSo
FN:555,_ZNK7testing8internal14ComparisonBaseINS0_9GeMatcherIdEEdNS0_5AnyGeEE4ImplIRKddE18DescribeNegationToEPSo
FNDA:0,_ZNK7testing8internal14ComparisonBaseINS0_9GeMatcherIdEEdNS0_5AnyGeEE4ImplIRKddE18DescribeNegationToEPSo
FN:555,_ZNK7testing8internal14ComparisonBaseINS0_9EqMatcherIiEEiNS0_5AnyEqEE4ImplIRKmiE18DescribeNegationToEPSo
FNDA:0,_ZNK7testing8internal14ComparisonBaseINS0_9EqMatcherIiEEiNS0_5AnyEqEE4ImplIRKmiE18DescribeNegationToEPSo
FN:555,_ZNK7testing8internal14ComparisonBaseINS0_9GtMatcherIdEEdNS0_5AnyGtEE4ImplIRKddE18DescribeNegationToEPSo
FNDA:0,_ZNK7testing8internal14ComparisonBaseINS0_9GtMatcherIdEEdNS0_5AnyGtEE4ImplIRKddE18DescribeNegationToEPSo
FN:569,_ZN7testing8internal9EqMatcherIiEC2ERKi
FNDA:2775,_ZN7testing8internal9EqMatcherIiEC2ERKi
FN:571,_ZN7testing8internal9EqMatcherIiE4DescEv
FNDA:0,_ZN7testing8internal9EqMatcherIiE4DescEv
FN:572,_ZN7testing8internal9EqMatcherIiE11NegatedDescEv
FNDA:0,_ZN7testing8internal9EqMatcherIiE11NegatedDescEv
FN:593,_ZN7testing8internal9GtMatcherIdEC2ERKd
FNDA:2673,_ZN7testing8internal9GtMatcherIdEC2ERKd
FN:595,_ZN7testing8internal9GtMatcherIdE4DescEv
FNDA:0,_ZN7testing8internal9GtMatcherIdE4DescEv
FN:596,_ZN7testing8internal9GtMatcherIdE11NegatedDescEv
FNDA:0,_ZN7testing8internal9GtMatcherIdE11NegatedDescEv
FN:609,_ZN7testing8internal9GeMatcherIdEC2ERKd
FNDA:2673,_ZN7testing8internal9GeMatcherIdEC2ERKd
FN:611,_ZN7testing8internal9GeMatcherIdE4DescEv
FNDA:0,_ZN7testing8internal9GeMatcherIdE4DescEv
FN:612,_ZN7testing8internal9GeMatcherIdE11NegatedDescEv
FNDA:0,_ZN7testing8internal9GeMatcherIdE11NegatedDescEv
FN:695,_ZN7testing2EqIiEENS_8internal9EqMatcherIT_EES3_
FNDA:2775,_ZN7testing2EqIiEENS_8internal9EqMatcherIT_EES3_
FN:719,_ZN7testing2GeIdEENS_8internal9GeMatcherIT_EES3_
FNDA:2673,_ZN7testing2GeIdEENS_8internal9GeMatcherIT_EES3_
FN:725,_ZN7testing2GtIdEENS_8internal9GtMatcherIT_EES3_
FNDA:2673,_ZN7testing2GtIdEENS_8internal9GtMatcherIT_EES3_
DA:85,8535
DA:97,0
DA:103,0
DA:111,0
DA:112,0
DA:111,8535
DA:112,8535
DA:118,0
DA:118,8535
DA:133,0
DA:134,0
DA:135,0
DA:136,0
DA:137,0
DA:211,2725
DA:223,2673
DA:231,2673
DA:237,8535
DA:263,2729
DA:264,2729
DA:263,5655
DA:264,5655
DA:263,1
DA:264,1
DA:268,2729
DA:269,2729
DA:270,5458
DA:268,5655
DA:269,5655
DA:270,11310
DA:268,1
DA:269,1
DA:270,2
DA:274,0
DA:274,0
DA:274,0
DA:298,2729
DA:298,5655
DA:298,1
DA:312,0
DA:312,2729
DA:312,0
DA:312,5655
DA:312,0
DA:312,1
DA:333,2729
DA:334,2729
DA:333,5655
DA:334,5655
DA:357,1
DA:358,1
DA:456,1
DA:467,1
DA:468,1
DA:475,1
DA:477,0
DA:479,0
DA:480,0
DA:481,0
DA:483,1
DA:484,1
DA:513,1
DA:514,1
DA:531,2775
DA:531,2673
DA:531,2673
DA:533,2725
DA:534,2725
DA:533,2673
DA:534,2673
DA:533,2673
DA:534,2673
DA:539,2673
DA:539,2673
DA:539,2775
DA:546,2725
DA:546,2673
DA:546,2673
DA:547,2673
DA:549,2673
DA:547,2673
DA:549,2673
DA:547,2725
DA:549,2725
DA:551,0
DA:552,0
DA:553,0
DA:554,0
DA:551,0
DA:552,0
DA:553,0
DA:554,0
DA:551,0
DA:552,0
DA:553,0
DA:554,0
DA:555,0
DA:556,0
DA:557,0
DA:558,0
DA:555,0
DA:556,0
DA:557,0
DA:558,0
DA:555,0
DA:556,0
DA:557,0
DA:558,0
DA:569,2775
DA:570,2775
DA:571,0
DA:572,0
DA:593,2673
DA:594,2673
DA:595,0
DA:596,0
DA:609,2673
DA:610,2673
DA:611,0
DA:612,0
DA:695,2775
DA:719,2673
DA:720,2673
DA:725,2673
DA:726,2673
end_of_record
SF:/usr/include/c++/9/bits/shared_ptr_base.h
FN:117,_ZNSt16_Sp_counted_baseILN9__gnu_cxx12_Lock_policyE2EEC2Ev
FNDA:8535,_ZNSt16_Sp_counted_baseILN9__gnu_cxx12_Lock_policyE2EEC2Ev
FN:121,_ZNSt16_Sp_counted_baseILN9__gnu_cxx12_Lock_policyE2EED2Ev
FNDA:8535,_ZNSt16_Sp_counted_baseILN9__gnu_cxx12_Lock_policyE2EED2Ev
FN:121,_ZNSt16_Sp_counted_baseILN9__gnu_cxx12_Lock_policyE2EED0Ev
FNDA:0,_ZNSt16_Sp_counted_baseILN9__gnu_cxx12_Lock_policyE2EED0Ev
FN:131,_ZNSt16_Sp_counted_baseILN9__gnu_cxx12_Lock_policyE2EE10_M_destroyEv
FNDA:0,_ZNSt16_Sp_counted_baseILN9__gnu_cxx12_Lock_policyE2EE10_M_destroyEv
FN:148,_ZNSt16_Sp_counted_baseILN9__gnu_cxx12_Lock_policyE2EE10_M_releaseEv
FNDA:8535,_ZNSt16_Sp_counted_baseILN9__gnu_cxx12_Lock_policyE2EE10_M_releaseEv
FN:372,_ZNSt15_Sp_counted_ptrIPKN7testing16MatcherInterfaceIRKNSt7__cxx1112basic_stringIcSt11char_traitsIcESaIcEEEEELN9__gnu_cxx12_Lock_policyE2EEC2ESC_
FNDA:1,_ZNSt15_Sp_counted_ptrIPKN7testing16MatcherInterfaceIRKNSt7__cxx1112basic_stringIcSt11char_traitsIcESaIcEEEEELN9__gnu_cxx12_Lock_policyE2EEC2ESC_
FN:372,_ZNSt15_Sp_counted_ptrIPKN7testing16MatcherInterfaceIRKmEELN9__gnu_cxx12_Lock_policyE2EEC2ES6_
FNDA:2729,_ZNSt15_Sp_counted_ptrIPKN7testing16MatcherInterfaceIRKmEELN9__gnu_cxx12_Lock_policyE2EEC2ES6_
FN:372,_ZNSt15_Sp_counted_ptrIPKN7testing16MatcherInterfaceIRKdEELN9__gnu_cxx12_Lock_policyE2EEC2ES6_
FNDA:5655,_ZNSt15_Sp_counted_ptrIPKN7testing16MatcherInterfaceIRKdEELN9__gnu_cxx12_Lock_policyE2EEC2ES6_
FN:376,_ZNSt15_Sp_counted_ptrIPKN7testing16MatcherInterfaceIRKNSt7__cxx1112basic_stringIcSt11char_traitsIcESaIcEEEEELN9__gnu_cxx12_Lock_policyE2EE10_M_disposeEv
FNDA:1,_ZNSt15_Sp_counted_ptrIPKN7testing16MatcherInterfaceIRKNSt7__cxx1112basic_stringIcSt11char_traitsIcESaIcEEEEELN9__gnu_cxx12_Lock_policyE2EE10_M_disposeEv
FN:376,_ZNSt15_Sp_counted_ptrIPKN7testing16MatcherInterfaceIRKdEELN9__gnu_cxx12_Lock_policyE2EE10_M_disposeEv
FNDA:5655,_ZNSt15_Sp_counted_ptrIPKN7testing16MatcherInterfaceIRKdEELN9__gnu_cxx12_Lock_policyE2EE10_M_disposeEv
FN:376,_ZNSt15_Sp_counted_ptrIPKN7testing16MatcherInterfaceIRKmEELN9__gnu_cxx12_Lock_policyE2EE10_M_disposeEv
FNDA:2729,_ZNSt15_Sp_counted_ptrIPKN7testing16MatcherInterfaceIRKmEELN9__gnu_cxx12_Lock_policyE2EE10_M_disposeEv
FN:380,_ZNSt15_Sp_counted_ptrIPKN7testing16MatcherInterfaceIRKNSt7__cxx1112basic_stringIcSt11char_traitsIcESaIcEEEEELN9__gnu_cxx12_Lock_policyE2EE10_M_destroyEv
FNDA:1,_ZNSt15_Sp_counted_ptrIPKN7testing16MatcherInterfaceIRKNSt7__cxx1112basic_stringIcSt11char_traitsIcESaIcEEEEELN9__gnu_cxx12_Lock_policyE2EE10_M_destroyEv
FN:380,_ZNSt15_Sp_counted_ptrIPKN7testing16MatcherInterfaceIRKdEELN9__gnu_cxx12_Lock_policyE2EE10_M_destroyEv
FNDA:5655,_ZNSt15_Sp_counted_ptrIPKN7testing16MatcherInterfaceIRKdEELN9__gnu_cxx12_Lock_policyE2EE10_M_destroyEv
FN:380,_ZNSt15_Sp_counted_ptrIPKN7testing16MatcherInterfaceIRKmEELN9__gnu_cxx12_Lock_policyE2EE10_M_destroyEv
FNDA:2729,_ZNSt15_Sp_counted_ptrIPKN7testing16MatcherInterfaceIRKmEELN9__gnu_cxx12_Lock_policyE2EE10_M_destroyEv
FN:384,_ZNSt15_Sp_counted_ptrIPKN7testing16MatcherInterfaceIRKNSt7__cxx1112basic_stringIcSt11char_traitsIcESaIcEEEEELN9__gnu_cxx12_Lock_policyE2EE14_M_get_deleterERKSt9type_info
FNDA:0,_ZNSt15_Sp_counted_ptrIPKN7testing16MatcherInterfaceIRKNSt7__cxx1112basic_stringIcSt11char_traitsIcESaIcEEEEELN9__gnu_cxx12_Lock_policyE2EE14_M_get_deleterERKSt9type_info
FN:384,_ZNSt15_Sp_counted_ptrIPKN7testing16MatcherInterfaceIRKdEELN9__gnu_cxx12_Lock_policyE2EE14_M_get_deleterERKSt9type_info
FNDA:0,_ZNSt15_Sp_counted_ptrIPKN7testing16MatcherInterfaceIRKdEELN9__gnu_cxx12_Lock_policyE2EE14_M_get_deleterERKSt9type_info
FN:384,_ZNSt15_Sp_counted_ptrIPKN7testing16MatcherInterfaceIRKmEELN9__gnu_cxx12_Lock_policyE2EE14_M_get_deleterERKSt9type_info
FNDA:0,_ZNSt15_Sp_counted_ptrIPKN7testing16MatcherInterfaceIRKmEELN9__gnu_cxx12_Lock_policyE2EE14_M_get_deleterERKSt9type_info
FN:621,_ZNSt14__shared_countILN9__gnu_cxx12_Lock_policyE2EEC2IPKN7testing16MatcherInterfaceIRKNSt7__cxx1112basic_stringIcSt11char_traitsIcESaIcEEEEEEET_
FNDA:1,_ZNSt14__shared_countILN9__gnu_cxx12_Lock_policyE2EEC2IPKN7testing16MatcherInterfaceIRKNSt7__cxx1112basic_stringIcSt11char_traitsIcESaIcEEEEEEET_
FN:621,_ZNSt14__shared_countILN9__gnu_cxx12_Lock_policyE2EEC2IPKN7testing16MatcherInterfaceIRKdEEEET_
FNDA:5655,_ZNSt14__shared_countILN9__gnu_cxx12_Lock_policyE2EEC2IPKN7testing16MatcherInterfaceIRKdEEEET_
FN:621,_ZNSt14__shared_countILN9__gnu_cxx12_Lock_policyE2EEC2IPKN7testing16MatcherInterfaceIRKmEEEET_
FNDA:2729,_ZNSt14__shared_countILN9__gnu_cxx12_Lock_policyE2EEC2IPKN7testing16MatcherInterfaceIRKmEEEET_
FN:635,_ZNSt14__shared_countILN9__gnu_cxx12_Lock_policyE2EEC2IPKN7testing16MatcherInterfaceIRKdEEEET_St17integral_constantIbLb0EE
FNDA:5655,_ZNSt14__shared_countILN9__gnu_cxx12_Lock_policyE2EEC2IPKN7testing16MatcherInterfaceIRKdEEEET_St17integral_constantIbLb0EE
FN:635,_ZNSt14__shared_countILN9__gnu_cxx12_Lock_policyE2EEC2IPKN7testing16MatcherInterfaceIRKmEEEET_St17integral_constantIbLb0EE
FNDA:2729,_ZNSt14__shared_countILN9__gnu_cxx12_Lock_policyE2EEC2IPKN7testing16MatcherInterfaceIRKmEEEET_St17integral_constantIbLb0EE
FN:635,_ZNSt14__shared_countILN9__gnu_cxx12_Lock_policyE2EEC2IPKN7testing16MatcherInterfaceIRKNSt7__cxx1112basic_stringIcSt11char_traitsIcESaIcEEEEEEET_St17integral_constantIbLb0EE
FNDA:1,_ZNSt14__shared_countILN9__gnu_cxx12_Lock_policyE2EEC2IPKN7testing16MatcherInterfaceIRKNSt7__cxx1112basic_stringIcSt11char_traitsIcESaIcEEEEEEET_St17integral_constantIbLb0EE
FN:727,_ZNSt14__shared_countILN9__gnu_cxx12_Lock_policyE2EED2Ev
FNDA:8535,_ZNSt14__shared_countILN9__gnu_cxx12_Lock_policyE2EED2Ev
FN:1012,_ZNKSt19__shared_ptr_accessIKN7testing16MatcherInterfaceIRKNSt7__cxx1112basic_stringIcSt11char_traitsIcESaIcEEEEELN9__gnu_cxx12_Lock_policyE2ELb0ELb0EEptEv
FNDA:1,_ZNKSt19__shared_ptr_accessIKN7testing16MatcherInterfaceIRKNSt7__cxx1112basic_stringIcSt11char_traitsIcESaIcEEEEELN9__gnu_cxx12_Lock_policyE2ELb0ELb0EEptEv
FN:1012,_ZNKSt19__shared_ptr_accessIKN7testing16MatcherInterfaceIRKdEELN9__gnu_cxx12_Lock_policyE2ELb0ELb0EEptEv
FNDA:5655,_ZNKSt19__shared_ptr_accessIKN7testing16MatcherInterfaceIRKdEELN9__gnu_cxx12_Lock_policyE2ELb0ELb0EEptEv
FN:1012,_ZNKSt19__shared_ptr_accessIKN7testing16MatcherInterfaceIRKmEELN9__gnu_cxx12_Lock_policyE2ELb0ELb0EEptEv
FNDA:2729,_ZNKSt19__shared_ptr_accessIKN7testing16MatcherInterfaceIRKmEELN9__gnu_cxx12_Lock_policyE2ELb0ELb0EEptEv
FN:1020,_ZNKSt19__shared_ptr_accessIKN7testing16MatcherInterfaceIRKmEELN9__gnu_cxx12_Lock_policyE2ELb0ELb0EE6_M_getEv
FNDA:2729,_ZNKSt19__shared_ptr_accessIKN7testing16MatcherInterfaceIRKmEELN9__gnu_cxx12_Lock_policyE2ELb0ELb0EE6_M_getEv
FN:1020,_ZNKSt19__shared_ptr_accessIKN7testing16MatcherInterfaceIRKdEELN9__gnu_cxx12_Lock_policyE2ELb0ELb0EE6_M_getEv
FNDA:5655,_ZNKSt19__shared_ptr_accessIKN7testing16MatcherInterfaceIRKdEELN9__gnu_cxx12_Lock_policyE2ELb0ELb0EE6_M_getEv
FN:1020,_ZNKSt19__shared_ptr_accessIKN7testing16MatcherInterfaceIRKNSt7__cxx1112basic_stringIcSt11char_traitsIcESaIcEEEEELN9__gnu_cxx12_Lock_policyE2ELb0ELb0EE6_M_getEv
FNDA:1,_ZNKSt19__shared_ptr_accessIKN7testing16MatcherInterfaceIRKNSt7__cxx1112basic_stringIcSt11char_traitsIcESaIcEEEEELN9__gnu_cxx12_Lock_policyE2ELb0ELb0EE6_M_getEv
FN:1124,_ZNSt12__shared_ptrIKN7testing16MatcherInterfaceIRKdEELN9__gnu_cxx12_Lock_policyE2EEC2IS5_vEEPT_
FNDA:5655,_ZNSt12__shared_ptrIKN7testing16MatcherInterfaceIRKdEELN9__gnu_cxx12_Lock_policyE2EEC2IS5_vEEPT_
FN:1124,_ZNSt12__shared_ptrIKN7testing16MatcherInterfaceIRKNSt7__cxx1112basic_stringIcSt11char_traitsIcESaIcEEEEELN9__gnu_cxx12_Lock_policyE2EEC2ISB_vEEPT_
FNDA:1,_ZNSt12__shared_ptrIKN7testing16MatcherInterfaceIRKNSt7__cxx1112basic_stringIcSt11char_traitsIcESaIcEEEEELN9__gnu_cxx12_Lock_policyE2EEC2ISB_vEEPT_
FN:1124,_ZNSt12__shared_ptrIKN7testing16MatcherInterfaceIRKmEELN9__gnu_cxx12_Lock_policyE2EEC2IS5_vEEPT_
FNDA:2729,_ZNSt12__shared_ptrIKN7testing16MatcherInterfaceIRKmEELN9__gnu_cxx12_Lock_policyE2EEC2IS5_vEEPT_
FN:1169,_ZNSt12__shared_ptrIKN7testing16MatcherInterfaceIRKmEELN9__gnu_cxx12_Lock_policyE2EED2Ev
FNDA:2729,_ZNSt12__shared_ptrIKN7testing16MatcherInterfaceIRKmEELN9__gnu_cxx12_Lock_policyE2EED2Ev
FN:1169,_ZNSt12__shared_ptrIKN7testing16MatcherInterfaceIRKdEELN9__gnu_cxx12_Lock_policyE2EED2Ev
FNDA:5655,_ZNSt12__shared_ptrIKN7testing16MatcherInterfaceIRKdEELN9__gnu_cxx12_Lock_policyE2EED2Ev
FN:1169,_ZNSt12__shared_ptrIKN7testing16MatcherInterfaceIRKNSt7__cxx1112basic_stringIcSt11char_traitsIcESaIcEEEEELN9__gnu_cxx12_Lock_policyE2EED2Ev
FNDA:1,_ZNSt12__shared_ptrIKN7testing16MatcherInterfaceIRKNSt7__cxx1112basic_stringIcSt11char_traitsIcESaIcEEEEELN9__gnu_cxx12_Lock_policyE2EED2Ev
FN:1309,_ZNKSt12__shared_ptrIKN7testing16MatcherInterfaceIRKNSt7__cxx1112basic_stringIcSt11char_traitsIcESaIcEEEEELN9__gnu_cxx12_Lock_policyE2EE3getEv
FNDA:1,_ZNKSt12__shared_ptrIKN7testing16MatcherInterfaceIRKNSt7__cxx1112basic_stringIcSt11char_traitsIcESaIcEEEEELN9__gnu_cxx12_Lock_policyE2EE3getEv
FN:1309,_ZNKSt12__shared_ptrIKN7testing16MatcherInterfaceIRKdEELN9__gnu_cxx12_Lock_policyE2EE3getEv
FNDA:5655,_ZNKSt12__shared_ptrIKN7testing16MatcherInterfaceIRKdEELN9__gnu_cxx12_Lock_policyE2EE3getEv
FN:1309,_ZNKSt12__shared_ptrIKN7testing16MatcherInterfaceIRKmEELN9__gnu_cxx12_Lock_policyE2EE3getEv
FNDA:2729,_ZNKSt12__shared_ptrIKN7testing16MatcherInterfaceIRKmEELN9__gnu_cxx12_Lock_policyE2EE3getEv
FN:1388,_ZNSt12__shared_ptrIKN7testing16MatcherInterfaceIRKNSt7__cxx1112basic_stringIcSt11char_traitsIcESaIcEEEEELN9__gnu_cxx12_Lock_policyE2EE31_M_enable_shared_from_this_withISB_SA_EENSt9enable_ifIXntsrNSE_15__has_esft_baseIT0_vEE5valueEvE4typeEPT_
FNDA:1,_ZNSt12__shared_ptrIKN7testing16MatcherInterfaceIRKNSt7__cxx1112basic_stringIcSt11char_traitsIcESaIcEEEEELN9__gnu_cxx12_Lock_policyE2EE31_M_enable_shared_from_this_withISB_SA_EENSt9enable_ifIXntsrNSE_15__has_esft_baseIT0_vEE5valueEvE4typeEPT_
FN:1388,_ZNSt12__shared_ptrIKN7testing16MatcherInterfaceIRKdEELN9__gnu_cxx12_Lock_policyE2EE31_M_enable_shared_from_this_withIS5_S4_EENSt9enable_ifIXntsrNS8_15__has_esft_baseIT0_vEE5valueEvE4typeEPT_
FNDA:5655,_ZNSt12__shared_ptrIKN7testing16MatcherInterfaceIRKdEELN9__gnu_cxx12_Lock_policyE2EE31_M_enable_shared_from_this_withIS5_S4_EENSt9enable_ifIXntsrNS8_15__has_esft_baseIT0_vEE5valueEvE4typeEPT_
FN:1388,_ZNSt12__shared_ptrIKN7testing16MatcherInterfaceIRKmEELN9__gnu_cxx12_Lock_policyE2EE31_M_enable_shared_from_this_withIS5_S4_EENSt9enable_ifIXntsrNS8_15__has_esft_baseIT0_vEE5valueEvE4typeEPT_
FNDA:2729,_ZNSt12__shared_ptrIKN7testing16MatcherInterfaceIRKmEELN9__gnu_cxx12_Lock_policyE2EE31_M_enable_shared_from_this_withIS5_S4_EENSt9enable_ifIXntsrNS8_15__has_esft_baseIT0_vEE5valueEvE4typeEPT_
DA:117,8535
DA:118,8535
DA:121,0
DA:122,0
DA:121,8535
DA:122,8535
DA:131,0
DA:132,0
DA:148,8535
DA:152,8535
DA:155,8535
DA:167,8535
DA:168,8535
DA:171,8535
DA:174,8535
DA:372,2729
DA:373,2729
DA:372,5655
DA:373,5655
DA:372,1
DA:373,1
DA:376,1
DA:377,1
DA:376,5655
DA:377,5655
DA:376,2729
DA:377,2729
DA:380,1
DA:381,1
DA:380,5655
DA:381,5655
DA:380,2729
DA:381,2729
DA:384,0
DA:385,0
DA:384,0
DA:385,0
DA:384,0
DA:385,0
DA:621,2729
DA:625,2729
DA:627,0
DA:629,0
DA:630,0
DA:632,2729
DA:621,5655
DA:625,5655
DA:627,0
DA:629,0
DA:630,0
DA:632,5655
DA:621,1
DA:625,1
DA:627,0
DA:629,0
DA:630,0
DA:632,1
DA:635,2729
DA:636,2729
DA:637,2729
DA:635,5655
DA:636,5655
DA:637,5655
DA:635,1
DA:636,1
DA:637,1
DA:727,8535
DA:729,8535
DA:730,8535
DA:731,8535
DA:1012,2729
DA:1015,2729
DA:1012,5655
DA:1015,5655
DA:1012,1
DA:1015,1
DA:1020,2729
DA:1021,2729
DA:1020,5655
DA:1021,5655
DA:1020,1
DA:1021,1
DA:1124,2729
DA:1125,2729
DA:1129,2729
DA:1130,2729
DA:1124,5655
DA:1125,5655
DA:1129,5655
DA:1130,5655
DA:1124,1
DA:1125,1
DA:1129,1
DA:1130,1
DA:1169,2729
DA:1169,5655
DA:1169,1
DA:1309,2729
DA:1310,2729
DA:1309,5655
DA:1310,5655
DA:1309,1
DA:1310,1
DA:1388,2729
DA:1389,2729
DA:1388,5655
DA:1389,5655
DA:1388,1
DA:1389,1
end_of_record
SF:/usr/include/c++/9/iostream
end_of_record
SF:/usr/include/c++/9/bits/stl_vector.h
FN:94,_ZNSt12_Vector_baseIdSaIdEE17_Vector_impl_dataC2Ev
FNDA:10789,_ZNSt12_Vector_baseIdSaIdEE17_Vector_impl_dataC2Ev
FN:106,_ZNSt12_Vector_baseIdSaIdEE17_Vector_impl_data12_M_copy_dataERKS2_
FNDA:16080,_ZNSt12_Vector_baseIdSaIdEE17_Vector_impl_data12_M_copy_dataERKS2_
FN:114,_ZNSt12_Vector_baseIdSaIdEE17_Vector_impl_data12_M_swap_dataERS2_
FNDA:5360,_ZNSt12_Vector_baseIdSaIdEE17_Vector_impl_data12_M_swap_dataERS2_
FN:128,_ZNSt12_Vector_baseIdSaIdEE12_Vector_implC2Ev
FNDA:2680,_ZNSt12_Vector_baseIdSaIdEE12_Vector_implC2Ev
FN:133,_ZNSt12_Vector_baseIdSaIdEE12_Vector_implC2ERKS0_
FNDA:2749,_ZNSt12_Vector_baseIdSaIdEE12_Vector_implC2ERKS0_
FN:273,_ZNSt12_Vector_baseIdSaIdEE19_M_get_Tp_allocatorEv
FNDA:48317,_ZNSt12_Vector_baseIdSaIdEE19_M_get_Tp_allocatorEv
FN:277,_ZNKSt12_Vector_baseIdSaIdEE19_M_get_Tp_allocatorEv
FNDA:40102,_ZNKSt12_Vector_baseIdSaIdEE19_M_get_Tp_allocatorEv
FN:281,_ZNKSt12_Vector_baseIdSaIdEE13get_allocatorEv
FNDA:2680,_ZNKSt12_Vector_baseIdSaIdEE13get_allocatorEv
FN:285,_ZNSt12_Vector_baseIdSaIdEEC2Ev
FNDA:2680,_ZNSt12_Vector_baseIdSaIdEEC2Ev
FN:290,_ZNSt12_Vector_baseIdSaIdEEC2ERKS0_
FNDA:2717,_ZNSt12_Vector_baseIdSaIdEEC2ERKS0_
FN:330,_ZNSt12_Vector_baseIdSaIdEED2Ev
FNDA:5429,_ZNSt12_Vector_baseIdSaIdEED2Ev
FN:347,_ZNSt12_Vector_baseIdSaIdEE13_M_deallocateEPdm
FNDA:24140,_ZNSt12_Vector_baseIdSaIdEE13_M_deallocateEPdm
FN:484,_ZNSt6vectorIdSaIdEEC2Ev
FNDA:2680,_ZNSt6vectorIdSaIdEEC2Ev
FN:494,_ZNSt6vectorIdSaIdEEC2ERKS0_
FNDA:2680,_ZNSt6vectorIdSaIdEEC2ERKS0_
FN:675,_ZNSt6vectorIdSaIdEED2Ev
FNDA:5429,_ZNSt6vectorIdSaIdEED2Ev
FN:706,_ZNSt6vectorIdSaIdEEaSEOS1_
FNDA:2680,_ZNSt6vectorIdSaIdEEaSEOS1_
FN:826,_ZNSt6vectorIdSaIdEE3endEv
FNDA:112266,_ZNSt6vectorIdSaIdEE3endEv
FN:915,_ZNKSt6vectorIdSaIdEE4sizeEv
FNDA:77831,_ZNKSt6vectorIdSaIdEE4sizeEv
FN:1140,_ZNSt6vectorIdSaIdEE4backEv
FNDA:93555,_ZNSt6vectorIdSaIdEE4backEv
FN:1222,_ZNSt6vectorIdSaIdEE8pop_backEv
FNDA:5346,_ZNSt6vectorIdSaIdEE8pop_backEv
FN:1812,_ZNSt6vectorIdSaIdEE14_M_move_assignEOS1_St17integral_constantIbLb1EE
FNDA:2680,_ZNSt6vectorIdSaIdEE14_M_move_assignEOS1_St17integral_constantIbLb1EE
DA:94,10789
DA:95,10789
DA:96,10789
DA:106,16080
DA:108,16080
DA:109,16080
DA:110,16080
DA:111,16080
DA:114,5360
DA:118,5360
DA:119,5360
DA:120,5360
DA:121,5360
DA:122,5360
DA:128,2680
DA:130,2680
DA:131,2680
DA:133,2749
DA:134,2749
DA:135,2749
DA:273,48317
DA:274,48317
DA:277,40102
DA:278,40102
DA:281,2680
DA:282,2680
DA:285,2680
DA:290,2717
DA:291,2717
DA:330,5429
DA:332,5429
DA:333,5429
DA:334,5429
DA:347,24140
DA:350,24140
DA:351,18780
DA:352,24140
DA:484,2680
DA:494,2680
DA:495,2680
DA:675,5429
DA:677,5429
DA:678,5429
DA:680,5429
DA:706,2680
DA:708,2680
DA:711,2680
DA:712,2680
DA:826,112266
DA:827,112266
DA:915,77831
DA:916,77831
DA:1140,93555
DA:1143,93555
DA:1222,5346
DA:1225,5346
DA:1226,5346
DA:1228,5346
DA:1812,2680
DA:1814,5360
DA:1815,2680
DA:1816,2680
DA:1817,2680
DA:1818,2680
end_of_record
SF:/usr/include/c++/9/ext/atomicity.h
FN:48,_ZN9__gnu_cxxL18__exchange_and_addEPVii
FNDA:17070,_ZN9__gnu_cxxL18__exchange_and_addEPVii
FN:65,_ZN9__gnu_cxxL25__exchange_and_add_singleEPii
FNDA:0,_ZN9__gnu_cxxL25__exchange_and_add_singleEPii
FN:78,_ZN9__gnu_cxxL27__exchange_and_add_dispatchEPii
FNDA:17070,_ZN9__gnu_cxxL27__exchange_and_add_dispatchEPii
DA:48,17070
DA:49,17070
DA:65,0
DA:67,0
DA:68,0
DA:69,0
DA:78,17070
DA:81,17070
DA:82,17070
DA:84,0
end_of_record
SF:/usr/include/c++/9/ext/type_traits.h
FN:152,_ZN9__gnu_cxx17__is_null_pointerIcEEbPT_
FNDA:0,_ZN9__gnu_cxx17__is_null_pointerIcEEbPT_
FN:152,_ZN9__gnu_cxx17__is_null_pointerIKcEEbPT_
FNDA:0,_ZN9__gnu_cxx17__is_null_pointerIKcEEbPT_
DA:152,0
DA:153,0
DA:152,0
DA:153,0
end_of_record
SF:/usr/include/c++/9/bits/char_traits.h
FN:100,_ZN9__gnu_cxx11char_traitsIcE2eqERKcS3_
FNDA:0,_ZN9__gnu_cxx11char_traitsIcE2eqERKcS3_
FN:104,_ZN9__gnu_cxx11char_traitsIcE2ltERKcS3_
FNDA:0,_ZN9__gnu_cxx11char_traitsIcE2ltERKcS3_
FN:148,_ZN9__gnu_cxx11char_traitsIcE7compareEPKcS3_m
FNDA:0,_ZN9__gnu_cxx11char_traitsIcE7compareEPKcS3_m
FN:161,_ZN9__gnu_cxx11char_traitsIcE6lengthEPKc
FNDA:0,_ZN9__gnu_cxx11char_traitsIcE6lengthEPKc
FN:315,_ZNSt11char_traitsIcE7compareEPKcS2_m
FNDA:1,_ZNSt11char_traitsIcE7compareEPKcS2_m
FN:329,_ZNSt11char_traitsIcE6lengthEPKc
FNDA:0,_ZNSt11char_traitsIcE6lengthEPKc
FN:361,_ZNSt11char_traitsIcE4copyEPcPKcm
FNDA:0,_ZNSt11char_traitsIcE4copyEPcPKcm
DA:100,0
DA:101,0
DA:104,0
DA:105,0
DA:148,0
DA:151,0
DA:152,0
DA:153,0
DA:154,0
DA:155,0
DA:156,0
DA:161,0
DA:164,0
DA:165,0
DA:166,0
DA:167,0
DA:236,0
DA:315,1
DA:317,1
DA:318,0
DA:320,1
DA:322,1
DA:323,0
DA:325,1
DA:329,0
DA:332,0
DA:333,0
DA:335,0
DA:361,0
DA:363,0
DA:364,0
DA:365,0
end_of_record
SF:/usr/include/c++/9/bits/alloc_traits.h
FN:469,_ZNSt16allocator_traitsISaIdEE10deallocateERS0_Pdm
FNDA:18780,_ZNSt16allocator_traitsISaIdEE10deallocateERS0_Pdm
FN:495,_ZNSt16allocator_traitsISaIdEE7destroyIdEEvRS0_PT_
FNDA:5346,_ZNSt16allocator_traitsISaIdEE7destroyIdEEvRS0_PT_
FN:514,_ZNSt16allocator_traitsISaIcEE37select_on_container_copy_constructionERKS0_
FNDA:0,_ZNSt16allocator_traitsISaIcEE37select_on_container_copy_constructionERKS0_
FN:545,_ZSt18__do_alloc_on_moveISaIdEEvRT_S2_St17integral_constantIbLb1EE
FNDA:2680,_ZSt18__do_alloc_on_moveISaIdEEvRT_S2_St17integral_constantIbLb1EE
FN:553,_ZSt15__alloc_on_moveISaIdEEvRT_S2_
FNDA:2680,_ZSt15__alloc_on_moveISaIdEEvRT_S2_
DA:469,18780
DA:470,18780
DA:495,5346
DA:497,5346
DA:514,0
DA:515,0
DA:545,2680
DA:546,2680
DA:553,2680
DA:557,2680
DA:558,2680
end_of_record
SF:/usr/local/include/gtest/internal/gtest-port.h
FN:957,_ZN7testing8internal8GTestLog9GetStreamEv
FNDA:0,_ZN7testing8internal8GTestLog9GetStreamEv
DA:957,0
end_of_record
SF:/usr/include/c++/9/bits/stl_iterator.h
FN:806,_ZN9__gnu_cxx17__normal_iteratorIPdSt6vectorIdSaIdEEEC2ERKS1_
FNDA:224532,_ZN9__gnu_cxx17__normal_iteratorIPdSt6vectorIdSaIdEEEC2ERKS1_
FN:819,_ZNK9__gnu_cxx17__normal_iteratorIPKcNSt7__cxx1112basic_stringIcSt11char_traitsIcESaIcEEEEdeEv
FNDA:36,_ZNK9__gnu_cxx17__normal_iteratorIPKcNSt7__cxx1112basic_stringIcSt11char_traitsIcESaIcEEEEdeEv
FN:819,_ZNK9__gnu_cxx17__normal_iteratorIPdSt6vectorIdSaIdEEEdeEv
FNDA:93555,_ZNK9__gnu_cxx17__normal_iteratorIPdSt6vectorIdSaIdEEEdeEv
FN:827,_ZN9__gnu_cxx17__normal_iteratorIPKcNSt7__cxx1112basic_stringIcSt11char_traitsIcESaIcEEEEppEv
FNDA:36,_ZN9__gnu_cxx17__normal_iteratorIPKcNSt7__cxx1112basic_stringIcSt11char_traitsIcESaIcEEEEppEv
FN:867,_ZNK9__gnu_cxx17__normal_iteratorIPdSt6vectorIdSaIdEEEmiEl
FNDA:93555,_ZNK9__gnu_cxx17__normal_iteratorIPdSt6vectorIdSaIdEEEmiEl
FN:871,_ZNK9__gnu_cxx17__normal_iteratorIPKcNSt7__cxx1112basic_stringIcSt11char_traitsIcESaIcEEEE4baseEv
FNDA:74,_ZNK9__gnu_cxx17__normal_iteratorIPKcNSt7__cxx1112basic_stringIcSt11char_traitsIcESaIcEEEE4baseEv
FN:907,_ZN9__gnu_cxxneIPKcNSt7__cxx1112basic_stringIcSt11char_traitsIcESaIcEEEEEbRKNS_17__normal_iteratorIT_T0_EESE_
FNDA:37,_ZN9__gnu_cxxneIPKcNSt7__cxx1112basic_stringIcSt11char_traitsIcESaIcEEEEEbRKNS_17__normal_iteratorIT_T0_EESE_
DA:806,224532
DA:807,224532
DA:819,36
DA:820,36
DA:819,93555
DA:820,93555
DA:827,36
DA:829,36
DA:830,36
DA:867,93555
DA:868,93555
DA:871,74
DA:872,74
DA:907,37
DA:910,37
end_of_record
SF:/usr/include/c++/9/tuple
FN:113,_ZNSt10_Head_baseILm1ESt14default_deleteINSt7__cxx1112basic_stringIcSt11char_traitsIcESaIcEEEELb1EE7_M_headERS8_
FNDA:0,_ZNSt10_Head_baseILm1ESt14default_deleteINSt7__cxx1112basic_stringIcSt11char_traitsIcESaIcEEEELb1EE7_M_headERS8_
FN:113,_ZNSt10_Head_baseILm1ESt14default_deleteINSt7__cxx1118basic_stringstreamIcSt11char_traitsIcESaIcEEEELb1EE7_M_headERS8_
FNDA:0,_ZNSt10_Head_baseILm1ESt14default_deleteINSt7__cxx1118basic_stringstreamIcSt11char_traitsIcESaIcEEEELb1EE7_M_headERS8_
FN:113,_ZNSt10_Head_baseILm1ENSt10filesystem7__cxx114path5_List13_Impl_deleterELb1EE7_M_headERS5_
FNDA:31,_ZNSt10_Head_baseILm1ENSt10filesystem7__cxx114path5_List13_Impl_deleterELb1EE7_M_headERS5_
FN:160,_ZNSt10_Head_baseILm0EPNSt10filesystem7__cxx114path5_List5_ImplELb0EE7_M_headERS6_
FNDA:30,_ZNSt10_Head_baseILm0EPNSt10filesystem7__cxx114path5_List5_ImplELb0EE7_M_headERS6_
FN:160,_ZNSt10_Head_baseILm0EPNSt7__cxx1112basic_stringIcSt11char_traitsIcESaIcEEELb0EE7_M_headERS7_
FNDA:0,_ZNSt10_Head_baseILm0EPNSt7__cxx1112basic_stringIcSt11char_traitsIcESaIcEEELb0EE7_M_headERS7_
FN:160,_ZNSt10_Head_baseILm0EPNSt7__cxx1118basic_stringstreamIcSt11char_traitsIcESaIcEEELb0EE7_M_headERS7_
FNDA:0,_ZNSt10_Head_baseILm0EPNSt7__cxx1118basic_stringstreamIcSt11char_traitsIcESaIcEEELb0EE7_M_headERS7_
FN:163,_ZNSt10_Head_baseILm0EPNSt7__cxx1118basic_stringstreamIcSt11char_traitsIcESaIcEEELb0EE7_M_headERKS7_
FNDA:46906,_ZNSt10_Head_baseILm0EPNSt7__cxx1118basic_stringstreamIcSt11char_traitsIcESaIcEEELb0EE7_M_headERKS7_
FN:163,_ZNSt10_Head_baseILm0EPNSt10filesystem7__cxx114path5_List5_ImplELb0EE7_M_headERKS6_
FNDA:84,_ZNSt10_Head_baseILm0EPNSt10filesystem7__cxx114path5_List5_ImplELb0EE7_M_headERKS6_
FN:163,_ZNSt10_Head_baseILm0EPNSt7__cxx1112basic_stringIcSt11char_traitsIcESaIcEEELb0EE7_M_headERKS7_
FNDA:0,_ZNSt10_Head_baseILm0EPNSt7__cxx1112basic_stringIcSt11char_traitsIcESaIcEEELb0EE7_M_headERKS7_
FN:195,_ZNSt11_Tuple_implILm0EJPNSt7__cxx1118basic_stringstreamIcSt11char_traitsIcESaIcEEESt14default_deleteIS5_EEE7_M_headERS9_
FNDA:0,_ZNSt11_Tuple_implILm0EJPNSt7__cxx1118basic_stringstreamIcSt11char_traitsIcESaIcEEESt14default_deleteIS5_EEE7_M_headERS9_
FN:195,_ZNSt11_Tuple_implILm0EJPNSt7__cxx1112basic_stringIcSt11char_traitsIcESaIcEEESt14default_deleteIS5_EEE7_M_headERS9_
FNDA:0,_ZNSt11_Tuple_implILm0EJPNSt7__cxx1112basic_stringIcSt11char_traitsIcESaIcEEESt14default_deleteIS5_EEE7_M_headERS9_
FN:195,_ZNSt11_Tuple_implILm0EJPNSt10filesystem7__cxx114path5_List5_ImplENS3_13_Impl_deleterEEE7_M_headERS7_
FNDA:30,_ZNSt11_Tuple_implILm0EJPNSt10filesystem7__cxx114path5_List5_ImplENS3_13_Impl_deleterEEE7_M_headERS7_
FN:198,_ZNSt11_Tuple_implILm0EJPNSt7__cxx1112basic_stringIcSt11char_traitsIcESaIcEEESt14default_deleteIS5_EEE7_M_headERKS9_
FNDA:0,_ZNSt11_Tuple_implILm0EJPNSt7__cxx1112basic_stringIcSt11char_traitsIcESaIcEEESt14default_deleteIS5_EEE7_M_headERKS9_
FN:198,_ZNSt11_Tuple_implILm0EJPNSt10filesystem7__cxx114path5_List5_ImplENS3_13_Impl_deleterEEE7_M_headERKS7_
FNDA:84,_ZNSt11_Tuple_implILm0EJPNSt10filesystem7__cxx114path5_List5_ImplENS3_13_Impl_deleterEEE7_M_headERKS7_
FN:198,_ZNSt11_Tuple_implILm0EJPNSt7__cxx1118basic_stringstreamIcSt11char_traitsIcESaIcEEESt14default_deleteIS5_EEE7_M_headERKS9_
FNDA:46906,_ZNSt11_Tuple_implILm0EJPNSt7__cxx1118basic_stringstreamIcSt11char_traitsIcESaIcEEESt14default_deleteIS5_EEE7_M_headERKS9_
FN:334,_ZNSt11_Tuple_implILm1EJSt14default_deleteINSt7__cxx1118basic_stringstreamIcSt11char_traitsIcESaIcEEEEEE7_M_headERS8_
FNDA:0,_ZNSt11_Tuple_implILm1EJSt14default_deleteINSt7__cxx1118basic_stringstreamIcSt11char_traitsIcESaIcEEEEEE7_M_headERS8_
FN:334,_ZNSt11_Tuple_implILm1EJSt14default_deleteINSt7__cxx1112basic_stringIcSt11char_traitsIcESaIcEEEEEE7_M_headERS8_
FNDA:0,_ZNSt11_Tuple_implILm1EJSt14default_deleteINSt7__cxx1112basic_stringIcSt11char_traitsIcESaIcEEEEEE7_M_headERS8_
FN:334,_ZNSt11_Tuple_implILm1EJNSt10filesystem7__cxx114path5_List13_Impl_deleterEEE7_M_headERS5_
FNDA:31,_ZNSt11_Tuple_implILm1EJNSt10filesystem7__cxx114path5_List13_Impl_deleterEEE7_M_headERS5_
FN:1309,_ZSt12__get_helperILm1ENSt10filesystem7__cxx114path5_List13_Impl_deleterEJEERT0_RSt11_Tuple_implIXT_EJS5_DpT1_EE
FNDA:31,_ZSt12__get_helperILm1ENSt10filesystem7__cxx114path5_List13_Impl_deleterEJEERT0_RSt11_Tuple_implIXT_EJS5_DpT1_EE
FN:1309,_ZSt12__get_helperILm0EPNSt7__cxx1118basic_stringstreamIcSt11char_traitsIcESaIcEEEJSt14default_deleteIS5_EEERT0_RSt11_Tuple_implIXT_EJS9_DpT1_EE
FNDA:0,_ZSt12__get_helperILm0EPNSt7__cxx1118basic_stringstreamIcSt11char_traitsIcESaIcEEEJSt14default_deleteIS5_EEERT0_RSt11_Tuple_implIXT_EJS9_DpT1_EE
FN:1309,_ZSt12__get_helperILm0EPNSt7__cxx1112basic_stringIcSt11char_traitsIcESaIcEEEJSt14default_deleteIS5_EEERT0_RSt11_Tuple_implIXT_EJS9_DpT1_EE
FNDA:0,_ZSt12__get_helperILm0EPNSt7__cxx1112basic_stringIcSt11char_traitsIcESaIcEEEJSt14default_deleteIS5_EEERT0_RSt11_Tuple_implIXT_EJS9_DpT1_EE
FN:1309,_ZSt12__get_helperILm0EPNSt10filesystem7__cxx114path5_List5_ImplEJNS3_13_Impl_deleterEEERT0_RSt11_Tuple_implIXT_EJS7_DpT1_EE
FNDA:30,_ZSt12__get_helperILm0EPNSt10filesystem7__cxx114path5_List5_ImplEJNS3_13_Impl_deleterEEERT0_RSt11_Tuple_implIXT_EJS7_DpT1_EE
FN:1309,_ZSt12__get_helperILm1ESt14default_deleteINSt7__cxx1118basic_stringstreamIcSt11char_traitsIcESaIcEEEEJEERT0_RSt11_Tuple_implIXT_EJS8_DpT1_EE
FNDA:0,_ZSt12__get_helperILm1ESt14default_deleteINSt7__cxx1118basic_stringstreamIcSt11char_traitsIcESaIcEEEEJEERT0_RSt11_Tuple_implIXT_EJS8_DpT1_EE
FN:1309,_ZSt12__get_helperILm1ESt14default_deleteINSt7__cxx1112basic_stringIcSt11char_traitsIcESaIcEEEEJEERT0_RSt11_Tuple_implIXT_EJS8_DpT1_EE
FNDA:0,_ZSt12__get_helperILm1ESt14default_deleteINSt7__cxx1112basic_stringIcSt11char_traitsIcESaIcEEEEJEERT0_RSt11_Tuple_implIXT_EJS8_DpT1_EE
FN:1314,_ZSt12__get_helperILm0EPNSt10filesystem7__cxx114path5_List5_ImplEJNS3_13_Impl_deleterEEERKT0_RKSt11_Tuple_implIXT_EJS7_DpT1_EE
FNDA:84,_ZSt12__get_helperILm0EPNSt10filesystem7__cxx114path5_List5_ImplEJNS3_13_Impl_deleterEEERKT0_RKSt11_Tuple_implIXT_EJS7_DpT1_EE
FN:1314,_ZSt12__get_helperILm0EPNSt7__cxx1118basic_stringstreamIcSt11char_traitsIcESaIcEEEJSt14default_deleteIS5_EEERKT0_RKSt11_Tuple_implIXT_EJS9_DpT1_EE
FNDA:46906,_ZSt12__get_helperILm0EPNSt7__cxx1118basic_stringstreamIcSt11char_traitsIcESaIcEEEJSt14default_deleteIS5_EEERKT0_RKSt11_Tuple_implIXT_EJS9_DpT1_EE
FN:1314,_ZSt12__get_helperILm0EPNSt7__cxx1112basic_stringIcSt11char_traitsIcESaIcEEEJSt14default_deleteIS5_EEERKT0_RKSt11_Tuple_implIXT_EJS9_DpT1_EE
FNDA:0,_ZSt12__get_helperILm0EPNSt7__cxx1112basic_stringIcSt11char_traitsIcESaIcEEEJSt14default_deleteIS5_EEERKT0_RKSt11_Tuple_implIXT_EJS9_DpT1_EE
FN:1320,_ZSt3getILm1EJPNSt10filesystem7__cxx114path5_List5_ImplENS3_13_Impl_deleterEEERNSt13tuple_elementIXT_ESt5tupleIJDpT0_EEE4typeERSB_
FNDA:31,_ZSt3getILm1EJPNSt10filesystem7__cxx114path5_List5_ImplENS3_13_Impl_deleterEEERNSt13tuple_elementIXT_ESt5tupleIJDpT0_EEE4typeERSB_
FN:1320,_ZSt3getILm1EJPNSt7__cxx1112basic_stringIcSt11char_traitsIcESaIcEEESt14default_deleteIS5_EEERNSt13tuple_elementIXT_ESt5tupleIJDpT0_EEE4typeERSD_
FNDA:0,_ZSt3getILm1EJPNSt7__cxx1112basic_stringIcSt11char_traitsIcESaIcEEESt14default_deleteIS5_EEERNSt13tuple_elementIXT_ESt5tupleIJDpT0_EEE4typeERSD_
FN:1320,_ZSt3getILm1EJPNSt7__cxx1118basic_stringstreamIcSt11char_traitsIcESaIcEEESt14default_deleteIS5_EEERNSt13tuple_elementIXT_ESt5tupleIJDpT0_EEE4typeERSD_
FNDA:0,_ZSt3getILm1EJPNSt7__cxx1118basic_stringstreamIcSt11char_traitsIcESaIcEEESt14default_deleteIS5_EEERNSt13tuple_elementIXT_ESt5tupleIJDpT0_EEE4typeERSD_
FN:1320,_ZSt3getILm0EJPNSt10filesystem7__cxx114path5_List5_ImplENS3_13_Impl_deleterEEERNSt13tuple_elementIXT_ESt5tupleIJDpT0_EEE4typeERSB_
FNDA:30,_ZSt3getILm0EJPNSt10filesystem7__cxx114path5_List5_ImplENS3_13_Impl_deleterEEERNSt13tuple_elementIXT_ESt5tupleIJDpT0_EEE4typeERSB_
FN:1320,_ZSt3getILm0EJPNSt7__cxx1112basic_stringIcSt11char_traitsIcESaIcEEESt14default_deleteIS5_EEERNSt13tuple_elementIXT_ESt5tupleIJDpT0_EEE4typeERSD_
FNDA:0,_ZSt3getILm0EJPNSt7__cxx1112basic_stringIcSt11char_traitsIcESaIcEEESt14default_deleteIS5_EEERNSt13tuple_elementIXT_ESt5tupleIJDpT0_EEE4typeERSD_
FN:1320,_ZSt3getILm0EJPNSt7__cxx1118basic_stringstreamIcSt11char_traitsIcESaIcEEESt14default_deleteIS5_EEERNSt13tuple_elementIXT_ESt5tupleIJDpT0_EEE4typeERSD_
FNDA:0,_ZSt3getILm0EJPNSt7__cxx1118basic_stringstreamIcSt11char_traitsIcESaIcEEESt14default_deleteIS5_EEERNSt13tuple_elementIXT_ESt5tupleIJDpT0_EEE4typeERSD_
FN:1326,_ZSt3getILm0EJPNSt7__cxx1118basic_stringstreamIcSt11char_traitsIcESaIcEEESt14default_deleteIS5_EEERKNSt13tuple_elementIXT_ESt5tupleIJDpT0_EEE4typeERKSD_
FNDA:46906,_ZSt3getILm0EJPNSt7__cxx1118basic_stringstreamIcSt11char_traitsIcESaIcEEESt14default_deleteIS5_EEERKNSt13tuple_elementIXT_ESt5tupleIJDpT0_EEE4typeERKSD_
FN:1326,_ZSt3getILm0EJPNSt10filesystem7__cxx114path5_List5_ImplENS3_13_Impl_deleterEEERKNSt13tuple_elementIXT_ESt5tupleIJDpT0_EEE4typeERKSB_
FNDA:84,_ZSt3getILm0EJPNSt10filesystem7__cxx114path5_List5_ImplENS3_13_Impl_deleterEEERKNSt13tuple_elementIXT_ESt5tupleIJDpT0_EEE4typeERKSB_
FN:1326,_ZSt3getILm0EJPNSt7__cxx1112basic_stringIcSt11char_traitsIcESaIcEEESt14default_deleteIS5_EEERKNSt13tuple_elementIXT_ESt5tupleIJDpT0_EEE4typeERKSD_
FNDA:0,_ZSt3getILm0EJPNSt7__cxx1112basic_stringIcSt11char_traitsIcESaIcEEESt14default_deleteIS5_EEERKNSt13tuple_elementIXT_ESt5tupleIJDpT0_EEE4typeERKSD_
DA:113,31
DA:113,0
DA:113,0
DA:160,30
DA:160,0
DA:160,0
DA:163,46906
DA:163,84
DA:163,0
DA:195,30
DA:195,0
DA:195,0
DA:198,46906
DA:198,84
DA:198,0
DA:334,31
DA:334,0
DA:334,0
DA:1309,31
DA:1310,31
DA:1309,0
DA:1310,0
DA:1309,0
DA:1310,0
DA:1309,30
DA:1310,30
DA:1309,0
DA:1310,0
DA:1309,0
DA:1310,0
DA:1314,46906
DA:1315,46906
DA:1314,84
DA:1315,84
DA:1314,0
DA:1315,0
DA:1320,31
DA:1321,31
DA:1320,0
DA:1321,0
DA:1320,0
DA:1321,0
DA:1320,30
DA:1321,30
DA:1320,0
DA:1321,0
DA:1320,0
DA:1321,0
DA:1326,46906
DA:1327,46906
DA:1326,84
DA:1327,84
DA:1326,0
DA:1327,0
end_of_record
SF:/usr/local/include/gtest/gtest-message.h
FN:112,_ZN7testing7MessagelsINSt7__cxx1112basic_stringIcSt11char_traitsIcESaIcEEEEERS0_RKT_
FNDA:0,_ZN7testing7MessagelsINSt7__cxx1112basic_stringIcSt11char_traitsIcESaIcEEEEERS0_RKT_
DA:112,0
DA:128,0
DA:129,0
end_of_record
SF:/usr/include/c++/9/bits/move.h
FN:74,_ZSt7forwardINSt10filesystem7__cxx114path5_List13_Impl_deleterEEOT_RNSt16remove_referenceIS5_E4typeE
FNDA:1,_ZSt7forwardINSt10filesystem7__cxx114path5_List13_Impl_deleterEEOT_RNSt16remove_referenceIS5_E4typeE
FN:99,_ZSt4moveIRSaIdEEONSt16remove_referenceIT_E4typeEOS3_
FNDA:2680,_ZSt4moveIRSaIdEEONSt16remove_referenceIT_E4typeEOS3_
FN:99,_ZSt4moveIRN7testing8internal9EqMatcherIiEEEONSt16remove_referenceIT_E4typeEOS6_
FNDA:5550,_ZSt4moveIRN7testing8internal9EqMatcherIiEEEONSt16remove_referenceIT_E4typeEOS6_
FN:99,_ZSt4moveIRN7testing8internal9GtMatcherIdEEEONSt16remove_referenceIT_E4typeEOS6_
FNDA:5346,_ZSt4moveIRN7testing8internal9GtMatcherIdEEEONSt16remove_referenceIT_E4typeEOS6_
FN:99,_ZSt4moveIRN7testing8internal9GeMatcherIdEEEONSt16remove_referenceIT_E4typeEOS6_
FNDA:5346,_ZSt4moveIRN7testing8internal9GeMatcherIdEEEONSt16remove_referenceIT_E4typeEOS6_
FN:99,_ZSt4moveIRSt6vectorIdSaIdEEEONSt16remove_referenceIT_E4typeEOS5_
FNDA:2680,_ZSt4moveIRSt6vectorIdSaIdEEEONSt16remove_referenceIT_E4typeEOS5_
FN:99,_ZSt4moveIRN7testing18PolymorphicMatcherINS0_8internal15EndsWithMatcherINSt7__cxx1112basic_stringIcSt11char_traitsIcESaIcEEEEEEEEONSt16remove_referenceIT_E4typeEOSE_
FNDA:2,_ZSt4moveIRN7testing18PolymorphicMatcherINS0_8internal15EndsWithMatcherINSt7__cxx1112basic_stringIcSt11char_traitsIcESaIcEEEEEEEEONSt16remove_referenceIT_E4typeEOSE_
FN:99,_ZSt4moveIRPNSt10filesystem7__cxx114path5_List5_ImplEEONSt16remove_referenceIT_E4typeEOS8_
FNDA:32,_ZSt4moveIRPNSt10filesystem7__cxx114path5_List5_ImplEEONSt16remove_referenceIT_E4typeEOS8_
FN:99,_ZSt4moveIRPNSt7__cxx1112basic_stringIcSt11char_traitsIcESaIcEEEEONSt16remove_referenceIT_E4typeEOS9_
FNDA:0,_ZSt4moveIRPNSt7__cxx1112basic_stringIcSt11char_traitsIcESaIcEEEEONSt16remove_referenceIT_E4typeEOS9_
FN:99,_ZSt4moveIRPNSt7__cxx1118basic_stringstreamIcSt11char_traitsIcESaIcEEEEONSt16remove_referenceIT_E4typeEOS9_
FNDA:0,_ZSt4moveIRPNSt7__cxx1118basic_stringstreamIcSt11char_traitsIcESaIcEEEEONSt16remove_referenceIT_E4typeEOS9_
FN:99,_ZSt4moveIRSaIcEEONSt16remove_referenceIT_E4typeEOS3_
FNDA:0,_ZSt4moveIRSaIcEEONSt16remove_referenceIT_E4typeEOS3_
FN:99,_ZSt4moveIRNSt10filesystem7__cxx114path5_ListEEONSt16remove_referenceIT_E4typeEOS6_
FNDA:1,_ZSt4moveIRNSt10filesystem7__cxx114path5_ListEEONSt16remove_referenceIT_E4typeEOS6_
FN:99,_ZSt4moveIRNSt7__cxx1112basic_stringIcSt11char_traitsIcESaIcEEEEONSt16remove_referenceIT_E4typeEOS8_
FNDA:11977,_ZSt4moveIRNSt7__cxx1112basic_stringIcSt11char_traitsIcESaIcEEEEONSt16remove_referenceIT_E4typeEOS8_
FN:182,_ZSt4swapIPNSt10filesystem7__cxx114path5_List5_ImplEENSt9enable_ifIXsrSt6__and_IJSt6__not_ISt15__is_tuple_likeIT_EESt21is_move_constructibleISA_ESt18is_move_assignableISA_EEE5valueEvE4typeERSA_SK_
FNDA:1,_ZSt4swapIPNSt10filesystem7__cxx114path5_List5_ImplEENSt9enable_ifIXsrSt6__and_IJSt6__not_ISt15__is_tuple_likeIT_EESt21is_move_constructibleISA_ESt18is_move_assignableISA_EEE5valueEvE4typeERSA_SK_
FN:182,_ZSt4swapIPNSt7__cxx1112basic_stringIcSt11char_traitsIcESaIcEEEENSt9enable_ifIXsrSt6__and_IJSt6__not_ISt15__is_tuple_likeIT_EESt21is_move_constructibleISB_ESt18is_move_assignableISB_EEE5valueEvE4typeERSB_SL_
FNDA:0,_ZSt4swapIPNSt7__cxx1112basic_stringIcSt11char_traitsIcESaIcEEEENSt9enable_ifIXsrSt6__and_IJSt6__not_ISt15__is_tuple_likeIT_EESt21is_move_constructibleISB_ESt18is_move_assignableISB_EEE5valueEvE4typeERSB_SL_
DA:74,1
DA:75,1
DA:99,2680
DA:100,2680
DA:99,5550
DA:100,5550
DA:99,5346
DA:100,5346
DA:99,5346
DA:100,5346
DA:99,2680
DA:100,2680
DA:99,2
DA:100,2
DA:99,32
DA:100,32
DA:99,0
DA:100,0
DA:99,0
DA:100,0
DA:99,0
DA:100,0
DA:99,1
DA:100,1
DA:99,11977
DA:100,11977
DA:182,1
DA:193,1
DA:194,1
DA:195,1
DA:196,1
DA:182,0
DA:193,0
DA:194,0
DA:195,0
DA:196,0
end_of_record
SF:/home/john/cse701/roc/test/ioTests.cpp
FN:15,_ZN61TestThatIO_FindsROCSubdirectoryInCurrentWorkingDirectory_Test8TestBodyEv
FNDA:1,_ZN61TestThatIO_FindsROCSubdirectoryInCurrentWorkingDirectory_Test8TestBodyEv
FN:15,_ZN61TestThatIO_FindsROCSubdirectoryInCurrentWorkingDirectory_TestC2Ev
FNDA:1,_ZN61TestThatIO_FindsROCSubdirectoryInCurrentWorkingDirectory_TestC2Ev
FN:22,_ZN90TestThatIO_ThrowsExceptionWhenItDoesNotFindGivenSubdirectoryInCurrentWorkingDirectory_Test8TestBodyEv
FNDA:1,_ZN90TestThatIO_ThrowsExceptionWhenItDoesNotFindGivenSubdirectoryInCurrentWorkingDirectory_Test8TestBodyEv
FN:22,_ZN90TestThatIO_ThrowsExceptionWhenItDoesNotFindGivenSubdirectoryInCurrentWorkingDirectory_TestC2Ev
FNDA:1,_ZN90TestThatIO_ThrowsExceptionWhenItDoesNotFindGivenSubdirectoryInCurrentWorkingDirectory_TestC2Ev
FN:30,_ZN25TestThatIO_ReadsData_Test8TestBodyEv
FNDA:1,_ZN25TestThatIO_ReadsData_Test8TestBodyEv
FN:30,_ZN25TestThatIO_ReadsData_TestC2Ev
FNDA:1,_ZN25TestThatIO_ReadsData_TestC2Ev
DA:15,1
DA:17,1
DA:18,1
DA:19,1
DA:15,1
DA:22,1
DA:26,1
DA:27,2
DA:22,1
DA:30,1
DA:32,2
DA:35,2
DA:36,1
DA:43,3
DA:45,2
DA:47,2
DA:54,2
DA:55,1
DA:56,1
DA:57,2
DA:58,1
DA:59,1
DA:60,1
DA:61,2674
DA:63,2673
DA:65,2673
DA:66,2673
DA:68,2673
DA:69,2673
DA:72,2673
DA:74,1
DA:75,1
DA:76,1
DA:77,1
DA:78,1
DA:80,2673
DA:81,2673
DA:82,2673
DA:84,1
DA:85,1
DA:30,1
end_of_record
SF:/usr/include/c++/9/bits/unique_ptr.h
FN:75,_ZNKSt14default_deleteINSt7__cxx1112basic_stringIcSt11char_traitsIcESaIcEEEEclEPS5_
FNDA:0,_ZNKSt14default_deleteINSt7__cxx1112basic_stringIcSt11char_traitsIcESaIcEEEEclEPS5_
FN:75,_ZNKSt14default_deleteINSt7__cxx1118basic_stringstreamIcSt11char_traitsIcESaIcEEEEclEPS5_
FNDA:0,_ZNKSt14default_deleteINSt7__cxx1118basic_stringstreamIcSt11char_traitsIcESaIcEEEEclEPS5_
FN:153,_ZNSt15__uniq_ptr_implINSt10filesystem7__cxx114path5_List5_ImplENS3_13_Impl_deleterEE6_M_ptrEv
FNDA:30,_ZNSt15__uniq_ptr_implINSt10filesystem7__cxx114path5_List5_ImplENS3_13_Impl_deleterEE6_M_ptrEv
FN:153,_ZNSt15__uniq_ptr_implINSt7__cxx1118basic_stringstreamIcSt11char_traitsIcESaIcEEESt14default_deleteIS5_EE6_M_ptrEv
FNDA:0,_ZNSt15__uniq_ptr_implINSt7__cxx1118basic_stringstreamIcSt11char_traitsIcESaIcEEESt14default_deleteIS5_EE6_M_ptrEv
FN:153,_ZNSt15__uniq_ptr_implINSt7__cxx1112basic_stringIcSt11char_traitsIcESaIcEEESt14default_deleteIS5_EE6_M_ptrEv
FNDA:0,_ZNSt15__uniq_ptr_implINSt7__cxx1112basic_stringIcSt11char_traitsIcESaIcEEESt14default_deleteIS5_EE6_M_ptrEv
FN:154,_ZNKSt15__uniq_ptr_implINSt7__cxx1118basic_stringstreamIcSt11char_traitsIcESaIcEEESt14default_deleteIS5_EE6_M_ptrEv
FNDA:46906,_ZNKSt15__uniq_ptr_implINSt7__cxx1118basic_stringstreamIcSt11char_traitsIcESaIcEEESt14default_deleteIS5_EE6_M_ptrEv
FN:154,_ZNKSt15__uniq_ptr_implINSt10filesystem7__cxx114path5_List5_ImplENS3_13_Impl_deleterEE6_M_ptrEv
FNDA:84,_ZNKSt15__uniq_ptr_implINSt10filesystem7__cxx114path5_List5_ImplENS3_13_Impl_deleterEE6_M_ptrEv
FN:154,_ZNKSt15__uniq_ptr_implINSt7__cxx1112basic_stringIcSt11char_traitsIcESaIcEEESt14default_deleteIS5_EE6_M_ptrEv
FNDA:0,_ZNKSt15__uniq_ptr_implINSt7__cxx1112basic_stringIcSt11char_traitsIcESaIcEEESt14default_deleteIS5_EE6_M_ptrEv
FN:155,_ZNSt15__uniq_ptr_implINSt7__cxx1112basic_stringIcSt11char_traitsIcESaIcEEESt14default_deleteIS5_EE10_M_deleterEv
FNDA:0,_ZNSt15__uniq_ptr_implINSt7__cxx1112basic_stringIcSt11char_traitsIcESaIcEEESt14default_deleteIS5_EE10_M_deleterEv
FN:155,_ZNSt15__uniq_ptr_implINSt7__cxx1118basic_stringstreamIcSt11char_traitsIcESaIcEEESt14default_deleteIS5_EE10_M_deleterEv
FNDA:0,_ZNSt15__uniq_ptr_implINSt7__cxx1118basic_stringstreamIcSt11char_traitsIcESaIcEEESt14default_deleteIS5_EE10_M_deleterEv
FN:155,_ZNSt15__uniq_ptr_implINSt10filesystem7__cxx114path5_List5_ImplENS3_13_Impl_deleterEE10_M_deleterEv
FNDA:31,_ZNSt15__uniq_ptr_implINSt10filesystem7__cxx114path5_List5_ImplENS3_13_Impl_deleterEE10_M_deleterEv
FN:286,_ZNSt10unique_ptrINSt7__cxx1118basic_stringstreamIcSt11char_traitsIcESaIcEEESt14default_deleteIS5_EED2Ev
FNDA:0,_ZNSt10unique_ptrINSt7__cxx1118basic_stringstreamIcSt11char_traitsIcESaIcEEESt14default_deleteIS5_EED2Ev
FN:286,_ZNSt10unique_ptrINSt7__cxx1112basic_stringIcSt11char_traitsIcESaIcEEESt14default_deleteIS5_EED2Ev
FNDA:0,_ZNSt10unique_ptrINSt7__cxx1112basic_stringIcSt11char_traitsIcESaIcEEESt14default_deleteIS5_EED2Ev
FN:286,_ZNSt10unique_ptrINSt10filesystem7__cxx114path5_List5_ImplENS3_13_Impl_deleterEED2Ev
FNDA:28,_ZNSt10unique_ptrINSt10filesystem7__cxx114path5_List5_ImplENS3_13_Impl_deleterEED2Ev
FN:305,_ZNSt10unique_ptrINSt10filesystem7__cxx114path5_List5_ImplENS3_13_Impl_deleterEEaSEOS6_
FNDA:1,_ZNSt10unique_ptrINSt10filesystem7__cxx114path5_List5_ImplENS3_13_Impl_deleterEEaSEOS6_
FN:344,_ZNKSt10unique_ptrINSt7__cxx1118basic_stringstreamIcSt11char_traitsIcESaIcEEESt14default_deleteIS5_EEdeEv
FNDA:42112,_ZNKSt10unique_ptrINSt7__cxx1118basic_stringstreamIcSt11char_traitsIcESaIcEEESt14default_deleteIS5_EEdeEv
FN:352,_ZNKSt10unique_ptrINSt7__cxx1112basic_stringIcSt11char_traitsIcESaIcEEESt14default_deleteIS5_EEptEv
FNDA:0,_ZNKSt10unique_ptrINSt7__cxx1112basic_stringIcSt11char_traitsIcESaIcEEESt14default_deleteIS5_EEptEv
FN:360,_ZNKSt10unique_ptrINSt7__cxx1118basic_stringstreamIcSt11char_traitsIcESaIcEEESt14default_deleteIS5_EE3getEv
FNDA:46906,_ZNKSt10unique_ptrINSt7__cxx1118basic_stringstreamIcSt11char_traitsIcESaIcEEESt14default_deleteIS5_EE3getEv
FN:360,_ZNKSt10unique_ptrINSt10filesystem7__cxx114path5_List5_ImplENS3_13_Impl_deleterEE3getEv
FNDA:84,_ZNKSt10unique_ptrINSt10filesystem7__cxx114path5_List5_ImplENS3_13_Impl_deleterEE3getEv
FN:360,_ZNKSt10unique_ptrINSt7__cxx1112basic_stringIcSt11char_traitsIcESaIcEEESt14default_deleteIS5_EE3getEv
FNDA:0,_ZNKSt10unique_ptrINSt7__cxx1112basic_stringIcSt11char_traitsIcESaIcEEESt14default_deleteIS5_EE3getEv
FN:365,_ZNSt10unique_ptrINSt7__cxx1118basic_stringstreamIcSt11char_traitsIcESaIcEEESt14default_deleteIS5_EE11get_deleterEv
FNDA:0,_ZNSt10unique_ptrINSt7__cxx1118basic_stringstreamIcSt11char_traitsIcESaIcEEESt14default_deleteIS5_EE11get_deleterEv
FN:365,_ZNSt10unique_ptrINSt7__cxx1112basic_stringIcSt11char_traitsIcESaIcEEESt14default_deleteIS5_EE11get_deleterEv
FNDA:0,_ZNSt10unique_ptrINSt7__cxx1112basic_stringIcSt11char_traitsIcESaIcEEESt14default_deleteIS5_EE11get_deleterEv
FN:365,_ZNSt10unique_ptrINSt10filesystem7__cxx114path5_List5_ImplENS3_13_Impl_deleterEE11get_deleterEv
FNDA:31,_ZNSt10unique_ptrINSt10filesystem7__cxx114path5_List5_ImplENS3_13_Impl_deleterEE11get_deleterEv
FN:381,_ZNSt10unique_ptrINSt10filesystem7__cxx114path5_List5_ImplENS3_13_Impl_deleterEE7releaseEv
FNDA:1,_ZNSt10unique_ptrINSt10filesystem7__cxx114path5_List5_ImplENS3_13_Impl_deleterEE7releaseEv
FN:395,_ZNSt10unique_ptrINSt7__cxx1112basic_stringIcSt11char_traitsIcESaIcEEESt14default_deleteIS5_EE5resetEPS5_
FNDA:0,_ZNSt10unique_ptrINSt7__cxx1112basic_stringIcSt11char_traitsIcESaIcEEESt14default_deleteIS5_EE5resetEPS5_
FN:395,_ZNSt10unique_ptrINSt10filesystem7__cxx114path5_List5_ImplENS3_13_Impl_deleterEE5resetEPS4_
FNDA:1,_ZNSt10unique_ptrINSt10filesystem7__cxx114path5_List5_ImplENS3_13_Impl_deleterEE5resetEPS4_
DA:75,0
DA:81,0
DA:82,0
DA:75,0
DA:81,0
DA:82,0
DA:153,30
DA:153,0
DA:153,0
DA:154,46906
DA:154,84
DA:154,0
DA:155,31
DA:155,0
DA:155,0
DA:286,28
DA:290,28
DA:291,28
DA:292,28
DA:293,28
DA:294,28
DA:286,0
DA:290,0
DA:291,0
DA:292,0
DA:293,0
DA:294,0
DA:286,0
DA:290,0
DA:291,0
DA:292,0
DA:293,0
DA:294,0
DA:305,1
DA:307,1
DA:308,1
DA:309,1
DA:344,42112
DA:347,42112
DA:352,0
DA:355,0
DA:360,46906
DA:361,46906
DA:360,84
DA:361,84
DA:360,0
DA:361,0
DA:365,31
DA:366,31
DA:365,0
DA:366,0
DA:365,0
DA:366,0
DA:381,1
DA:383,1
DA:384,1
DA:385,1
DA:395,1
DA:400,1
DA:401,1
DA:402,1
DA:403,1
DA:395,0
DA:400,0
DA:401,0
DA:402,0
DA:403,0
end_of_record
SF:/usr/include/c++/9/bits/stl_iterator_base_funcs.h
FN:98,_ZSt10__distanceIPcENSt15iterator_traitsIT_E15difference_typeES2_S2_St26random_access_iterator_tag
FNDA:0,_ZSt10__distanceIPcENSt15iterator_traitsIT_E15difference_typeES2_S2_St26random_access_iterator_tag
FN:98,_ZSt10__distanceIPKcENSt15iterator_traitsIT_E15difference_typeES3_S3_St26random_access_iterator_tag
FNDA:0,_ZSt10__distanceIPKcENSt15iterator_traitsIT_E15difference_typeES3_S3_St26random_access_iterator_tag
FN:138,_ZSt8distanceIPcENSt15iterator_traitsIT_E15difference_typeES2_S2_
FNDA:0,_ZSt8distanceIPcENSt15iterator_traitsIT_E15difference_typeES2_S2_
FN:138,_ZSt8distanceIPKcENSt15iterator_traitsIT_E15difference_typeES3_S3_
FNDA:0,_ZSt8distanceIPKcENSt15iterator_traitsIT_E15difference_typeES3_S3_
DA:98,0
DA:104,0
DA:98,0
DA:104,0
DA:138,0
DA:141,0
DA:142,0
DA:138,0
DA:141,0
DA:142,0
end_of_record
SF:/usr/include/c++/9/string_view
FN:123,_ZNSt17basic_string_viewIcSt11char_traitsIcEEC2EPKc
FNDA:2,_ZNSt17basic_string_viewIcSt11char_traitsIcEEC2EPKc
FN:173,_ZNKSt17basic_string_viewIcSt11char_traitsIcEE4sizeEv
FNDA:0,_ZNKSt17basic_string_viewIcSt11char_traitsIcEE4sizeEv
FN:228,_ZNKSt17basic_string_viewIcSt11char_traitsIcEE4dataEv
FNDA:0,_ZNKSt17basic_string_viewIcSt11char_traitsIcEE4dataEv
DA:123,2
DA:124,2
DA:125,2
DA:126,2
DA:173,0
DA:174,0
DA:228,0
DA:229,0
end_of_record
SF:/usr/local/include/gtest/gtest.h
FN:312,_ZNK7testing15AssertionResultcvbEv
FNDA:0,_ZNK7testing15AssertionResultcvbEv
FN:321,_ZNK7testing15AssertionResult7messageEv
FNDA:0,_ZNK7testing15AssertionResult7messageEv
FN:325,_ZNK7testing15AssertionResult15failure_messageEv
FNDA:0,_ZNK7testing15AssertionResult15failure_messageEv
FN:328,_ZN7testing15AssertionResultlsINSt7__cxx1112basic_stringIcSt11char_traitsIcESaIcEEEEERS0_RKT_
FNDA:0,_ZN7testing15AssertionResultlsINSt7__cxx1112basic_stringIcSt11char_traitsIcESaIcEEEEERS0_RKT_
FN:343,_ZN7testing15AssertionResult13AppendMessageERKNS_7MessageE
FNDA:0,_ZN7testing15AssertionResult13AppendMessageERKNS_7MessageE
FN:417,_ZN7testing4Test14SetUpTestSuiteEv
FNDA:0,_ZN7testing4Test14SetUpTestSuiteEv
FN:427,_ZN7testing4Test17TearDownTestSuiteEv
FNDA:0,_ZN7testing4Test17TearDownTestSuiteEv
FN:431,_ZN7testing4Test16TearDownTestCaseEv
FNDA:0,_ZN7testing4Test16TearDownTestCaseEv
FN:432,_ZN7testing4Test13SetUpTestCaseEv
FNDA:0,_ZN7testing4Test13SetUpTestCaseEv
FN:513,_ZN7testing4Test5SetupEv
FNDA:0,_ZN7testing4Test5SetupEv
DA:312,0
DA:321,0
DA:322,0
DA:325,0
DA:328,0
DA:329,0
DA:330,0
DA:343,0
DA:344,0
DA:345,0
DA:346,0
DA:417,0
DA:427,0
DA:431,0
DA:432,0
DA:513,0
end_of_record
SF:/usr/include/c++/9/bits/ios_base.h
FN:83,_ZStanSt13_Ios_FmtflagsS_
FNDA:4,_ZStanSt13_Ios_FmtflagsS_
FN:87,_ZStorSt13_Ios_FmtflagsS_
FNDA:2,_ZStorSt13_Ios_FmtflagsS_
FN:95,_ZStcoSt13_Ios_Fmtflags
FNDA:2,_ZStcoSt13_Ios_Fmtflags
FN:99,_ZStoRRSt13_Ios_FmtflagsS_
FNDA:2,_ZStoRRSt13_Ios_FmtflagsS_
FN:103,_ZStaNRSt13_Ios_FmtflagsS_
FNDA:2,_ZStaNRSt13_Ios_FmtflagsS_
FN:670,_ZNSt8ios_base4setfESt13_Ios_FmtflagsS0_
FNDA:2,_ZNSt8ios_base4setfESt13_Ios_FmtflagsS0_
FN:705,_ZNSt8ios_base9precisionEl
FNDA:2,_ZNSt8ios_base9precisionEl
FN:1056,_ZSt10scientificRSt8ios_base
FNDA:2,_ZSt10scientificRSt8ios_base
DA:83,4
DA:84,4
DA:87,2
DA:88,2
DA:95,2
DA:96,2
DA:99,2
DA:100,2
DA:103,2
DA:104,2
DA:670,2
DA:672,2
DA:673,2
DA:674,2
DA:675,2
DA:705,2
DA:707,2
DA:708,2
DA:709,2
DA:1056,2
DA:1058,2
DA:1059,2
end_of_record
SF:/usr/include/c++/9/bits/allocator.h
FN:138,_ZNSaIdEC2Ev
FNDA:2749,_ZNSaIdEC2Ev
FN:141,_ZNSaIdEC2ERKS_
FNDA:5498,_ZNSaIdEC2ERKS_
FN:153,_ZNSaIdED2Ev
FNDA:8247,_ZNSaIdED2Ev
DA:138,2749
DA:141,5498
DA:142,5498
DA:153,8247
end_of_record
SF:/usr/include/c++/9/bits/stl_construct.h
FN:117,_ZNSt12_Destroy_auxILb1EE9__destroyIPdEEvT_S3_
FNDA:5429,_ZNSt12_Destroy_auxILb1EE9__destroyIPdEEvT_S3_
FN:127,_ZSt8_DestroyIPdEvT_S1_
FNDA:5429,_ZSt8_DestroyIPdEvT_S1_
FN:203,_ZSt8_DestroyIPddEvT_S1_RSaIT0_E
FNDA:5429,_ZSt8_DestroyIPddEvT_S1_RSaIT0_E
DA:117,5429
DA:127,5429
DA:137,5429
DA:138,5429
DA:203,5429
DA:206,5429
DA:207,5429
end_of_record
SF:/usr/include/c++/9/ext/new_allocator.h
FN:80,_ZN9__gnu_cxx13new_allocatorIdEC2Ev
FNDA:2749,_ZN9__gnu_cxx13new_allocatorIdEC2Ev
FN:80,_ZN9__gnu_cxx13new_allocatorIcEC2Ev
FNDA:0,_ZN9__gnu_cxx13new_allocatorIcEC2Ev
FN:83,_ZN9__gnu_cxx13new_allocatorIdEC2ERKS1_
FNDA:5498,_ZN9__gnu_cxx13new_allocatorIdEC2ERKS1_
FN:83,_ZN9__gnu_cxx13new_allocatorIcEC2ERKS1_
FNDA:0,_ZN9__gnu_cxx13new_allocatorIcEC2ERKS1_
FN:89,_ZN9__gnu_cxx13new_allocatorIdED2Ev
FNDA:8247,_ZN9__gnu_cxx13new_allocatorIdED2Ev
FN:89,_ZN9__gnu_cxx13new_allocatorIcED2Ev
FNDA:0,_ZN9__gnu_cxx13new_allocatorIcED2Ev
FN:119,_ZN9__gnu_cxx13new_allocatorIdE10deallocateEPdm
FNDA:18780,_ZN9__gnu_cxx13new_allocatorIdE10deallocateEPdm
FN:151,_ZN9__gnu_cxx13new_allocatorIdE7destroyIdEEvPT_
FNDA:5346,_ZN9__gnu_cxx13new_allocatorIdE7destroyIdEEvPT_
DA:80,2749
DA:80,0
DA:83,5498
DA:83,0
DA:89,8247
DA:89,0
DA:119,18780
DA:128,18780
DA:151,5346
DA:153,5346
end_of_record
SF:/usr/local/include/gtest/gtest-printers.h
FN:260,_ZN16testing_internal26DefaultPrintNonContainerToIiEEvRKT_PSo
FNDA:0,_ZN16testing_internal26DefaultPrintNonContainerToIiEEvRKT_PSo
FN:260,_ZN16testing_internal26DefaultPrintNonContainerToImEEvRKT_PSo
FNDA:0,_ZN16testing_internal26DefaultPrintNonContainerToImEEvRKT_PSo
FN:260,_ZN16testing_internal26DefaultPrintNonContainerToIdEEvRKT_PSo
FNDA:0,_ZN16testing_internal26DefaultPrintNonContainerToIdEEvRKT_PSo
FN:466,_ZN7testing8internal14DefaultPrintToIiEEvNS0_15WrapPrinterTypeILNS0_18DefaultPrinterTypeE3EEERKT_PSo
FNDA:0,_ZN7testing8internal14DefaultPrintToIiEEvNS0_15WrapPrinterTypeILNS0_18DefaultPrinterTypeE3EEERKT_PSo
FN:466,_ZN7testing8internal14DefaultPrintToIdEEvNS0_15WrapPrinterTypeILNS0_18DefaultPrinterTypeE3EEERKT_PSo
FNDA:0,_ZN7testing8internal14DefaultPrintToIdEEvNS0_15WrapPrinterTypeILNS0_18DefaultPrinterTypeE3EEERKT_PSo
FN:466,_ZN7testing8internal14DefaultPrintToImEEvNS0_15WrapPrinterTypeILNS0_18DefaultPrinterTypeE3EEERKT_PSo
FNDA:0,_ZN7testing8internal14DefaultPrintToImEEvNS0_15WrapPrinterTypeILNS0_18DefaultPrinterTypeE3EEERKT_PSo
FN:483,_ZN7testing8internal7PrintToImEEvRKT_PSo
FNDA:0,_ZN7testing8internal7PrintToImEEvRKT_PSo
FN:483,_ZN7testing8internal7PrintToIdEEvRKT_PSo
FNDA:0,_ZN7testing8internal7PrintToIdEEvRKT_PSo
FN:483,_ZN7testing8internal7PrintToIiEEvRKT_PSo
FNDA:0,_ZN7testing8internal7PrintToIiEEvRKT_PSo
FN:594,_ZN7testing8internal7PrintToERKNSt7__cxx1112basic_stringIcSt11char_traitsIcESaIcEEEPSo
FNDA:0,_ZN7testing8internal7PrintToERKNSt7__cxx1112basic_stringIcSt11char_traitsIcESaIcEEEPSo
FN:670,_ZN7testing8internal16UniversalPrinterIiE5PrintERKiPSo
FNDA:0,_ZN7testing8internal16UniversalPrinterIiE5PrintERKiPSo
FN:670,_ZN7testing8internal16UniversalPrinterImE5PrintERKmPSo
FNDA:0,_ZN7testing8internal16UniversalPrinterImE5PrintERKmPSo
FN:670,_ZN7testing8internal16UniversalPrinterIdE5PrintERKdPSo
FNDA:0,_ZN7testing8internal16UniversalPrinterIdE5PrintERKdPSo
FN:670,_ZN7testing8internal16UniversalPrinterINSt7__cxx1112basic_stringIcSt11char_traitsIcESaIcEEEE5PrintERKS7_PSo
FNDA:0,_ZN7testing8internal16UniversalPrinterINSt7__cxx1112basic_stringIcSt11char_traitsIcESaIcEEEE5PrintERKS7_PSo
FN:865,_ZN7testing8internal14UniversalPrintIiEEvRKT_PSo
FNDA:0,_ZN7testing8internal14UniversalPrintIiEEvRKT_PSo
FN:865,_ZN7testing8internal14UniversalPrintImEEvRKT_PSo
FNDA:0,_ZN7testing8internal14UniversalPrintImEEvRKT_PSo
FN:865,_ZN7testing8internal14UniversalPrintIdEEvRKT_PSo
FNDA:0,_ZN7testing8internal14UniversalPrintIdEEvRKT_PSo
FN:865,_ZN7testing8internal14UniversalPrintINSt7__cxx1112basic_stringIcSt11char_traitsIcESaIcEEEEEvRKT_PSo
FNDA:0,_ZN7testing8internal14UniversalPrintINSt7__cxx1112basic_stringIcSt11char_traitsIcESaIcEEEEEvRKT_PSo
DA:260,0
DA:287,0
DA:288,0
DA:260,0
DA:287,0
DA:288,0
DA:260,0
DA:287,0
DA:288,0
DA:466,0
DA:468,0
DA:469,0
DA:466,0
DA:468,0
DA:469,0
DA:466,0
DA:468,0
DA:469,0
DA:483,0
DA:503,0
DA:514,0
DA:483,0
DA:503,0
DA:514,0
DA:483,0
DA:503,0
DA:514,0
DA:594,0
DA:595,0
DA:596,0
DA:670,0
DA:679,0
DA:680,0
DA:670,0
DA:679,0
DA:680,0
DA:670,0
DA:679,0
DA:680,0
DA:670,0
DA:679,0
DA:680,0
DA:865,0
DA:869,0
DA:870,0
DA:865,0
DA:869,0
DA:870,0
DA:865,0
DA:869,0
DA:870,0
DA:865,0
DA:869,0
DA:870,0
end_of_record
SF:/usr/include/c++/9/bits/stl_iterator_base_types.h
FN:205,_ZSt19__iterator_categoryIPcENSt15iterator_traitsIT_E17iterator_categoryERKS2_
FNDA:0,_ZSt19__iterator_categoryIPcENSt15iterator_traitsIT_E17iterator_categoryERKS2_
FN:205,_ZSt19__iterator_categoryIPKcENSt15iterator_traitsIT_E17iterator_categoryERKS3_
FNDA:0,_ZSt19__iterator_categoryIPKcENSt15iterator_traitsIT_E17iterator_categoryERKS3_
DA:205,0
DA:206,0
DA:205,0
DA:206,0
end_of_record
SF:/usr/include/c++/9/typeinfo
FN:99,_ZNKSt9type_info4nameEv
FNDA:0,_ZNKSt9type_info4nameEv
DA:99,0
DA:100,0
end_of_record
TN:
SF:/usr/local/include/gtest/internal/gtest-type-util.h
FN:64,_ZN7testing8internal31CanonicalizeForStdLibVersioningENSt7__cxx1112basic_stringIcSt11char_traitsIcESaIcEEE
FNDA:0,_ZN7testing8internal31CanonicalizeForStdLibVersioningENSt7__cxx1112basic_stringIcSt11char_traitsIcESaIcEEE
FN:80,_ZN7testing8internal11GetTypeNameIKiEENSt7__cxx1112basic_stringIcSt11char_traitsIcESaIcEEEv
FNDA:0,_ZN7testing8internal11GetTypeNameIKiEENSt7__cxx1112basic_stringIcSt11char_traitsIcESaIcEEEv
FN:80,_ZN7testing8internal11GetTypeNameIKmEENSt7__cxx1112basic_stringIcSt11char_traitsIcESaIcEEEv
FNDA:0,_ZN7testing8internal11GetTypeNameIKmEENSt7__cxx1112basic_stringIcSt11char_traitsIcESaIcEEEv
FN:80,_ZN7testing8internal11GetTypeNameIKdEENSt7__cxx1112basic_stringIcSt11char_traitsIcESaIcEEEv
FNDA:0,_ZN7testing8internal11GetTypeNameIKdEENSt7__cxx1112basic_stringIcSt11char_traitsIcESaIcEEEv
DA:64,0
DA:66,0
DA:67,0
DA:68,0
DA:70,0
DA:73,0
DA:80,0
DA:83,0
DA:85,0
DA:91,0
DA:92,0
DA:93,0
DA:94,0
DA:80,0
DA:83,0
DA:85,0
DA:91,0
DA:92,0
DA:93,0
DA:94,0
DA:80,0
DA:83,0
DA:85,0
DA:91,0
DA:92,0
DA:93,0
DA:94,0
end_of_record
SF:/usr/local/include/gtest/internal/gtest-internal.h
FN:286,_ZN7testing8internal13FloatingPointIdEC2ERKd
FNDA:346,_ZN7testing8internal13FloatingPointIdEC2ERKd
FN:313,_ZNK7testing8internal13FloatingPointIdE13exponent_bitsEv
FNDA:354,_ZNK7testing8internal13FloatingPointIdE13exponent_bitsEv
FN:316,_ZNK7testing8internal13FloatingPointIdE13fraction_bitsEv
FNDA:0,_ZNK7testing8internal13FloatingPointIdE13fraction_bitsEv
FN:322,_ZNK7testing8internal13FloatingPointIdE6is_nanEv
FNDA:354,_ZNK7testing8internal13FloatingPointIdE6is_nanEv
FN:334,_ZNK7testing8internal13FloatingPointIdE12AlmostEqualsERKS2_
FNDA:4,_ZNK7testing8internal13FloatingPointIdE12AlmostEqualsERKS2_
FN:365,_ZN7testing8internal13FloatingPointIdE24SignAndMagnitudeToBiasedERKy
FNDA:8,_ZN7testing8internal13FloatingPointIdE24SignAndMagnitudeToBiasedERKy
FN:377,_ZN7testing8internal13FloatingPointIdE38DistanceBetweenSignAndMagnitudeNumbersERKyS4_
FNDA:4,_ZN7testing8internal13FloatingPointIdE38DistanceBetweenSignAndMagnitudeNumbersERKyS4_
FN:423,_ZN7testing8internal9GetTypeIdI14TestThatMatrixEEPKvv
FNDA:2162,_ZN7testing8internal9GetTypeIdI14TestThatMatrixEEPKvv
FN:442,_ZN7testing8internal15TestFactoryBaseD2Ev
FNDA:0,_ZN7testing8internal15TestFactoryBaseD2Ev
FN:442,_ZN7testing8internal15TestFactoryBaseD0Ev
FNDA:0,_ZN7testing8internal15TestFactoryBaseD0Ev
FN:449,_ZN7testing8internal15TestFactoryBaseC2Ev
FNDA:0,_ZN7testing8internal15TestFactoryBaseC2Ev
FN:460,_ZN7testing8internal15TestFactoryImplI68TestThatMatrix_ThrowErrorForFullMatrixConstructorWithNEqualZero_TestE10CreateTestEv
FNDA:1,_ZN7testing8internal15TestFactoryImplI68TestThatMatrix_ThrowErrorForFullMatrixConstructorWithNEqualZero_TestE10CreateTestEv
FN:460,_ZN7testing8internal15TestFactoryImplI50TestThatMatrix_CanAccessDeclaredMatrixInSetup_TestE10CreateTestEv
FNDA:1,_ZN7testing8internal15TestFactoryImplI50TestThatMatrix_CanAccessDeclaredMatrixInSetup_TestE10CreateTestEv
FN:460,_ZN7testing8internal15TestFactoryImplI71TestThatMatrix_CanConstructAnUninitializedMatrixSepcifyingRowsCols_TestE10CreateTestEv
FNDA:1,_ZN7testing8internal15TestFactoryImplI71TestThatMatrix_CanConstructAnUninitializedMatrixSepcifyingRowsCols_TestE10CreateTestEv
FN:460,_ZN7testing8internal15TestFactoryImplI67TestThatMatrix_ConstructorRowsColsThrowsWheneverRowsIsNegative_TestE10CreateTestEv
FNDA:1,_ZN7testing8internal15TestFactoryImplI67TestThatMatrix_ConstructorRowsColsThrowsWheneverRowsIsNegative_TestE10CreateTestEv
FN:460,_ZN7testing8internal15TestFactoryImplI63TestThatMatrix_HasFullMatrixConstructorWithInitializerList_TestE10CreateTestEv
FNDA:1,_ZN7testing8internal15TestFactoryImplI63TestThatMatrix_HasFullMatrixConstructorWithInitializerList_TestE10CreateTestEv
FN:460,_ZN7testing8internal15TestFactoryImplI54TestThatMatrix_HasFullMatrixConstructorWithVector_TestE10CreateTestEv
FNDA:1,_ZN7testing8internal15TestFactoryImplI54TestThatMatrix_HasFullMatrixConstructorWithVector_TestE10CreateTestEv
FN:460,_ZN7testing8internal15TestFactoryImplI84TestThatMatrix_ThrowErrorForFullMatrixConstructorWithVectorOfSizeNotEqualToMByN_TestE10CreateTestEv
FNDA:1,_ZN7testing8internal15TestFactoryImplI84TestThatMatrix_ThrowErrorForFullMatrixConstructorWithVectorOfSizeNotEqualToMByN_TestE10CreateTestEv
FN:460,_ZN7testing8internal15TestFactoryImplI93TestThatMatrix_ThrowErrorForFullMatrixConstructorWithVectorOfSizeZeroAndMTimeNIsPositive_TestE10CreateTestEv
FNDA:1,_ZN7testing8internal15TestFactoryImplI93TestThatMatrix_ThrowErrorForFullMatrixConstructorWithVectorOfSizeZeroAndMTimeNIsPositive_TestE10CreateTestEv
FN:460,_ZN7testing8internal15TestFactoryImplI63TestThatMatrix_ConstructorRowsColsThrowsWheneverRowsIsZero_TestE10CreateTestEv
FNDA:1,_ZN7testing8internal15TestFactoryImplI63TestThatMatrix_ConstructorRowsColsThrowsWheneverRowsIsZero_TestE10CreateTestEv
FN:460,_ZN7testing8internal15TestFactoryImplI68TestThatMatrix_ThrowErrorForFullMatrixConstructorWithMEqualZero_TestE10CreateTestEv
FNDA:1,_ZN7testing8internal15TestFactoryImplI68TestThatMatrix_ThrowErrorForFullMatrixConstructorWithMEqualZero_TestE10CreateTestEv
FN:460,_ZN7testing8internal15TestFactoryImplI67TestThatMatrix_HasDiagonalMatrixConstructorWithInitializerList_TestE10CreateTestEv
FNDA:1,_ZN7testing8internal15TestFactoryImplI67TestThatMatrix_HasDiagonalMatrixConstructorWithInitializerList_TestE10CreateTestEv
FN:460,_ZN7testing8internal15TestFactoryImplI70TestThatMatrix_CannotDoMoveAssignmentWheneverDimensionsDonotAgree_TestE10CreateTestEv
FNDA:1,_ZN7testing8internal15TestFactoryImplI70TestThatMatrix_CannotDoMoveAssignmentWheneverDimensionsDonotAgree_TestE10CreateTestEv
FN:460,_ZN7testing8internal15TestFactoryImplI67TestThatMatrix_ConstructorRowsColsThrowsWheneverColsIsNegative_TestE10CreateTestEv
FNDA:1,_ZN7testing8internal15TestFactoryImplI67TestThatMatrix_ConstructorRowsColsThrowsWheneverColsIsNegative_TestE10CreateTestEv
FN:460,_ZN7testing8internal15TestFactoryImplI63TestThatMatrix_ConstructorRowsColsThrowsWheneverColsIsZero_TestE10CreateTestEv
FNDA:1,_ZN7testing8internal15TestFactoryImplI63TestThatMatrix_ConstructorRowsColsThrowsWheneverColsIsZero_TestE10CreateTestEv
FN:460,_ZN7testing8internal15TestFactoryImplI33TestThatMatrix_get_rowsWorks_TestE10CreateTestEv
FNDA:1,_ZN7testing8internal15TestFactoryImplI33TestThatMatrix_get_rowsWorks_TestE10CreateTestEv
FN:460,_ZN7testing8internal15TestFactoryImplI33TestThatMatrix_get_colsWorks_TestE10CreateTestEv
FNDA:1,_ZN7testing8internal15TestFactoryImplI33TestThatMatrix_get_colsWorks_TestE10CreateTestEv
FN:460,_ZN7testing8internal15TestFactoryImplI86TestThatMatrix_CanConstructAnUninitializedMatrixSepcifyingRowsColsANDInitialiseIt_TestE10CreateTestEv
FNDA:1,_ZN7testing8internal15TestFactoryImplI86TestThatMatrix_CanConstructAnUninitializedMatrixSepcifyingRowsColsANDInitialiseIt_TestE10CreateTestEv
FN:460,_ZN7testing8internal15TestFactoryImplI54TestThatMatrix_ImplementsCopyConstructorCorrectly_TestE10CreateTestEv
FNDA:1,_ZN7testing8internal15TestFactoryImplI54TestThatMatrix_ImplementsCopyConstructorCorrectly_TestE10CreateTestEv
FN:460,_ZN7testing8internal15TestFactoryImplI53TestThatMatrix_ImplementsCopyAssignmentCorrectly_TestE10CreateTestEv
FNDA:1,_ZN7testing8internal15TestFactoryImplI53TestThatMatrix_ImplementsCopyAssignmentCorrectly_TestE10CreateTestEv
FN:460,_ZN7testing8internal15TestFactoryImplI54TestThatMatrix_ImplementsMoveConstructorCorrectly_TestE10CreateTestEv
FNDA:1,_ZN7testing8internal15TestFactoryImplI54TestThatMatrix_ImplementsMoveConstructorCorrectly_TestE10CreateTestEv
FN:460,_ZN7testing8internal15TestFactoryImplI53TestThatMatrix_ImplementsMoveAssignmentCorrectly_TestE10CreateTestEv
FNDA:1,_ZN7testing8internal15TestFactoryImplI53TestThatMatrix_ImplementsMoveAssignmentCorrectly_TestE10CreateTestEv
FN:460,_ZN7testing8internal15TestFactoryImplI70TestThatMatrix_CannotDoCopyAssignmentWheneverDimensionsDonotAgree_TestE10CreateTestEv
FNDA:1,_ZN7testing8internal15TestFactoryImplI70TestThatMatrix_CannotDoCopyAssignmentWheneverDimensionsDonotAgree_TestE10CreateTestEv
FN:460,_ZN7testing8internal15TestFactoryImplI58TestThatMatrix_HasDiagonalMatrixConstructorWithVector_TestE10CreateTestEv
FNDA:1,_ZN7testing8internal15TestFactoryImplI58TestThatMatrix_HasDiagonalMatrixConstructorWithVector_TestE10CreateTestEv
FN:481,_ZN7testing8internal12CodeLocationC2ERKNSt7__cxx1112basic_stringIcSt11char_traitsIcESaIcEEEi
FNDA:0,_ZN7testing8internal12CodeLocationC2ERKNSt7__cxx1112basic_stringIcSt11char_traitsIcESaIcEEEi
FN:494,_ZN7testing8internal19GetNotDefaultOrNullEPFvvES2_
FNDA:0,_ZN7testing8internal19GetNotDefaultOrNullEPFvvES2_
FN:509,_ZN7testing8internal16SuiteApiResolverI14TestThatMatrixE19GetSetUpCaseOrSuiteEPKci
FNDA:2162,_ZN7testing8internal16SuiteApiResolverI14TestThatMatrixE19GetSetUpCaseOrSuiteEPKci
FN:524,_ZN7testing8internal16SuiteApiResolverI14TestThatMatrixE22GetTearDownCaseOrSuiteEPKci
FNDA:2162,_ZN7testing8internal16SuiteApiResolverI14TestThatMatrixE22GetTearDownCaseOrSuiteEPKci
FN:823,_ZN7testing8internal12ConstCharPtrC2EPKc
FNDA:0,_ZN7testing8internal12ConstCharPtrC2EPKc
FN:824,_ZNK7testing8internal12ConstCharPtrcvbEv
FNDA:0,_ZNK7testing8internal12ConstCharPtrcvbEv
DA:286,346
DA:313,354
DA:316,0
DA:322,354
DA:325,354
DA:334,4
DA:337,4
DA:339,4
DA:340,4
DA:365,8
DA:366,8
DA:368,0
DA:371,8
DA:377,4
DA:379,4
DA:380,4
DA:381,4
DA:423,2162
DA:428,2162
DA:442,0
DA:442,0
DA:449,0
DA:460,1
DA:460,1
DA:460,1
DA:460,1
DA:460,1
DA:460,1
DA:460,1
DA:460,1
DA:460,1
DA:460,1
DA:460,1
DA:460,1
DA:460,1
DA:460,1
DA:460,1
DA:460,1
DA:460,1
DA:460,1
DA:460,1
DA:460,1
DA:460,1
DA:460,1
DA:460,1
DA:481,0
DA:482,0
DA:494,0
DA:496,0
DA:509,2162
DA:512,2162
DA:514,2162
DA:516,2162
DA:519,0
DA:521,2162
DA:524,2162
DA:527,2162
DA:529,2162
DA:531,2162
DA:534,0
DA:536,2162
DA:823,0
DA:824,0
end_of_record
SF:/usr/include/c++/9/iomanip
FN:225,_ZSt4setwi
FNDA:15,_ZSt4setwi
DA:225,15
DA:226,15
end_of_record
SF:/usr/include/x86_64-linux-gnu/c++/9/bits/gthr-default.h
FN:248,_ZL18__gthread_active_pv
FNDA:0,_ZL18__gthread_active_pv
DA:248,0
DA:252,0
end_of_record
SF:/usr/include/c++/9/bits/basic_string.tcc
FN:206,_ZNSt7__cxx1112basic_stringIcSt11char_traitsIcESaIcEE12_M_constructIPcEEvT_S7_St20forward_iterator_tag
FNDA:79956,_ZNSt7__cxx1112basic_stringIcSt11char_traitsIcESaIcEE12_M_constructIPcEEvT_S7_St20forward_iterator_tag
FN:206,_ZNSt7__cxx1112basic_stringIcSt11char_traitsIcESaIcEE12_M_constructIPKcEEvT_S8_St20forward_iterator_tag
FNDA:0,_ZNSt7__cxx1112basic_stringIcSt11char_traitsIcESaIcEE12_M_constructIPKcEEvT_S8_St20forward_iterator_tag
DA:206,79956
DA:211,79956
DA:212,0
DA:215,79956
DA:217,79956
DA:219,57282
DA:220,57282
DA:225,79956
DA:226,0
DA:228,0
DA:229,0
DA:232,79956
DA:233,79956
DA:206,0
DA:211,0
DA:212,0
DA:215,0
DA:217,0
DA:219,0
DA:220,0
DA:225,0
DA:226,0
DA:228,0
DA:229,0
DA:232,0
DA:233,0
end_of_record
SF:/usr/include/c++/9/ext/alloc_traits.h
FN:97,_ZN9__gnu_cxx14__alloc_traitsISaIcEcE17_S_select_on_copyERKS1_
FNDA:0,_ZN9__gnu_cxx14__alloc_traitsISaIcEcE17_S_select_on_copyERKS1_
DA:97,0
DA:98,0
end_of_record
SF:/home/john/cse701/roc/test/matrixTests.cpp
FN:23,_ZN14TestThatMatrix5SetUpEv
FNDA:23,_ZN14TestThatMatrix5SetUpEv
FN:29,_ZN14TestThatMatrix8TearDownEv
FNDA:23,_ZN14TestThatMatrix8TearDownEv
FN:32,_ZN50TestThatMatrix_CanAccessDeclaredMatrixInSetup_TestC2Ev
FNDA:1,_ZN50TestThatMatrix_CanAccessDeclaredMatrixInSetup_TestC2Ev
FN:32,_ZN50TestThatMatrix_CanAccessDeclaredMatrixInSetup_Test8TestBodyEv
FNDA:1,_ZN50TestThatMatrix_CanAccessDeclaredMatrixInSetup_Test8TestBodyEv
FN:43,_ZN71TestThatMatrix_CanConstructAnUninitializedMatrixSepcifyingRowsCols_TestC2Ev
FNDA:1,_ZN71TestThatMatrix_CanConstructAnUninitializedMatrixSepcifyingRowsCols_TestC2Ev
FN:43,_ZN71TestThatMatrix_CanConstructAnUninitializedMatrixSepcifyingRowsCols_Test8TestBodyEv
FNDA:1,_ZN71TestThatMatrix_CanConstructAnUninitializedMatrixSepcifyingRowsCols_Test8TestBodyEv
FN:48,_ZN67TestThatMatrix_ConstructorRowsColsThrowsWheneverRowsIsNegative_TestC2Ev
FNDA:1,_ZN67TestThatMatrix_ConstructorRowsColsThrowsWheneverRowsIsNegative_TestC2Ev
FN:48,_ZN67TestThatMatrix_ConstructorRowsColsThrowsWheneverRowsIsNegative_Test8TestBodyEv
FNDA:1,_ZN67TestThatMatrix_ConstructorRowsColsThrowsWheneverRowsIsNegative_Test8TestBodyEv
FN:54,_ZN63TestThatMatrix_ConstructorRowsColsThrowsWheneverRowsIsZero_TestC2Ev
FNDA:1,_ZN63TestThatMatrix_ConstructorRowsColsThrowsWheneverRowsIsZero_TestC2Ev
FN:54,_ZN63TestThatMatrix_ConstructorRowsColsThrowsWheneverRowsIsZero_Test8TestBodyEv
FNDA:1,_ZN63TestThatMatrix_ConstructorRowsColsThrowsWheneverRowsIsZero_Test8TestBodyEv
FN:59,_ZN67TestThatMatrix_ConstructorRowsColsThrowsWheneverColsIsNegative_Test8TestBodyEv
FNDA:1,_ZN67TestThatMatrix_ConstructorRowsColsThrowsWheneverColsIsNegative_Test8TestBodyEv
FN:59,_ZN67TestThatMatrix_ConstructorRowsColsThrowsWheneverColsIsNegative_TestC2Ev
FNDA:1,_ZN67TestThatMatrix_ConstructorRowsColsThrowsWheneverColsIsNegative_TestC2Ev
FN:65,_ZN63TestThatMatrix_ConstructorRowsColsThrowsWheneverColsIsZero_TestC2Ev
FNDA:1,_ZN63TestThatMatrix_ConstructorRowsColsThrowsWheneverColsIsZero_TestC2Ev
FN:65,_ZN63TestThatMatrix_ConstructorRowsColsThrowsWheneverColsIsZero_Test8TestBodyEv
FNDA:1,_ZN63TestThatMatrix_ConstructorRowsColsThrowsWheneverColsIsZero_Test8TestBodyEv
FN:70,_ZN33TestThatMatrix_get_rowsWorks_TestC2Ev
FNDA:1,_ZN33TestThatMatrix_get_rowsWorks_TestC2Ev
FN:70,_ZN33TestThatMatrix_get_rowsWorks_Test8TestBodyEv
FNDA:1,_ZN33TestThatMatrix_get_rowsWorks_Test8TestBodyEv
FN:78,_ZN33TestThatMatrix_get_colsWorks_TestC2Ev
FNDA:1,_ZN33TestThatMatrix_get_colsWorks_TestC2Ev
FN:78,_ZN33TestThatMatrix_get_colsWorks_Test8TestBodyEv
FNDA:1,_ZN33TestThatMatrix_get_colsWorks_Test8TestBodyEv
FN:86,_ZN86TestThatMatrix_CanConstructAnUninitializedMatrixSepcifyingRowsColsANDInitialiseIt_TestC2Ev
FNDA:1,_ZN86TestThatMatrix_CanConstructAnUninitializedMatrixSepcifyingRowsColsANDInitialiseIt_TestC2Ev
FN:86,_ZN86TestThatMatrix_CanConstructAnUninitializedMatrixSepcifyingRowsColsANDInitialiseIt_Test8TestBodyEv
FNDA:1,_ZN86TestThatMatrix_CanConstructAnUninitializedMatrixSepcifyingRowsColsANDInitialiseIt_Test8TestBodyEv
FN:134,_ZN54TestThatMatrix_ImplementsCopyConstructorCorrectly_TestC2Ev
FNDA:1,_ZN54TestThatMatrix_ImplementsCopyConstructorCorrectly_TestC2Ev
FN:134,_ZN54TestThatMatrix_ImplementsCopyConstructorCorrectly_Test8TestBodyEv
FNDA:1,_ZN54TestThatMatrix_ImplementsCopyConstructorCorrectly_Test8TestBodyEv
FN:186,_ZN53TestThatMatrix_ImplementsCopyAssignmentCorrectly_Test8TestBodyEv
FNDA:1,_ZN53TestThatMatrix_ImplementsCopyAssignmentCorrectly_Test8TestBodyEv
FN:186,_ZN53TestThatMatrix_ImplementsCopyAssignmentCorrectly_TestC2Ev
FNDA:1,_ZN53TestThatMatrix_ImplementsCopyAssignmentCorrectly_TestC2Ev
FN:244,_ZN54TestThatMatrix_ImplementsMoveConstructorCorrectly_TestC2Ev
FNDA:1,_ZN54TestThatMatrix_ImplementsMoveConstructorCorrectly_TestC2Ev
FN:244,_ZN54TestThatMatrix_ImplementsMoveConstructorCorrectly_Test8TestBodyEv
FNDA:1,_ZN54TestThatMatrix_ImplementsMoveConstructorCorrectly_Test8TestBodyEv
FN:291,_ZN53TestThatMatrix_ImplementsMoveAssignmentCorrectly_TestC2Ev
FNDA:1,_ZN53TestThatMatrix_ImplementsMoveAssignmentCorrectly_TestC2Ev
FN:291,_ZN53TestThatMatrix_ImplementsMoveAssignmentCorrectly_Test8TestBodyEv
FNDA:1,_ZN53TestThatMatrix_ImplementsMoveAssignmentCorrectly_Test8TestBodyEv
FN:349,_ZN70TestThatMatrix_CannotDoCopyAssignmentWheneverDimensionsDonotAgree_TestC2Ev
FNDA:1,_ZN70TestThatMatrix_CannotDoCopyAssignmentWheneverDimensionsDonotAgree_TestC2Ev
FN:349,_ZN70TestThatMatrix_CannotDoCopyAssignmentWheneverDimensionsDonotAgree_Test8TestBodyEv
FNDA:1,_ZN70TestThatMatrix_CannotDoCopyAssignmentWheneverDimensionsDonotAgree_Test8TestBodyEv
FN:357,_ZN70TestThatMatrix_CannotDoMoveAssignmentWheneverDimensionsDonotAgree_TestC2Ev
FNDA:1,_ZN70TestThatMatrix_CannotDoMoveAssignmentWheneverDimensionsDonotAgree_TestC2Ev
FN:357,_ZN70TestThatMatrix_CannotDoMoveAssignmentWheneverDimensionsDonotAgree_Test8TestBodyEv
FNDA:1,_ZN70TestThatMatrix_CannotDoMoveAssignmentWheneverDimensionsDonotAgree_Test8TestBodyEv
FN:365,_ZN58TestThatMatrix_HasDiagonalMatrixConstructorWithVector_TestC2Ev
FNDA:1,_ZN58TestThatMatrix_HasDiagonalMatrixConstructorWithVector_TestC2Ev
FN:365,_ZN58TestThatMatrix_HasDiagonalMatrixConstructorWithVector_Test8TestBodyEv
FNDA:1,_ZN58TestThatMatrix_HasDiagonalMatrixConstructorWithVector_Test8TestBodyEv
FN:385,_ZN67TestThatMatrix_HasDiagonalMatrixConstructorWithInitializerList_Test8TestBodyEv
FNDA:1,_ZN67TestThatMatrix_HasDiagonalMatrixConstructorWithInitializerList_Test8TestBodyEv
FN:385,_ZN67TestThatMatrix_HasDiagonalMatrixConstructorWithInitializerList_TestC2Ev
FNDA:1,_ZN67TestThatMatrix_HasDiagonalMatrixConstructorWithInitializerList_TestC2Ev
FN:405,_ZN68TestThatMatrix_ThrowErrorForFullMatrixConstructorWithMEqualZero_TestC2Ev
FNDA:1,_ZN68TestThatMatrix_ThrowErrorForFullMatrixConstructorWithMEqualZero_TestC2Ev
FN:405,_ZN68TestThatMatrix_ThrowErrorForFullMatrixConstructorWithMEqualZero_Test8TestBodyEv
FNDA:1,_ZN68TestThatMatrix_ThrowErrorForFullMatrixConstructorWithMEqualZero_Test8TestBodyEv
FN:416,_ZN68TestThatMatrix_ThrowErrorForFullMatrixConstructorWithNEqualZero_TestC2Ev
FNDA:1,_ZN68TestThatMatrix_ThrowErrorForFullMatrixConstructorWithNEqualZero_TestC2Ev
FN:416,_ZN68TestThatMatrix_ThrowErrorForFullMatrixConstructorWithNEqualZero_Test8TestBodyEv
FNDA:1,_ZN68TestThatMatrix_ThrowErrorForFullMatrixConstructorWithNEqualZero_Test8TestBodyEv
FN:427,_ZN93TestThatMatrix_ThrowErrorForFullMatrixConstructorWithVectorOfSizeZeroAndMTimeNIsPositive_TestC2Ev
FNDA:1,_ZN93TestThatMatrix_ThrowErrorForFullMatrixConstructorWithVectorOfSizeZeroAndMTimeNIsPositive_TestC2Ev
FN:427,_ZN93TestThatMatrix_ThrowErrorForFullMatrixConstructorWithVectorOfSizeZeroAndMTimeNIsPositive_Test8TestBodyEv
FNDA:1,_ZN93TestThatMatrix_ThrowErrorForFullMatrixConstructorWithVectorOfSizeZeroAndMTimeNIsPositive_Test8TestBodyEv
FN:438,_ZN84TestThatMatrix_ThrowErrorForFullMatrixConstructorWithVectorOfSizeNotEqualToMByN_TestC2Ev
FNDA:1,_ZN84TestThatMatrix_ThrowErrorForFullMatrixConstructorWithVectorOfSizeNotEqualToMByN_TestC2Ev
FN:438,_ZN84TestThatMatrix_ThrowErrorForFullMatrixConstructorWithVectorOfSizeNotEqualToMByN_Test8TestBodyEv
FNDA:1,_ZN84TestThatMatrix_ThrowErrorForFullMatrixConstructorWithVectorOfSizeNotEqualToMByN_Test8TestBodyEv
FN:446,_ZN54TestThatMatrix_HasFullMatrixConstructorWithVector_TestC2Ev
FNDA:1,_ZN54TestThatMatrix_HasFullMatrixConstructorWithVector_TestC2Ev
FN:446,_ZN54TestThatMatrix_HasFullMatrixConstructorWithVector_Test8TestBodyEv
FNDA:1,_ZN54TestThatMatrix_HasFullMatrixConstructorWithVector_Test8TestBodyEv
FN:461,_ZN63TestThatMatrix_HasFullMatrixConstructorWithInitializerList_Test8TestBodyEv
FNDA:1,_ZN63TestThatMatrix_HasFullMatrixConstructorWithInitializerList_Test8TestBodyEv
FN:461,_ZN63TestThatMatrix_HasFullMatrixConstructorWithInitializerList_TestC2Ev
FNDA:1,_ZN63TestThatMatrix_HasFullMatrixConstructorWithInitializerList_TestC2Ev
DA:23,23
DA:25,23
DA:26,23
DA:27,23
DA:29,23
DA:32,1
DA:34,1
DA:35,1
DA:36,1
DA:38,1
DA:39,1
DA:40,1
DA:32,1
DA:43,1
DA:45,1
DA:43,1
DA:48,1
DA:51,4
DA:48,1
DA:54,1
DA:56,4
DA:54,1
DA:59,1
DA:62,4
DA:59,1
DA:65,1
DA:67,4
DA:65,1
DA:70,1
DA:72,2
DA:75,1
DA:76,1
DA:70,1
DA:78,1
DA:80,2
DA:83,1
DA:84,1
DA:78,1
DA:86,1
DA:89,2
DA:92,1
DA:93,1
DA:94,1
DA:95,1
DA:96,1
DA:97,1
DA:98,1
DA:99,1
DA:100,1
DA:101,1
DA:102,1
DA:103,1
DA:104,1
DA:105,1
DA:106,1
DA:107,1
DA:108,1
DA:109,1
DA:110,1
DA:111,1
DA:112,1
DA:113,1
DA:114,1
DA:115,1
DA:116,1
DA:117,1
DA:118,1
DA:119,1
DA:121,1
DA:122,1
DA:125,8
DA:126,35
DA:127,28
DA:132,1
DA:86,1
DA:134,1
DA:136,2
DA:138,1
DA:139,1
DA:140,1
DA:141,1
DA:142,1
DA:143,1
DA:144,1
DA:145,1
DA:148,3
DA:149,10
DA:150,8
DA:153,2
DA:156,3
DA:157,10
DA:158,8
DA:161,3
DA:162,10
DA:163,8
DA:166,1
DA:169,3
DA:170,10
DA:171,8
DA:174,3
DA:175,10
DA:176,8
DA:178,1
DA:182,7
DA:184,1
DA:134,1
DA:186,1
DA:188,2
DA:190,1
DA:191,1
DA:192,1
DA:193,1
DA:194,1
DA:195,1
DA:196,1
DA:197,1
DA:200,3
DA:201,10
DA:202,8
DA:205,2
DA:209,1
DA:211,1
DA:214,3
DA:215,10
DA:216,8
DA:219,3
DA:220,10
DA:221,8
DA:224,1
DA:227,3
DA:228,10
DA:229,8
DA:232,3
DA:233,10
DA:234,8
DA:236,1
DA:240,7
DA:242,1
DA:186,1
DA:244,1
DA:246,2
DA:248,1
DA:249,1
DA:250,1
DA:251,1
DA:252,1
DA:253,1
DA:254,1
DA:255,1
DA:258,3
DA:259,10
DA:260,8
DA:263,2
DA:266,1
DA:267,1
DA:268,1
DA:271,3
DA:272,10
DA:273,8
DA:276,1
DA:279,3
DA:280,10
DA:281,8
DA:283,1
DA:287,7
DA:289,1
DA:244,1
DA:291,1
DA:293,2
DA:295,1
DA:296,1
DA:297,1
DA:298,1
DA:299,1
DA:300,1
DA:301,1
DA:302,1
DA:305,3
DA:306,10
DA:307,8
DA:310,2
DA:314,1
DA:317,3
DA:318,10
DA:319,8
DA:321,1
DA:324,1
DA:325,1
DA:326,1
DA:329,3
DA:330,10
DA:331,8
DA:334,1
DA:337,3
DA:338,10
DA:339,8
DA:341,1
DA:345,7
DA:347,1
DA:291,1
DA:349,1
DA:351,1
DA:352,1
DA:354,2
DA:349,1
DA:357,1
DA:359,1
DA:360,1
DA:362,2
DA:357,1
DA:365,1
DA:367,2
DA:368,2
DA:370,1
DA:371,1
DA:373,4
DA:374,12
DA:375,9
DA:377,3
DA:381,6
DA:383,1
DA:365,1
DA:385,1
DA:387,2
DA:388,2
DA:390,1
DA:391,1
DA:393,5
DA:394,20
DA:395,16
DA:397,4
DA:401,12
DA:403,1
DA:385,1
DA:405,1
DA:407,2
DA:408,1
DA:409,1
DA:410,4
DA:414,1
DA:405,1
DA:416,1
DA:418,2
DA:419,1
DA:420,1
DA:421,4
DA:425,1
DA:416,1
DA:427,1
DA:431,2
DA:432,1
DA:433,1
DA:434,1
DA:435,4
DA:436,1
DA:427,1
DA:438,1
DA:441,2
DA:442,1
DA:443,4
DA:444,1
DA:438,1
DA:446,1
DA:448,2
DA:450,1
DA:451,1
DA:453,1
DA:454,1
DA:455,1
DA:456,1
DA:457,1
DA:458,1
DA:459,1
DA:446,1
DA:461,1
DA:463,2
DA:465,1
DA:466,1
DA:468,1
DA:469,1
DA:470,1
DA:471,1
DA:472,1
DA:461,1
end_of_record
SF:/usr/include/c++/9/bits/shared_ptr.h
FN:139,_ZNSt10shared_ptrIKN7testing16MatcherInterfaceIRKdEEEC2IS5_vEEPT_
FNDA:0,_ZNSt10shared_ptrIKN7testing16MatcherInterfaceIRKdEEEC2IS5_vEEPT_
FN:139,_ZNSt10shared_ptrIKN7testing16MatcherInterfaceIRKiEEEC2IS5_vEEPT_
FNDA:150,_ZNSt10shared_ptrIKN7testing16MatcherInterfaceIRKiEEEC2IS5_vEEPT_
FN:139,_ZNSt10shared_ptrIKN7testing16MatcherInterfaceIRKmEEEC2IS5_vEEPT_
FNDA:0,_ZNSt10shared_ptrIKN7testing16MatcherInterfaceIRKmEEEC2IS5_vEEPT_
DA:139,0
DA:139,150
DA:139,0
end_of_record
SF:/usr/include/c++/9/initializer_list
FN:71,_ZNKSt16initializer_listIiE4sizeEv
FNDA:8,_ZNKSt16initializer_listIiE4sizeEv
FN:75,_ZNKSt16initializer_listIiE5beginEv
FNDA:16,_ZNKSt16initializer_listIiE5beginEv
FN:79,_ZNKSt16initializer_listIiE3endEv
FNDA:8,_ZNKSt16initializer_listIiE3endEv
DA:71,8
DA:75,16
DA:79,8
end_of_record
SF:/usr/include/c++/9/iostream
end_of_record
SF:/usr/include/c++/9/bits/stl_vector.h
FN:94,_ZNSt12_Vector_baseIdSaIdEE17_Vector_impl_dataC2Ev
FNDA:0,_ZNSt12_Vector_baseIdSaIdEE17_Vector_impl_dataC2Ev
FN:94,_ZNSt12_Vector_baseIiSaIiEE17_Vector_impl_dataC2Ev
FNDA:950,_ZNSt12_Vector_baseIiSaIiEE17_Vector_impl_dataC2Ev
FN:128,_ZNSt12_Vector_baseIiSaIiEE12_Vector_implC2Ev
FNDA:941,_ZNSt12_Vector_baseIiSaIiEE12_Vector_implC2Ev
FN:133,_ZNSt12_Vector_baseIiSaIiEE12_Vector_implC2ERKS0_
FNDA:9,_ZNSt12_Vector_baseIiSaIiEE12_Vector_implC2ERKS0_
FN:133,_ZNSt12_Vector_baseIdSaIdEE12_Vector_implC2ERKS0_
FNDA:0,_ZNSt12_Vector_baseIdSaIdEE12_Vector_implC2ERKS0_
FN:273,_ZNSt12_Vector_baseIdSaIdEE19_M_get_Tp_allocatorEv
FNDA:0,_ZNSt12_Vector_baseIdSaIdEE19_M_get_Tp_allocatorEv
FN:273,_ZNSt12_Vector_baseIiSaIiEE19_M_get_Tp_allocatorEv
FNDA:12811,_ZNSt12_Vector_baseIiSaIiEE19_M_get_Tp_allocatorEv
FN:285,_ZNSt12_Vector_baseIiSaIiEEC2Ev
FNDA:941,_ZNSt12_Vector_baseIiSaIiEEC2Ev
FN:290,_ZNSt12_Vector_baseIiSaIiEEC2ERKS0_
FNDA:8,_ZNSt12_Vector_baseIiSaIiEEC2ERKS0_
FN:300,_ZNSt12_Vector_baseIiSaIiEEC2EmRKS0_
FNDA:1,_ZNSt12_Vector_baseIiSaIiEEC2EmRKS0_
FN:300,_ZNSt12_Vector_baseIdSaIdEEC2EmRKS0_
FNDA:32,_ZNSt12_Vector_baseIdSaIdEEC2EmRKS0_
FN:330,_ZNSt12_Vector_baseIiSaIiEED2Ev
FNDA:950,_ZNSt12_Vector_baseIiSaIiEED2Ev
FN:330,_ZNSt12_Vector_baseIdSaIdEED2Ev
FNDA:0,_ZNSt12_Vector_baseIdSaIdEED2Ev
FN:340,_ZNSt12_Vector_baseIdSaIdEE11_M_allocateEm
FNDA:18780,_ZNSt12_Vector_baseIdSaIdEE11_M_allocateEm
FN:340,_ZNSt12_Vector_baseIiSaIiEE11_M_allocateEm
FNDA:3957,_ZNSt12_Vector_baseIiSaIiEE11_M_allocateEm
FN:347,_ZNSt12_Vector_baseIiSaIiEE13_M_deallocateEPim
FNDA:4898,_ZNSt12_Vector_baseIiSaIiEE13_M_deallocateEPim
FN:347,_ZNSt12_Vector_baseIdSaIdEE13_M_deallocateEPdm
FNDA:0,_ZNSt12_Vector_baseIdSaIdEE13_M_deallocateEPdm
FN:356,_ZNSt12_Vector_baseIiSaIiEE17_M_create_storageEm
FNDA:1,_ZNSt12_Vector_baseIiSaIiEE17_M_create_storageEm
FN:356,_ZNSt12_Vector_baseIdSaIdEE17_M_create_storageEm
FNDA:32,_ZNSt12_Vector_baseIdSaIdEE17_M_create_storageEm
FN:484,_ZNSt6vectorIiSaIiEEC2Ev
FNDA:941,_ZNSt6vectorIiSaIiEEC2Ev
FN:507,_ZNSt6vectorIiSaIiEEC2EmRKS0_
FNDA:1,_ZNSt6vectorIiSaIiEEC2EmRKS0_
FN:519,_ZNSt6vectorIdSaIdEEC2EmRKdRKS0_
FNDA:23,_ZNSt6vectorIdSaIdEEC2EmRKdRKS0_
FN:622,_ZNSt6vectorIiSaIiEEC2ESt16initializer_listIiERKS0_
FNDA:8,_ZNSt6vectorIiSaIiEEC2ESt16initializer_listIiERKS0_
FN:675,_ZNSt6vectorIiSaIiEED2Ev
FNDA:950,_ZNSt6vectorIiSaIiEED2Ev
FN:675,_ZNSt6vectorIdSaIdEED2Ev
FNDA:0,_ZNSt6vectorIdSaIdEED2Ev
FN:915,_ZNKSt6vectorIdSaIdEE4sizeEv
FNDA:0,_ZNKSt6vectorIdSaIdEE4sizeEv
FN:915,_ZNKSt6vectorIiSaIiEE4sizeEv
FNDA:37521,_ZNKSt6vectorIiSaIiEE4sizeEv
FN:1040,_ZNSt6vectorIiSaIiEEixEm
FNDA:9689,_ZNSt6vectorIiSaIiEEixEm
FN:1058,_ZNKSt6vectorIdSaIdEEixEm
FNDA:513,_ZNKSt6vectorIdSaIdEEixEm
FN:1058,_ZNKSt6vectorIiSaIiEEixEm
FNDA:2366,_ZNKSt6vectorIiSaIiEEixEm
FN:1574,_ZNSt6vectorIiSaIiEE19_M_range_initializeIPKiEEvT_S5_St20forward_iterator_tag
FNDA:8,_ZNSt6vectorIiSaIiEE19_M_range_initializeIPKiEEvT_S5_St20forward_iterator_tag
FN:1590,_ZNSt6vectorIdSaIdEE18_M_fill_initializeEmRKd
FNDA:23,_ZNSt6vectorIdSaIdEE18_M_fill_initializeEmRKd
FN:1600,_ZNSt6vectorIiSaIiEE21_M_default_initializeEm
FNDA:1,_ZNSt6vectorIiSaIiEE21_M_default_initializeEm
FN:1764,_ZNSt6vectorIdSaIdEE17_S_check_init_lenEmRKS0_
FNDA:69,_ZNSt6vectorIdSaIdEE17_S_check_init_lenEmRKS0_
FN:1764,_ZNSt6vectorIiSaIiEE17_S_check_init_lenEmRKS0_
FNDA:9,_ZNSt6vectorIiSaIiEE17_S_check_init_lenEmRKS0_
FN:1773,_ZNSt6vectorIiSaIiEE11_S_max_sizeERKS0_
FNDA:9,_ZNSt6vectorIiSaIiEE11_S_max_sizeERKS0_
FN:1773,_ZNSt6vectorIdSaIdEE11_S_max_sizeERKS0_
FNDA:37491,_ZNSt6vectorIdSaIdEE11_S_max_sizeERKS0_
DA:94,0
DA:95,0
DA:96,0
DA:94,950
DA:95,950
DA:96,950
DA:128,941
DA:130,941
DA:131,941
DA:133,9
DA:134,9
DA:135,9
DA:133,0
DA:134,0
DA:135,0
DA:273,12811
DA:274,12811
DA:273,0
DA:274,0
DA:285,941
DA:290,8
DA:291,8
DA:300,1
DA:301,1
DA:302,1
DA:300,32
DA:301,32
DA:302,32
DA:330,0
DA:332,0
DA:333,0
DA:334,0
DA:330,950
DA:332,950
DA:333,950
DA:334,950
DA:340,18780
DA:343,18780
DA:340,3957
DA:343,3957
DA:347,0
DA:350,0
DA:351,0
DA:352,0
DA:347,4898
DA:350,4898
DA:351,3957
DA:352,4898
DA:356,1
DA:358,1
DA:359,1
DA:360,1
DA:361,1
DA:356,32
DA:358,32
DA:359,32
DA:360,32
DA:361,32
DA:484,941
DA:507,1
DA:508,1
DA:509,1
DA:519,23
DA:521,23
DA:522,23
DA:622,8
DA:624,8
DA:626,8
DA:628,8
DA:675,950
DA:677,950
DA:678,950
DA:680,950
DA:675,0
DA:677,0
DA:678,0
DA:680,0
DA:915,0
DA:916,0
DA:915,37521
DA:916,37521
DA:1040,9689
DA:1043,9689
DA:1058,2366
DA:1061,2366
DA:1058,513
DA:1061,513
DA:1574,8
DA:1577,8
DA:1578,8
DA:1579,8
DA:1580,8
DA:1581,8
DA:1582,8
DA:1584,8
DA:1585,8
DA:1590,23
DA:1592,23
DA:1593,23
DA:1594,23
DA:1595,23
DA:1600,1
DA:1602,1
DA:1603,1
DA:1604,1
DA:1605,1
DA:1764,9
DA:1766,9
DA:1767,0
DA:1769,9
DA:1764,69
DA:1766,69
DA:1767,0
DA:1769,69
DA:1773,9
DA:1778,9
DA:1780,9
DA:1781,9
DA:1773,37491
DA:1778,37491
DA:1780,37491
DA:1781,37491
end_of_record
SF:/usr/include/c++/9/ext/atomicity.h
FN:48,_ZN9__gnu_cxxL18__exchange_and_addEPVii
FNDA:0,_ZN9__gnu_cxxL18__exchange_and_addEPVii
FN:65,_ZN9__gnu_cxxL25__exchange_and_add_singleEPii
FNDA:0,_ZN9__gnu_cxxL25__exchange_and_add_singleEPii
FN:78,_ZN9__gnu_cxxL27__exchange_and_add_dispatchEPii
FNDA:0,_ZN9__gnu_cxxL27__exchange_and_add_dispatchEPii
DA:48,0
DA:49,0
DA:65,0
DA:67,0
DA:68,0
DA:69,0
DA:78,0
DA:81,0
DA:82,0
DA:84,0
end_of_record
SF:/usr/include/c++/9/bits/cpp_type_traits.h
FN:428,_ZSt12__miter_baseIPKiET_S2_
FNDA:16,_ZSt12__miter_baseIPKiET_S2_
DA:428,16
DA:429,16
end_of_record
SF:/usr/local/include/gmock/gmock-matchers.h
FN:90,_ZN7testing25StringMatchResultListenerC2Ev
FNDA:0,_ZN7testing25StringMatchResultListenerC2Ev
FN:93,_ZNK7testing25StringMatchResultListener3strB5cxx11Ev
FNDA:0,_ZNK7testing25StringMatchResultListener3strB5cxx11Ev
FN:121,_ZN7testing8internal15MatcherCastImplIRKmNS0_9EqMatcherIiEEE4CastERKS5_
FNDA:0,_ZN7testing8internal15MatcherCastImplIRKmNS0_9EqMatcherIiEEE4CastERKS5_
FN:121,_ZN7testing8internal15MatcherCastImplIRKdNS0_17FloatingEqMatcherIdEEE4CastERKS5_
FNDA:173,_ZN7testing8internal15MatcherCastImplIRKdNS0_17FloatingEqMatcherIdEEE4CastERKS5_
FN:121,_ZN7testing8internal15MatcherCastImplIRKiNS0_9EqMatcherImEEE4CastERKS5_
FNDA:100,_ZN7testing8internal15MatcherCastImplIRKiNS0_9EqMatcherImEEE4CastERKS5_
FN:121,_ZN7testing8internal15MatcherCastImplIRKdNS0_9EqMatcherImEEE4CastERKS5_
FNDA:132,_ZN7testing8internal15MatcherCastImplIRKdNS0_9EqMatcherImEEE4CastERKS5_
FN:121,_ZN7testing8internal15MatcherCastImplIRKdNS0_9EqMatcherIiEEE4CastERKS5_
FNDA:4,_ZN7testing8internal15MatcherCastImplIRKdNS0_9EqMatcherIiEEE4CastERKS5_
FN:121,_ZN7testing8internal15MatcherCastImplIRKmNS0_9EqMatcherImEEE4CastERKS5_
FNDA:4,_ZN7testing8internal15MatcherCastImplIRKmNS0_9EqMatcherImEEE4CastERKS5_
FN:121,_ZN7testing8internal15MatcherCastImplIRKiNS0_9EqMatcherIiEEE4CastERKS5_
FNDA:46,_ZN7testing8internal15MatcherCastImplIRKiNS0_9EqMatcherIiEEE4CastERKS5_
FN:121,_ZN7testing8internal15MatcherCastImplIRKiNS0_9GtMatcherIiEEE4CastERKS5_
FNDA:4,_ZN7testing8internal15MatcherCastImplIRKiNS0_9GtMatcherIiEEE4CastERKS5_
FN:142,_ZN7testing8internal15MatcherCastImplIRKiNS0_9EqMatcherImEEE8CastImplILb0EEENS_7MatcherIS3_EERKS5_St17integral_constantIbLb1EESC_IbXT_EE
FNDA:100,_ZN7testing8internal15MatcherCastImplIRKiNS0_9EqMatcherImEEE8CastImplILb0EEENS_7MatcherIS3_EERKS5_St17integral_constantIbLb1EESC_IbXT_EE
FN:142,_ZN7testing8internal15MatcherCastImplIRKmNS0_9EqMatcherIiEEE8CastImplILb0EEENS_7MatcherIS3_EERKS5_St17integral_constantIbLb1EESC_IbXT_EE
FNDA:0,_ZN7testing8internal15MatcherCastImplIRKmNS0_9EqMatcherIiEEE8CastImplILb0EEENS_7MatcherIS3_EERKS5_St17integral_constantIbLb1EESC_IbXT_EE
FN:142,_ZN7testing8internal15MatcherCastImplIRKdNS0_17FloatingEqMatcherIdEEE8CastImplILb0EEENS_7MatcherIS3_EERKS5_St17integral_constantIbLb1EESC_IbXT_EE
FNDA:173,_ZN7testing8internal15MatcherCastImplIRKdNS0_17FloatingEqMatcherIdEEE8CastImplILb0EEENS_7MatcherIS3_EERKS5_St17integral_constantIbLb1EESC_IbXT_EE
FN:142,_ZN7testing8internal15MatcherCastImplIRKdNS0_9EqMatcherIiEEE8CastImplILb0EEENS_7MatcherIS3_EERKS5_St17integral_constantIbLb1EESC_IbXT_EE
FNDA:4,_ZN7testing8internal15MatcherCastImplIRKdNS0_9EqMatcherIiEEE8CastImplILb0EEENS_7MatcherIS3_EERKS5_St17integral_constantIbLb1EESC_IbXT_EE
FN:142,_ZN7testing8internal15MatcherCastImplIRKmNS0_9EqMatcherImEEE8CastImplILb0EEENS_7MatcherIS3_EERKS5_St17integral_constantIbLb1EESC_IbXT_EE
FNDA:4,_ZN7testing8internal15MatcherCastImplIRKmNS0_9EqMatcherImEEE8CastImplILb0EEENS_7MatcherIS3_EERKS5_St17integral_constantIbLb1EESC_IbXT_EE
FN:142,_ZN7testing8internal15MatcherCastImplIRKiNS0_9EqMatcherIiEEE8CastImplILb0EEENS_7MatcherIS3_EERKS5_St17integral_constantIbLb1EESC_IbXT_EE
FNDA:46,_ZN7testing8internal15MatcherCastImplIRKiNS0_9EqMatcherIiEEE8CastImplILb0EEENS_7MatcherIS3_EERKS5_St17integral_constantIbLb1EESC_IbXT_EE
FN:142,_ZN7testing8internal15MatcherCastImplIRKiNS0_9GtMatcherIiEEE8CastImplILb0EEENS_7MatcherIS3_EERKS5_St17integral_constantIbLb1EESC_IbXT_EE
FNDA:4,_ZN7testing8internal15MatcherCastImplIRKiNS0_9GtMatcherIiEEE8CastImplILb0EEENS_7MatcherIS3_EERKS5_St17integral_constantIbLb1EESC_IbXT_EE
FN:142,_ZN7testing8internal15MatcherCastImplIRKdNS0_9EqMatcherImEEE8CastImplILb0EEENS_7MatcherIS3_EERKS5_St17integral_constantIbLb1EESC_IbXT_EE
FNDA:132,_ZN7testing8internal15MatcherCastImplIRKdNS0_9EqMatcherImEEE8CastImplILb0EEENS_7MatcherIS3_EERKS5_St17integral_constantIbLb1EESC_IbXT_EE
FN:259,_ZN7testing19SafeMatcherCastImplIRKdE4CastINS_8internal9EqMatcherIiEEEENS_7MatcherIS2_EERKT_
FNDA:4,_ZN7testing19SafeMatcherCastImplIRKdE4CastINS_8internal9EqMatcherIiEEEENS_7MatcherIS2_EERKT_
FN:259,_ZN7testing19SafeMatcherCastImplIRKdE4CastINS_8internal17FloatingEqMatcherIdEEEENS_7MatcherIS2_EERKT_
FNDA:173,_ZN7testing19SafeMatcherCastImplIRKdE4CastINS_8internal17FloatingEqMatcherIdEEEENS_7MatcherIS2_EERKT_
FN:259,_ZN7testing19SafeMatcherCastImplIRKmE4CastINS_8internal9EqMatcherIiEEEENS_7MatcherIS2_EERKT_
FNDA:0,_ZN7testing19SafeMatcherCastImplIRKmE4CastINS_8internal9EqMatcherIiEEEENS_7MatcherIS2_EERKT_
FN:259,_ZN7testing19SafeMatcherCastImplIRKiE4CastINS_8internal9EqMatcherImEEEENS_7MatcherIS2_EERKT_
FNDA:100,_ZN7testing19SafeMatcherCastImplIRKiE4CastINS_8internal9EqMatcherImEEEENS_7MatcherIS2_EERKT_
FN:259,_ZN7testing19SafeMatcherCastImplIRKdE4CastINS_8internal9EqMatcherImEEEENS_7MatcherIS2_EERKT_
FNDA:132,_ZN7testing19SafeMatcherCastImplIRKdE4CastINS_8internal9EqMatcherImEEEENS_7MatcherIS2_EERKT_
FN:259,_ZN7testing19SafeMatcherCastImplIRKmE4CastINS_8internal9EqMatcherImEEEENS_7MatcherIS2_EERKT_
FNDA:4,_ZN7testing19SafeMatcherCastImplIRKmE4CastINS_8internal9EqMatcherImEEEENS_7MatcherIS2_EERKT_
FN:259,_ZN7testing19SafeMatcherCastImplIRKiE4CastINS_8internal9GtMatcherIiEEEENS_7MatcherIS2_EERKT_
FNDA:4,_ZN7testing19SafeMatcherCastImplIRKiE4CastINS_8internal9GtMatcherIiEEEENS_7MatcherIS2_EERKT_
FN:259,_ZN7testing19SafeMatcherCastImplIRKiE4CastINS_8internal9EqMatcherIiEEEENS_7MatcherIS2_EERKT_
FNDA:46,_ZN7testing19SafeMatcherCastImplIRKiE4CastINS_8internal9EqMatcherIiEEEENS_7MatcherIS2_EERKT_
FN:297,_ZN7testing15SafeMatcherCastIRKmNS_8internal9EqMatcherIiEEEENS_7MatcherIT_EERKT0_
FNDA:0,_ZN7testing15SafeMatcherCastIRKmNS_8internal9EqMatcherIiEEEENS_7MatcherIT_EERKT0_
FN:297,_ZN7testing15SafeMatcherCastIRKiNS_8internal9EqMatcherImEEEENS_7MatcherIT_EERKT0_
FNDA:100,_ZN7testing15SafeMatcherCastIRKiNS_8internal9EqMatcherImEEEENS_7MatcherIT_EERKT0_
FN:297,_ZN7testing15SafeMatcherCastIRKdNS_8internal9EqMatcherImEEEENS_7MatcherIT_EERKT0_
FNDA:132,_ZN7testing15SafeMatcherCastIRKdNS_8internal9EqMatcherImEEEENS_7MatcherIT_EERKT0_
FN:297,_ZN7testing15SafeMatcherCastIRKdNS_8internal9EqMatcherIiEEEENS_7MatcherIT_EERKT0_
FNDA:4,_ZN7testing15SafeMatcherCastIRKdNS_8internal9EqMatcherIiEEEENS_7MatcherIT_EERKT0_
FN:297,_ZN7testing15SafeMatcherCastIRKmNS_8internal9EqMatcherImEEEENS_7MatcherIT_EERKT0_
FNDA:4,_ZN7testing15SafeMatcherCastIRKmNS_8internal9EqMatcherImEEEENS_7MatcherIT_EERKT0_
FN:297,_ZN7testing15SafeMatcherCastIRKiNS_8internal9EqMatcherIiEEEENS_7MatcherIT_EERKT0_
FNDA:46,_ZN7testing15SafeMatcherCastIRKiNS_8internal9EqMatcherIiEEEENS_7MatcherIT_EERKT0_
FN:297,_ZN7testing15SafeMatcherCastIRKdNS_8internal17FloatingEqMatcherIdEEEENS_7MatcherIT_EERKT0_
FNDA:173,_ZN7testing15SafeMatcherCastIRKdNS_8internal17FloatingEqMatcherIdEEEENS_7MatcherIT_EERKT0_
FN:297,_ZN7testing15SafeMatcherCastIRKiNS_8internal9GtMatcherIiEEEENS_7MatcherIT_EERKT0_
FNDA:4,_ZN7testing15SafeMatcherCastIRKiNS_8internal9GtMatcherIiEEEENS_7MatcherIT_EERKT0_
FN:310,_ZN7testing8internal15PrintIfNotEmptyERKNSt7__cxx1112basic_stringIcSt11char_traitsIcESaIcEEEPSo
FNDA:0,_ZN7testing8internal15PrintIfNotEmptyERKNSt7__cxx1112basic_stringIcSt11char_traitsIcESaIcEEEPSo
FN:320,_ZN7testing8internal18IsReadableTypeNameERKNSt7__cxx1112basic_stringIcSt11char_traitsIcESaIcEEE
FNDA:0,_ZN7testing8internal18IsReadableTypeNameERKNSt7__cxx1112basic_stringIcSt11char_traitsIcESaIcEEE
FN:333,_ZN7testing8internal20MatchPrintAndExplainIKiRS2_EEbRT_RKNS_7MatcherIT0_EEPNS_19MatchResultListenerE
FNDA:0,_ZN7testing8internal20MatchPrintAndExplainIKiRS2_EEbRT_RKNS_7MatcherIT0_EEPNS_19MatchResultListenerE
FN:333,_ZN7testing8internal20MatchPrintAndExplainIKdRS2_EEbRT_RKNS_7MatcherIT0_EEPNS_19MatchResultListenerE
FNDA:0,_ZN7testing8internal20MatchPrintAndExplainIKdRS2_EEbRT_RKNS_7MatcherIT0_EEPNS_19MatchResultListenerE
FN:333,_ZN7testing8internal20MatchPrintAndExplainIKmRS2_EEbRT_RKNS_7MatcherIT0_EEPNS_19MatchResultListenerE
FNDA:0,_ZN7testing8internal20MatchPrintAndExplainIKmRS2_EEbRT_RKNS_7MatcherIT0_EEPNS_19MatchResultListenerE
FN:1295,_ZN7testing8internal29PredicateFormatterFromMatcherINS0_17FloatingEqMatcherIdEEEC2ES3_
FNDA:173,_ZN7testing8internal29PredicateFormatterFromMatcherINS0_17FloatingEqMatcherIdEEEC2ES3_
FN:1295,_ZN7testing8internal29PredicateFormatterFromMatcherINS0_9GtMatcherIiEEEC2ES3_
FNDA:4,_ZN7testing8internal29PredicateFormatterFromMatcherINS0_9GtMatcherIiEEEC2ES3_
FN:1295,_ZN7testing8internal29PredicateFormatterFromMatcherINS0_9EqMatcherImEEEC2ES3_
FNDA:236,_ZN7testing8internal29PredicateFormatterFromMatcherINS0_9EqMatcherImEEEC2ES3_
FN:1295,_ZN7testing8internal29PredicateFormatterFromMatcherINS0_9EqMatcherIiEEEC2ES3_
FNDA:0,_ZN7testing8internal29PredicateFormatterFromMatcherINS0_9EqMatcherIiEEEC2ES3_
FN:1301,_ZNK7testing8internal29PredicateFormatterFromMatcherINS0_17FloatingEqMatcherIdEEEclIdEENS_15AssertionResultEPKcRKT_
FNDA:173,_ZNK7testing8internal29PredicateFormatterFromMatcherINS0_17FloatingEqMatcherIdEEEclIdEENS_15AssertionResultEPKcRKT_
FN:1301,_ZNK7testing8internal29PredicateFormatterFromMatcherINS0_9GtMatcherIiEEEclIiEENS_15AssertionResultEPKcRKT_
FNDA:4,_ZNK7testing8internal29PredicateFormatterFromMatcherINS0_9GtMatcherIiEEEclIiEENS_15AssertionResultEPKcRKT_
FN:1301,_ZNK7testing8internal29PredicateFormatterFromMatcherINS0_9EqMatcherIiEEEclIiEENS_15AssertionResultEPKcRKT_
FNDA:46,_ZNK7testing8internal29PredicateFormatterFromMatcherINS0_9EqMatcherIiEEEclIiEENS_15AssertionResultEPKcRKT_
FN:1301,_ZNK7testing8internal29PredicateFormatterFromMatcherINS0_9EqMatcherImEEEclImEENS_15AssertionResultEPKcRKT_
FNDA:4,_ZNK7testing8internal29PredicateFormatterFromMatcherINS0_9EqMatcherImEEEclImEENS_15AssertionResultEPKcRKT_
FN:1301,_ZNK7testing8internal29PredicateFormatterFromMatcherINS0_9EqMatcherIiEEEclIdEENS_15AssertionResultEPKcRKT_
FNDA:4,_ZNK7testing8internal29PredicateFormatterFromMatcherINS0_9EqMatcherIiEEEclIdEENS_15AssertionResultEPKcRKT_
FN:1301,_ZNK7testing8internal29PredicateFormatterFromMatcherINS0_9EqMatcherImEEEclIdEENS_15AssertionResultEPKcRKT_
FNDA:132,_ZNK7testing8internal29PredicateFormatterFromMatcherINS0_9EqMatcherImEEEclIdEENS_15AssertionResultEPKcRKT_
FN:1301,_ZNK7testing8internal29PredicateFormatterFromMatcherINS0_9EqMatcherImEEEclIiEENS_15AssertionResultEPKcRKT_
FNDA:100,_ZNK7testing8internal29PredicateFormatterFromMatcherINS0_9EqMatcherImEEEclIiEENS_15AssertionResultEPKcRKT_
FN:1301,_ZNK7testing8internal29PredicateFormatterFromMatcherINS0_9EqMatcherIiEEEclImEENS_15AssertionResultEPKcRKT_
FNDA:0,_ZNK7testing8internal29PredicateFormatterFromMatcherINS0_9EqMatcherIiEEEclImEENS_15AssertionResultEPKcRKT_
FN:1348,_ZN7testing8internal33MakePredicateFormatterFromMatcherINS0_9EqMatcherImEEEENS0_29PredicateFormatterFromMatcherIT_EES5_
FNDA:236,_ZN7testing8internal33MakePredicateFormatterFromMatcherINS0_9EqMatcherImEEEENS0_29PredicateFormatterFromMatcherIT_EES5_
FN:1348,_ZN7testing8internal33MakePredicateFormatterFromMatcherINS0_17FloatingEqMatcherIdEEEENS0_29PredicateFormatterFromMatcherIT_EES5_
FNDA:173,_ZN7testing8internal33MakePredicateFormatterFromMatcherINS0_17FloatingEqMatcherIdEEEENS0_29PredicateFormatterFromMatcherIT_EES5_
FN:1348,_ZN7testing8internal33MakePredicateFormatterFromMatcherINS0_9EqMatcherIiEEEENS0_29PredicateFormatterFromMatcherIT_EES5_
FNDA:0,_ZN7testing8internal33MakePredicateFormatterFromMatcherINS0_9EqMatcherIiEEEENS0_29PredicateFormatterFromMatcherIT_EES5_
FN:1348,_ZN7testing8internal33MakePredicateFormatterFromMatcherINS0_9GtMatcherIiEEEENS0_29PredicateFormatterFromMatcherIT_EES5_
FNDA:4,_ZN7testing8internal33MakePredicateFormatterFromMatcherINS0_9GtMatcherIiEEEENS0_29PredicateFormatterFromMatcherIT_EES5_
FN:1365,_ZN7testing8internal17FloatingEqMatcherIdEC2Edb
FNDA:4,_ZN7testing8internal17FloatingEqMatcherIdEC2Edb
FN:1385,_ZN7testing8internal17FloatingEqMatcherIdE4ImplIRKdEC2Edbd
FNDA:173,_ZN7testing8internal17FloatingEqMatcherIdE4ImplIRKdEC2Edbd
FN:1390,_ZNK7testing8internal17FloatingEqMatcherIdE4ImplIRKdE15MatchAndExplainES5_PNS_19MatchResultListenerE
FNDA:173,_ZNK7testing8internal17FloatingEqMatcherIdE4ImplIRKdE15MatchAndExplainES5_PNS_19MatchResultListenerE
FN:1425,_ZNK7testing8internal17FloatingEqMatcherIdE4ImplIRKdE10DescribeToEPSo
FNDA:0,_ZNK7testing8internal17FloatingEqMatcherIdE4ImplIRKdE10DescribeToEPSo
FN:1446,_ZNK7testing8internal17FloatingEqMatcherIdE4ImplIRKdE18DescribeNegationToEPSo
FNDA:0,_ZNK7testing8internal17FloatingEqMatcherIdE4ImplIRKdE18DescribeNegationToEPSo
FN:1467,_ZNK7testing8internal17FloatingEqMatcherIdE4ImplIRKdE14HasMaxAbsErrorEv
FNDA:173,_ZNK7testing8internal17FloatingEqMatcherIdE4ImplIRKdE14HasMaxAbsErrorEv
FN:1490,_ZNK7testing8internal17FloatingEqMatcherIdEcvNS_7MatcherIRKdEEEv
FNDA:173,_ZNK7testing8internal17FloatingEqMatcherIdEcvNS_7MatcherIRKdEEEv
FN:3631,_ZN7testing8DoubleEqEd
FNDA:4,_ZN7testing8DoubleEqEd
DA:90,0
DA:93,0
DA:121,4
DA:137,4
DA:121,46
DA:137,46
DA:121,4
DA:137,4
DA:121,4
DA:137,4
DA:121,132
DA:137,132
DA:121,100
DA:137,100
DA:121,0
DA:137,0
DA:121,173
DA:137,173
DA:142,4
DA:153,4
DA:142,46
DA:153,46
DA:142,4
DA:153,4
DA:142,4
DA:153,4
DA:142,132
DA:153,132
DA:142,100
DA:153,100
DA:142,0
DA:153,0
DA:142,173
DA:153,173
DA:259,4
DA:260,4
DA:259,46
DA:260,46
DA:259,4
DA:260,4
DA:259,4
DA:260,4
DA:259,132
DA:260,132
DA:259,100
DA:260,100
DA:259,0
DA:260,0
DA:259,173
DA:260,173
DA:297,4
DA:298,4
DA:297,46
DA:298,46
DA:297,4
DA:298,4
DA:297,4
DA:298,4
DA:297,132
DA:298,132
DA:297,100
DA:298,100
DA:297,0
DA:298,0
DA:297,173
DA:298,173
DA:310,0
DA:312,0
DA:313,0
DA:315,0
DA:320,0
DA:323,0
DA:324,0
DA:333,0
DA:335,0
DA:338,0
DA:341,0
DA:342,0
DA:344,0
DA:346,0
DA:347,0
DA:348,0
DA:350,0
DA:352,0
DA:333,0
DA:335,0
DA:338,0
DA:341,0
DA:342,0
DA:344,0
DA:346,0
DA:347,0
DA:348,0
DA:350,0
DA:352,0
DA:333,0
DA:335,0
DA:338,0
DA:341,0
DA:342,0
DA:344,0
DA:346,0
DA:347,0
DA:348,0
DA:350,0
DA:352,0
DA:1295,4
DA:1295,236
DA:1295,0
DA:1295,173
DA:1301,4
DA:1313,8
DA:1317,4
DA:1318,4
DA:1321,0
DA:1323,0
DA:1324,0
DA:1327,0
DA:1328,0
DA:1329,0
DA:1332,0
DA:1333,0
DA:1301,46
DA:1313,92
DA:1317,46
DA:1318,46
DA:1321,0
DA:1323,0
DA:1324,0
DA:1327,0
DA:1328,0
DA:1329,0
DA:1332,0
DA:1333,0
DA:1301,4
DA:1313,8
DA:1317,4
DA:1318,4
DA:1321,0
DA:1323,0
DA:1324,0
DA:1327,0
DA:1328,0
DA:1329,0
DA:1332,0
DA:1333,0
DA:1301,4
DA:1313,8
DA:1317,4
DA:1318,4
DA:1321,0
DA:1323,0
DA:1324,0
DA:1327,0
DA:1328,0
DA:1329,0
DA:1332,0
DA:1333,0
DA:1301,132
DA:1313,264
DA:1317,132
DA:1318,132
DA:1321,0
DA:1323,0
DA:1324,0
DA:1327,0
DA:1328,0
DA:1329,0
DA:1332,0
DA:1333,0
DA:1301,100
DA:1313,200
DA:1317,100
DA:1318,100
DA:1321,0
DA:1323,0
DA:1324,0
DA:1327,0
DA:1328,0
DA:1329,0
DA:1332,0
DA:1333,0
DA:1301,0
DA:1313,0
DA:1317,0
DA:1318,0
DA:1321,0
DA:1323,0
DA:1324,0
DA:1327,0
DA:1328,0
DA:1329,0
DA:1332,0
DA:1333,0
DA:1301,173
DA:1313,346
DA:1317,173
DA:1318,173
DA:1321,0
DA:1323,0
DA:1324,0
DA:1327,0
DA:1328,0
DA:1329,0
DA:1332,0
DA:1333,0
DA:1348,4
DA:1349,4
DA:1348,236
DA:1349,236
DA:1348,0
DA:1349,0
DA:1348,173
DA:1349,173
DA:1365,4
DA:1366,4
DA:1367,4
DA:1385,173
DA:1388,173
DA:1390,173
DA:1392,173
DA:1395,173
DA:1396,0
DA:1397,0
DA:1400,0
DA:1402,173
DA:1407,169
DA:1408,73
DA:1411,96
DA:1412,96
DA:1413,96
DA:1416,0
DA:1417,0
DA:1419,0
DA:1421,4
DA:1425,0
DA:1429,0
DA:1431,0
DA:1432,0
DA:1433,0
DA:1435,0
DA:1438,0
DA:1439,0
DA:1440,0
DA:1443,0
DA:1444,0
DA:1446,0
DA:1448,0
DA:1450,0
DA:1451,0
DA:1452,0
DA:1454,0
DA:1457,0
DA:1458,0
DA:1459,0
DA:1463,0
DA:1464,0
DA:1467,173
DA:1468,173
DA:1490,173
DA:1492,173
DA:3631,4
DA:3632,4
end_of_record
SF:/usr/include/c++/9/bits/stl_uninitialized.h
FN:99,_ZNSt20__uninitialized_copyILb1EE13__uninit_copyIPKiPiEET0_T_S6_S5_
FNDA:8,_ZNSt20__uninitialized_copyILb1EE13__uninit_copyIPKiPiEET0_T_S6_S5_
FN:115,_ZSt18uninitialized_copyIPKiPiET0_T_S4_S3_
FNDA:8,_ZSt18uninitialized_copyIPKiPiET0_T_S4_S3_
FN:238,_ZNSt22__uninitialized_fill_nILb1EE15__uninit_fill_nIPdmdEET_S3_T0_RKT1_
FNDA:23,_ZNSt22__uninitialized_fill_nILb1EE15__uninit_fill_nIPdmdEET_S3_T0_RKT1_
FN:256,_ZSt20uninitialized_fill_nIPdmdET_S1_T0_RKT1_
FNDA:23,_ZSt20uninitialized_fill_nIPdmdET_S1_T0_RKT1_
FN:305,_ZSt22__uninitialized_copy_aIPKiPiiET0_T_S4_S3_RSaIT1_E
FNDA:8,_ZSt22__uninitialized_copy_aIPKiPiiET0_T_S4_S3_RSaIT1_E
FN:382,_ZSt24__uninitialized_fill_n_aIPdmddET_S1_T0_RKT1_RSaIT2_E
FNDA:23,_ZSt24__uninitialized_fill_n_aIPdmddET_S1_T0_RKT1_RSaIT2_E
FN:561,_ZNSt27__uninitialized_default_n_1ILb1EE18__uninit_default_nIPimEET_S3_T0_
FNDA:1,_ZNSt27__uninitialized_default_n_1ILb1EE18__uninit_default_nIPimEET_S3_T0_
FN:592,_ZSt25__uninitialized_default_nIPimET_S1_T0_
FNDA:1,_ZSt25__uninitialized_default_nIPimET_S1_T0_
FN:661,_ZSt27__uninitialized_default_n_aIPimiET_S1_T0_RSaIT1_E
FNDA:1,_ZSt27__uninitialized_default_n_aIPimiET_S1_T0_RSaIT1_E
DA:99,8
DA:101,8
DA:115,8
DA:134,8
DA:140,8
DA:238,23
DA:240,23
DA:256,23
DA:270,23
DA:273,23
DA:305,8
DA:307,8
DA:382,23
DA:384,23
DA:561,1
DA:566,1
DA:592,1
DA:597,1
DA:601,1
DA:661,1
DA:663,1
end_of_record
SF:/usr/include/c++/9/bits/basic_string.h
FN:243,_ZNSt7__cxx1112basic_stringIcSt11char_traitsIcESaIcEE16_M_construct_auxIPcEEvT_S7_St12__false_type
FNDA:19,_ZNSt7__cxx1112basic_stringIcSt11char_traitsIcESaIcEE16_M_construct_auxIPcEEvT_S7_St12__false_type
FN:243,_ZNSt7__cxx1112basic_stringIcSt11char_traitsIcESaIcEE16_M_construct_auxIPKcEEvT_S8_St12__false_type
FNDA:0,_ZNSt7__cxx1112basic_stringIcSt11char_traitsIcESaIcEE16_M_construct_auxIPKcEEvT_S8_St12__false_type
FN:263,_ZNSt7__cxx1112basic_stringIcSt11char_traitsIcESaIcEE12_M_constructIPcEEvT_S7_
FNDA:19,_ZNSt7__cxx1112basic_stringIcSt11char_traitsIcESaIcEE12_M_constructIPcEEvT_S7_
FN:263,_ZNSt7__cxx1112basic_stringIcSt11char_traitsIcESaIcEE12_M_constructIPKcEEvT_S8_
FNDA:0,_ZNSt7__cxx1112basic_stringIcSt11char_traitsIcESaIcEE12_M_constructIPKcEEvT_S8_
FN:525,_ZNSt7__cxx1112basic_stringIcSt11char_traitsIcESaIcEEC2IS3_EEPKcRKS3_
FNDA:0,_ZNSt7__cxx1112basic_stringIcSt11char_traitsIcESaIcEEC2IS3_EEPKcRKS3_
FN:625,_ZNSt7__cxx1112basic_stringIcSt11char_traitsIcESaIcEEC2IPcvEET_S7_RKS3_
FNDA:19,_ZNSt7__cxx1112basic_stringIcSt11char_traitsIcESaIcEEC2IPcvEET_S7_RKS3_
FN:6109,_ZStplIcSt11char_traitsIcESaIcEENSt7__cxx1112basic_stringIT_T0_T1_EEPKS5_OS8_
FNDA:13,_ZStplIcSt11char_traitsIcESaIcEENSt7__cxx1112basic_stringIT_T0_T1_EEPKS5_OS8_
FN:6121,_ZStplIcSt11char_traitsIcESaIcEENSt7__cxx1112basic_stringIT_T0_T1_EEOS8_PKS5_
FNDA:11675,_ZStplIcSt11char_traitsIcESaIcEENSt7__cxx1112basic_stringIT_T0_T1_EEOS8_PKS5_
FN:6175,_ZSteqIcSt11char_traitsIcESaIcEEbRKNSt7__cxx1112basic_stringIT_T0_T1_EEPKS5_
FNDA:0,_ZSteqIcSt11char_traitsIcESaIcEEbRKNSt7__cxx1112basic_stringIT_T0_T1_EEPKS5_
FN:6213,_ZStneIcSt11char_traitsIcESaIcEEbRKNSt7__cxx1112basic_stringIT_T0_T1_EEPKS5_
FNDA:0,_ZStneIcSt11char_traitsIcESaIcEEbRKNSt7__cxx1112basic_stringIT_T0_T1_EEPKS5_
FN:6562,_ZNSt7__cxx119to_stringEm
FNDA:9,_ZNSt7__cxx119to_stringEm
DA:243,19
DA:247,19
DA:248,19
DA:243,0
DA:247,0
DA:248,0
DA:263,19
DA:266,19
DA:267,19
DA:263,0
DA:266,0
DA:267,0
DA:525,0
DA:526,0
DA:527,0
DA:625,19
DA:627,19
DA:628,19
DA:6109,13
DA:6111,13
DA:6121,11675
DA:6123,11675
DA:6175,0
DA:6177,0
DA:6213,0
DA:6215,0
DA:6562,9
DA:6565,9
end_of_record
SF:/usr/include/c++/9/ext/string_conversions.h
FN:99,_ZN9__gnu_cxx12__to_xstringINSt7__cxx1112basic_stringIcSt11char_traitsIcESaIcEEEcEET_PFiPT0_mPKS8_P13__va_list_tagEmSB_z
FNDA:19,_ZN9__gnu_cxx12__to_xstringINSt7__cxx1112basic_stringIcSt11char_traitsIcESaIcEEEcEET_PFiPT0_mPKS8_P13__va_list_tagEmSB_z
DA:99,19
DA:105,19
DA:109,19
DA:111,19
DA:113,19
DA:115,19
end_of_record
SF:/usr/local/include/gtest/gtest-matchers.h
FN:85,_ZN7testing19MatchResultListenerC2EPSo
FNDA:0,_ZN7testing19MatchResultListenerC2EPSo
FN:91,_ZN7testing19MatchResultListenerlsIdEERS0_RKT_
FNDA:0,_ZN7testing19MatchResultListenerlsIdEERS0_RKT_
FN:91,_ZN7testing19MatchResultListenerlsIA10_cEERS0_RKT_
FNDA:0,_ZN7testing19MatchResultListenerlsIA10_cEERS0_RKT_
FN:91,_ZN7testing19MatchResultListenerlsIA7_cEERS0_RKT_
FNDA:0,_ZN7testing19MatchResultListenerlsIA7_cEERS0_RKT_
FN:97,_ZN7testing19MatchResultListener6streamEv
FNDA:0,_ZN7testing19MatchResultListener6streamEv
FN:103,_ZNK7testing19MatchResultListener12IsInterestedEv
FNDA:0,_ZNK7testing19MatchResultListener12IsInterestedEv
FN:111,_ZN7testing19MatchResultListenerD2Ev
FNDA:0,_ZN7testing19MatchResultListenerD2Ev
FN:111,_ZN7testing19MatchResultListenerD0Ev
FNDA:0,_ZN7testing19MatchResultListenerD0Ev
FN:118,_ZN7testing25MatcherDescriberInterfaceD2Ev
FNDA:0,_ZN7testing25MatcherDescriberInterfaceD2Ev
FN:118,_ZN7testing25MatcherDescriberInterfaceD0Ev
FNDA:0,_ZN7testing25MatcherDescriberInterfaceD0Ev
FN:133,_ZNK7testing25MatcherDescriberInterface18DescribeNegationToEPSo
FNDA:0,_ZNK7testing25MatcherDescriberInterface18DescribeNegationToEPSo
FN:211,_ZNK7testing8internal5AnyEqclImiEEbRKT_RKT0_
FNDA:0,_ZNK7testing8internal5AnyEqclImiEEbRKT_RKT0_
FN:211,_ZNK7testing8internal5AnyEqclIimEEbRKT_RKT0_
FNDA:100,_ZNK7testing8internal5AnyEqclIimEEbRKT_RKT0_
FN:211,_ZNK7testing8internal5AnyEqclIdmEEbRKT_RKT0_
FNDA:132,_ZNK7testing8internal5AnyEqclIdmEEbRKT_RKT0_
FN:211,_ZNK7testing8internal5AnyEqclIdiEEbRKT_RKT0_
FNDA:4,_ZNK7testing8internal5AnyEqclIdiEEbRKT_RKT0_
FN:211,_ZNK7testing8internal5AnyEqclImmEEbRKT_RKT0_
FNDA:4,_ZNK7testing8internal5AnyEqclImmEEbRKT_RKT0_
FN:211,_ZNK7testing8internal5AnyEqclIiiEEbRKT_RKT0_
FNDA:46,_ZNK7testing8internal5AnyEqclIiiEEbRKT_RKT0_
FN:223,_ZNK7testing8internal5AnyGtclIiiEEbRKT_RKT0_
FNDA:4,_ZNK7testing8internal5AnyGtclIiiEEbRKT_RKT0_
FN:237,_ZN7testing8internal24DummyMatchResultListenerC2Ev
FNDA:0,_ZN7testing8internal24DummyMatchResultListenerC2Ev
FN:263,_ZNK7testing8internal11MatcherBaseIRKiE15MatchAndExplainES3_PNS_19MatchResultListenerE
FNDA:150,_ZNK7testing8internal11MatcherBaseIRKiE15MatchAndExplainES3_PNS_19MatchResultListenerE
FN:263,_ZNK7testing8internal11MatcherBaseIRKmE15MatchAndExplainES3_PNS_19MatchResultListenerE
FNDA:0,_ZNK7testing8internal11MatcherBaseIRKmE15MatchAndExplainES3_PNS_19MatchResultListenerE
FN:263,_ZNK7testing8internal11MatcherBaseIRKdE15MatchAndExplainES3_PNS_19MatchResultListenerE
FNDA:0,_ZNK7testing8internal11MatcherBaseIRKdE15MatchAndExplainES3_PNS_19MatchResultListenerE
FN:268,_ZNK7testing8internal11MatcherBaseIRKmE7MatchesES3_
FNDA:0,_ZNK7testing8internal11MatcherBaseIRKmE7MatchesES3_
FN:268,_ZNK7testing8internal11MatcherBaseIRKiE7MatchesES3_
FNDA:150,_ZNK7testing8internal11MatcherBaseIRKiE7MatchesES3_
FN:268,_ZNK7testing8internal11MatcherBaseIRKdE7MatchesES3_
FNDA:0,_ZNK7testing8internal11MatcherBaseIRKdE7MatchesES3_
FN:274,_ZNK7testing8internal11MatcherBaseIRKmE10DescribeToEPSo
FNDA:0,_ZNK7testing8internal11MatcherBaseIRKmE10DescribeToEPSo
FN:274,_ZNK7testing8internal11MatcherBaseIRKiE10DescribeToEPSo
FNDA:0,_ZNK7testing8internal11MatcherBaseIRKiE10DescribeToEPSo
FN:274,_ZNK7testing8internal11MatcherBaseIRKdE10DescribeToEPSo
FNDA:0,_ZNK7testing8internal11MatcherBaseIRKdE10DescribeToEPSo
FN:298,_ZN7testing8internal11MatcherBaseIRKdEC2EPKNS_16MatcherInterfaceIS3_EE
FNDA:0,_ZN7testing8internal11MatcherBaseIRKdEC2EPKNS_16MatcherInterfaceIS3_EE
FN:298,_ZN7testing8internal11MatcherBaseIRKiEC2EPKNS_16MatcherInterfaceIS3_EE
FNDA:150,_ZN7testing8internal11MatcherBaseIRKiEC2EPKNS_16MatcherInterfaceIS3_EE
FN:298,_ZN7testing8internal11MatcherBaseIRKmEC2EPKNS_16MatcherInterfaceIS3_EE
FNDA:0,_ZN7testing8internal11MatcherBaseIRKmEC2EPKNS_16MatcherInterfaceIS3_EE
FN:312,_ZN7testing8internal11MatcherBaseIRKiED0Ev
FNDA:0,_ZN7testing8internal11MatcherBaseIRKiED0Ev
FN:312,_ZN7testing8internal11MatcherBaseIRKiED2Ev
FNDA:150,_ZN7testing8internal11MatcherBaseIRKiED2Ev
FN:312,_ZN7testing8internal11MatcherBaseIRKdED0Ev
FNDA:0,_ZN7testing8internal11MatcherBaseIRKdED0Ev
FN:312,_ZN7testing8internal11MatcherBaseIRKdED2Ev
FNDA:0,_ZN7testing8internal11MatcherBaseIRKdED2Ev
FN:312,_ZN7testing8internal11MatcherBaseIRKmED0Ev
FNDA:0,_ZN7testing8internal11MatcherBaseIRKmED0Ev
FN:312,_ZN7testing8internal11MatcherBaseIRKmED2Ev
FNDA:0,_ZN7testing8internal11MatcherBaseIRKmED2Ev
FN:333,_ZN7testing7MatcherIRKmEC2EPKNS_16MatcherInterfaceIS2_EE
FNDA:0,_ZN7testing7MatcherIRKmEC2EPKNS_16MatcherInterfaceIS2_EE
FN:333,_ZN7testing7MatcherIRKiEC2EPKNS_16MatcherInterfaceIS2_EE
FNDA:150,_ZN7testing7MatcherIRKiEC2EPKNS_16MatcherInterfaceIS2_EE
FN:333,_ZN7testing7MatcherIRKdEC2EPKNS_16MatcherInterfaceIS2_EE
FNDA:0,_ZN7testing7MatcherIRKdEC2EPKNS_16MatcherInterfaceIS2_EE
FN:501,_ZN7testing11MakeMatcherIRKdEENS_7MatcherIT_EEPKNS_16MatcherInterfaceIS4_EE
FNDA:173,_ZN7testing11MakeMatcherIRKdEENS_7MatcherIT_EEPKNS_16MatcherInterfaceIS4_EE
FN:531,_ZN7testing8internal14ComparisonBaseINS0_9EqMatcherImEEmNS0_5AnyEqEEC2ERKm
FNDA:236,_ZN7testing8internal14ComparisonBaseINS0_9EqMatcherImEEmNS0_5AnyEqEEC2ERKm
FN:531,_ZN7testing8internal14ComparisonBaseINS0_9EqMatcherIiEEiNS0_5AnyEqEEC2ERKi
FNDA:0,_ZN7testing8internal14ComparisonBaseINS0_9EqMatcherIiEEiNS0_5AnyEqEEC2ERKi
FN:531,_ZN7testing8internal14ComparisonBaseINS0_9GtMatcherIiEEiNS0_5AnyGtEEC2ERKi
FNDA:4,_ZN7testing8internal14ComparisonBaseINS0_9GtMatcherIiEEiNS0_5AnyGtEEC2ERKi
FN:533,_ZNK7testing8internal14ComparisonBaseINS0_9EqMatcherIiEEiNS0_5AnyEqEEcvNS_7MatcherIT_EEIRKmEEv
FNDA:0,_ZNK7testing8internal14ComparisonBaseINS0_9EqMatcherIiEEiNS0_5AnyEqEEcvNS_7MatcherIT_EEIRKmEEv
FN:533,_ZNK7testing8internal14ComparisonBaseINS0_9EqMatcherImEEmNS0_5AnyEqEEcvNS_7MatcherIT_EEIRKiEEv
FNDA:100,_ZNK7testing8internal14ComparisonBaseINS0_9EqMatcherImEEmNS0_5AnyEqEEcvNS_7MatcherIT_EEIRKiEEv
FN:533,_ZNK7testing8internal14ComparisonBaseINS0_9EqMatcherImEEmNS0_5AnyEqEEcvNS_7MatcherIT_EEIRKdEEv
FNDA:132,_ZNK7testing8internal14ComparisonBaseINS0_9EqMatcherImEEmNS0_5AnyEqEEcvNS_7MatcherIT_EEIRKdEEv
FN:533,_ZNK7testing8internal14ComparisonBaseINS0_9EqMatcherIiEEiNS0_5AnyEqEEcvNS_7MatcherIT_EEIRKdEEv
FNDA:4,_ZNK7testing8internal14ComparisonBaseINS0_9EqMatcherIiEEiNS0_5AnyEqEEcvNS_7MatcherIT_EEIRKdEEv
FN:533,_ZNK7testing8internal14ComparisonBaseINS0_9EqMatcherImEEmNS0_5AnyEqEEcvNS_7MatcherIT_EEIRKmEEv
FNDA:4,_ZNK7testing8internal14ComparisonBaseINS0_9EqMatcherImEEmNS0_5AnyEqEEcvNS_7MatcherIT_EEIRKmEEv
FN:533,_ZNK7testing8internal14ComparisonBaseINS0_9EqMatcherIiEEiNS0_5AnyEqEEcvNS_7MatcherIT_EEIRKiEEv
FNDA:46,_ZNK7testing8internal14ComparisonBaseINS0_9EqMatcherIiEEiNS0_5AnyEqEEcvNS_7MatcherIT_EEIRKiEEv
FN:533,_ZNK7testing8internal14ComparisonBaseINS0_9GtMatcherIiEEiNS0_5AnyGtEEcvNS_7MatcherIT_EEIRKiEEv
FNDA:4,_ZNK7testing8internal14ComparisonBaseINS0_9GtMatcherIiEEiNS0_5AnyGtEEcvNS_7MatcherIT_EEIRKiEEv
FN:539,_ZN7testing8internal14ComparisonBaseINS0_9EqMatcherImEEmNS0_5AnyEqEE6UnwrapImEERKT_S9_
FNDA:236,_ZN7testing8internal14ComparisonBaseINS0_9EqMatcherImEEmNS0_5AnyEqEE6UnwrapImEERKT_S9_
FN:539,_ZN7testing8internal14ComparisonBaseINS0_9EqMatcherIiEEiNS0_5AnyEqEE6UnwrapIiEERKT_S9_
FNDA:0,_ZN7testing8internal14ComparisonBaseINS0_9EqMatcherIiEEiNS0_5AnyEqEE6UnwrapIiEERKT_S9_
FN:539,_ZN7testing8internal14ComparisonBaseINS0_9GtMatcherIiEEiNS0_5AnyGtEE6UnwrapIiEERKT_S9_
FNDA:4,_ZN7testing8internal14ComparisonBaseINS0_9GtMatcherIiEEiNS0_5AnyGtEE6UnwrapIiEERKT_S9_
FN:546,_ZN7testing8internal14ComparisonBaseINS0_9EqMatcherIiEEiNS0_5AnyEqEE4ImplIRKmiEC2ERKi
FNDA:0,_ZN7testing8internal14ComparisonBaseINS0_9EqMatcherIiEEiNS0_5AnyEqEE4ImplIRKmiEC2ERKi
FN:546,_ZN7testing8internal14ComparisonBaseINS0_9EqMatcherImEEmNS0_5AnyEqEE4ImplIRKimEC2ERKm
FNDA:100,_ZN7testing8internal14ComparisonBaseINS0_9EqMatcherImEEmNS0_5AnyEqEE4ImplIRKimEC2ERKm
FN:546,_ZN7testing8internal14ComparisonBaseINS0_9EqMatcherImEEmNS0_5AnyEqEE4ImplIRKdmEC2ERKm
FNDA:132,_ZN7testing8internal14ComparisonBaseINS0_9EqMatcherImEEmNS0_5AnyEqEE4ImplIRKdmEC2ERKm
FN:546,_ZN7testing8internal14ComparisonBaseINS0_9EqMatcherIiEEiNS0_5AnyEqEE4ImplIRKdiEC2ERKi
FNDA:4,_ZN7testing8internal14ComparisonBaseINS0_9EqMatcherIiEEiNS0_5AnyEqEE4ImplIRKdiEC2ERKi
FN:546,_ZN7testing8internal14ComparisonBaseINS0_9EqMatcherImEEmNS0_5AnyEqEE4ImplIRKmmEC2ES8_
FNDA:4,_ZN7testing8internal14ComparisonBaseINS0_9EqMatcherImEEmNS0_5AnyEqEE4ImplIRKmmEC2ES8_
FN:546,_ZN7testing8internal14ComparisonBaseINS0_9EqMatcherIiEEiNS0_5AnyEqEE4ImplIRKiiEC2ES8_
FNDA:46,_ZN7testing8internal14ComparisonBaseINS0_9EqMatcherIiEEiNS0_5AnyEqEE4ImplIRKiiEC2ES8_
FN:546,_ZN7testing8internal14ComparisonBaseINS0_9GtMatcherIiEEiNS0_5AnyGtEE4ImplIRKiiEC2ES8_
FNDA:4,_ZN7testing8internal14ComparisonBaseINS0_9GtMatcherIiEEiNS0_5AnyGtEE4ImplIRKiiEC2ES8_
FN:547,_ZNK7testing8internal14ComparisonBaseINS0_9EqMatcherIiEEiNS0_5AnyEqEE4ImplIRKdiE15MatchAndExplainES8_PNS_19MatchResultListenerE
FNDA:4,_ZNK7testing8internal14ComparisonBaseINS0_9EqMatcherIiEEiNS0_5AnyEqEE4ImplIRKdiE15MatchAndExplainES8_PNS_19MatchResultListenerE
FN:547,_ZNK7testing8internal14ComparisonBaseINS0_9EqMatcherIiEEiNS0_5AnyEqEE4ImplIRKmiE15MatchAndExplainES8_PNS_19MatchResultListenerE
FNDA:0,_ZNK7testing8internal14ComparisonBaseINS0_9EqMatcherIiEEiNS0_5AnyEqEE4ImplIRKmiE15MatchAndExplainES8_PNS_19MatchResultListenerE
FN:547,_ZNK7testing8internal14ComparisonBaseINS0_9EqMatcherImEEmNS0_5AnyEqEE4ImplIRKmmE15MatchAndExplainES8_PNS_19MatchResultListenerE
FNDA:4,_ZNK7testing8internal14ComparisonBaseINS0_9EqMatcherImEEmNS0_5AnyEqEE4ImplIRKmmE15MatchAndExplainES8_PNS_19MatchResultListenerE
FN:547,_ZNK7testing8internal14ComparisonBaseINS0_9EqMatcherImEEmNS0_5AnyEqEE4ImplIRKimE15MatchAndExplainES8_PNS_19MatchResultListenerE
FNDA:100,_ZNK7testing8internal14ComparisonBaseINS0_9EqMatcherImEEmNS0_5AnyEqEE4ImplIRKimE15MatchAndExplainES8_PNS_19MatchResultListenerE
FN:547,_ZNK7testing8internal14ComparisonBaseINS0_9EqMatcherIiEEiNS0_5AnyEqEE4ImplIRKiiE15MatchAndExplainES8_PNS_19MatchResultListenerE
FNDA:46,_ZNK7testing8internal14ComparisonBaseINS0_9EqMatcherIiEEiNS0_5AnyEqEE4ImplIRKiiE15MatchAndExplainES8_PNS_19MatchResultListenerE
FN:547,_ZNK7testing8internal14ComparisonBaseINS0_9EqMatcherImEEmNS0_5AnyEqEE4ImplIRKdmE15MatchAndExplainES8_PNS_19MatchResultListenerE
FNDA:132,_ZNK7testing8internal14ComparisonBaseINS0_9EqMatcherImEEmNS0_5AnyEqEE4ImplIRKdmE15MatchAndExplainES8_PNS_19MatchResultListenerE
FN:547,_ZNK7testing8internal14ComparisonBaseINS0_9GtMatcherIiEEiNS0_5AnyGtEE4ImplIRKiiE15MatchAndExplainES8_PNS_19MatchResultListenerE
FNDA:4,_ZNK7testing8internal14ComparisonBaseINS0_9GtMatcherIiEEiNS0_5AnyGtEE4ImplIRKiiE15MatchAndExplainES8_PNS_19MatchResultListenerE
FN:551,_ZNK7testing8internal14ComparisonBaseINS0_9EqMatcherImEEmNS0_5AnyEqEE4ImplIRKimE10DescribeToEPSo
FNDA:0,_ZNK7testing8internal14ComparisonBaseINS0_9EqMatcherImEEmNS0_5AnyEqEE4ImplIRKimE10DescribeToEPSo
FN:551,_ZNK7testing8internal14ComparisonBaseINS0_9EqMatcherImEEmNS0_5AnyEqEE4ImplIRKdmE10DescribeToEPSo
FNDA:0,_ZNK7testing8internal14ComparisonBaseINS0_9EqMatcherImEEmNS0_5AnyEqEE4ImplIRKdmE10DescribeToEPSo
FN:551,_ZNK7testing8internal14ComparisonBaseINS0_9EqMatcherIiEEiNS0_5AnyEqEE4ImplIRKmiE10DescribeToEPSo
FNDA:0,_ZNK7testing8internal14ComparisonBaseINS0_9EqMatcherIiEEiNS0_5AnyEqEE4ImplIRKmiE10DescribeToEPSo
FN:551,_ZNK7testing8internal14ComparisonBaseINS0_9GtMatcherIiEEiNS0_5AnyGtEE4ImplIRKiiE10DescribeToEPSo
FNDA:0,_ZNK7testing8internal14ComparisonBaseINS0_9GtMatcherIiEEiNS0_5AnyGtEE4ImplIRKiiE10DescribeToEPSo
FN:551,_ZNK7testing8internal14ComparisonBaseINS0_9EqMatcherIiEEiNS0_5AnyEqEE4ImplIRKdiE10DescribeToEPSo
FNDA:0,_ZNK7testing8internal14ComparisonBaseINS0_9EqMatcherIiEEiNS0_5AnyEqEE4ImplIRKdiE10DescribeToEPSo
FN:551,_ZNK7testing8internal14ComparisonBaseINS0_9EqMatcherImEEmNS0_5AnyEqEE4ImplIRKmmE10DescribeToEPSo
FNDA:0,_ZNK7testing8internal14ComparisonBaseINS0_9EqMatcherImEEmNS0_5AnyEqEE4ImplIRKmmE10DescribeToEPSo
FN:551,_ZNK7testing8internal14ComparisonBaseINS0_9EqMatcherIiEEiNS0_5AnyEqEE4ImplIRKiiE10DescribeToEPSo
FNDA:0,_ZNK7testing8internal14ComparisonBaseINS0_9EqMatcherIiEEiNS0_5AnyEqEE4ImplIRKiiE10DescribeToEPSo
FN:555,_ZNK7testing8internal14ComparisonBaseINS0_9EqMatcherIiEEiNS0_5AnyEqEE4ImplIRKmiE18DescribeNegationToEPSo
FNDA:0,_ZNK7testing8internal14ComparisonBaseINS0_9EqMatcherIiEEiNS0_5AnyEqEE4ImplIRKmiE18DescribeNegationToEPSo
FN:555,_ZNK7testing8internal14ComparisonBaseINS0_9GtMatcherIiEEiNS0_5AnyGtEE4ImplIRKiiE18DescribeNegationToEPSo
FNDA:0,_ZNK7testing8internal14ComparisonBaseINS0_9GtMatcherIiEEiNS0_5AnyGtEE4ImplIRKiiE18DescribeNegationToEPSo
FN:555,_ZNK7testing8internal14ComparisonBaseINS0_9EqMatcherImEEmNS0_5AnyEqEE4ImplIRKimE18DescribeNegationToEPSo
FNDA:0,_ZNK7testing8internal14ComparisonBaseINS0_9EqMatcherImEEmNS0_5AnyEqEE4ImplIRKimE18DescribeNegationToEPSo
FN:555,_ZNK7testing8internal14ComparisonBaseINS0_9EqMatcherImEEmNS0_5AnyEqEE4ImplIRKdmE18DescribeNegationToEPSo
FNDA:0,_ZNK7testing8internal14ComparisonBaseINS0_9EqMatcherImEEmNS0_5AnyEqEE4ImplIRKdmE18DescribeNegationToEPSo
FN:555,_ZNK7testing8internal14ComparisonBaseINS0_9EqMatcherIiEEiNS0_5AnyEqEE4ImplIRKdiE18DescribeNegationToEPSo
FNDA:0,_ZNK7testing8internal14ComparisonBaseINS0_9EqMatcherIiEEiNS0_5AnyEqEE4ImplIRKdiE18DescribeNegationToEPSo
FN:555,_ZNK7testing8internal14ComparisonBaseINS0_9EqMatcherImEEmNS0_5AnyEqEE4ImplIRKmmE18DescribeNegationToEPSo
FNDA:0,_ZNK7testing8internal14ComparisonBaseINS0_9EqMatcherImEEmNS0_5AnyEqEE4ImplIRKmmE18DescribeNegationToEPSo
FN:555,_ZNK7testing8internal14ComparisonBaseINS0_9EqMatcherIiEEiNS0_5AnyEqEE4ImplIRKiiE18DescribeNegationToEPSo
FNDA:0,_ZNK7testing8internal14ComparisonBaseINS0_9EqMatcherIiEEiNS0_5AnyEqEE4ImplIRKiiE18DescribeNegationToEPSo
FN:569,_ZN7testing8internal9EqMatcherIiEC2ERKi
FNDA:0,_ZN7testing8internal9EqMatcherIiEC2ERKi
FN:569,_ZN7testing8internal9EqMatcherImEC2ERKm
FNDA:236,_ZN7testing8internal9EqMatcherImEC2ERKm
FN:571,_ZN7testing8internal9EqMatcherImE4DescEv
FNDA:0,_ZN7testing8internal9EqMatcherImE4DescEv
FN:571,_ZN7testing8internal9EqMatcherIiE4DescEv
FNDA:0,_ZN7testing8internal9EqMatcherIiE4DescEv
FN:572,_ZN7testing8internal9EqMatcherImE11NegatedDescEv
FNDA:0,_ZN7testing8internal9EqMatcherImE11NegatedDescEv
FN:572,_ZN7testing8internal9EqMatcherIiE11NegatedDescEv
FNDA:0,_ZN7testing8internal9EqMatcherIiE11NegatedDescEv
FN:593,_ZN7testing8internal9GtMatcherIiEC2ERKi
FNDA:4,_ZN7testing8internal9GtMatcherIiEC2ERKi
FN:595,_ZN7testing8internal9GtMatcherIiE4DescEv
FNDA:0,_ZN7testing8internal9GtMatcherIiE4DescEv
FN:596,_ZN7testing8internal9GtMatcherIiE11NegatedDescEv
FNDA:0,_ZN7testing8internal9GtMatcherIiE11NegatedDescEv
FN:695,_ZN7testing2EqImEENS_8internal9EqMatcherIT_EES3_
FNDA:236,_ZN7testing2EqImEENS_8internal9EqMatcherIT_EES3_
FN:695,_ZN7testing2EqIiEENS_8internal9EqMatcherIT_EES3_
FNDA:0,_ZN7testing2EqIiEENS_8internal9EqMatcherIT_EES3_
FN:725,_ZN7testing2GtIiEENS_8internal9GtMatcherIT_EES3_
FNDA:4,_ZN7testing2GtIiEENS_8internal9GtMatcherIT_EES3_
DA:85,0
DA:91,0
DA:92,0
DA:93,0
DA:91,0
DA:92,0
DA:93,0
DA:91,0
DA:92,0
DA:93,0
DA:97,0
DA:103,0
DA:111,0
DA:112,0
DA:111,0
DA:112,0
DA:118,0
DA:118,0
DA:133,0
DA:134,0
DA:135,0
DA:136,0
DA:137,0
DA:211,0
DA:211,100
DA:211,132
DA:211,4
DA:211,4
DA:211,46
DA:223,4
DA:237,0
DA:263,150
DA:264,150
DA:263,0
DA:264,0
DA:263,0
DA:264,0
DA:268,150
DA:269,150
DA:270,300
DA:268,0
DA:269,0
DA:270,0
DA:268,0
DA:269,0
DA:270,0
DA:274,0
DA:274,0
DA:274,0
DA:298,0
DA:298,150
DA:298,0
DA:312,0
DA:312,150
DA:312,0
DA:312,0
DA:312,0
DA:312,0
DA:333,0
DA:334,0
DA:333,150
DA:334,150
DA:333,0
DA:334,0
DA:501,173
DA:502,173
DA:531,4
DA:531,236
DA:531,0
DA:533,4
DA:534,4
DA:533,46
DA:534,46
DA:533,4
DA:534,4
DA:533,4
DA:534,4
DA:533,132
DA:534,132
DA:533,100
DA:534,100
DA:533,0
DA:534,0
DA:539,236
DA:539,0
DA:539,4
DA:546,4
DA:546,46
DA:546,4
DA:546,4
DA:546,132
DA:546,100
DA:546,0
DA:547,0
DA:549,0
DA:547,100
DA:549,100
DA:547,132
DA:549,132
DA:547,4
DA:549,4
DA:547,4
DA:549,4
DA:547,46
DA:549,46
DA:547,4
DA:549,4
DA:551,0
DA:552,0
DA:553,0
DA:554,0
DA:551,0
DA:552,0
DA:553,0
DA:554,0
DA:551,0
DA:552,0
DA:553,0
DA:554,0
DA:551,0
DA:552,0
DA:553,0
DA:554,0
DA:551,0
DA:552,0
DA:553,0
DA:554,0
DA:551,0
DA:552,0
DA:553,0
DA:554,0
DA:551,0
DA:552,0
DA:553,0
DA:554,0
DA:555,0
DA:556,0
DA:557,0
DA:558,0
DA:555,0
DA:556,0
DA:557,0
DA:558,0
DA:555,0
DA:556,0
DA:557,0
DA:558,0
DA:555,0
DA:556,0
DA:557,0
DA:558,0
DA:555,0
DA:556,0
DA:557,0
DA:558,0
DA:555,0
DA:556,0
DA:557,0
DA:558,0
DA:555,0
DA:556,0
DA:557,0
DA:558,0
DA:569,236
DA:570,236
DA:569,0
DA:570,0
DA:571,0
DA:571,0
DA:572,0
DA:572,0
DA:593,4
DA:594,4
DA:595,0
DA:596,0
DA:695,236
DA:695,0
DA:725,4
DA:726,4
end_of_record
SF:/usr/include/c++/9/bits/shared_ptr_base.h
FN:117,_ZNSt16_Sp_counted_baseILN9__gnu_cxx12_Lock_policyE2EEC2Ev
FNDA:0,_ZNSt16_Sp_counted_baseILN9__gnu_cxx12_Lock_policyE2EEC2Ev
FN:121,_ZNSt16_Sp_counted_baseILN9__gnu_cxx12_Lock_policyE2EED0Ev
FNDA:0,_ZNSt16_Sp_counted_baseILN9__gnu_cxx12_Lock_policyE2EED0Ev
FN:121,_ZNSt16_Sp_counted_baseILN9__gnu_cxx12_Lock_policyE2EED2Ev
FNDA:0,_ZNSt16_Sp_counted_baseILN9__gnu_cxx12_Lock_policyE2EED2Ev
FN:131,_ZNSt16_Sp_counted_baseILN9__gnu_cxx12_Lock_policyE2EE10_M_destroyEv
FNDA:0,_ZNSt16_Sp_counted_baseILN9__gnu_cxx12_Lock_policyE2EE10_M_destroyEv
FN:148,_ZNSt16_Sp_counted_baseILN9__gnu_cxx12_Lock_policyE2EE10_M_releaseEv
FNDA:0,_ZNSt16_Sp_counted_baseILN9__gnu_cxx12_Lock_policyE2EE10_M_releaseEv
FN:372,_ZNSt15_Sp_counted_ptrIPKN7testing16MatcherInterfaceIRKdEELN9__gnu_cxx12_Lock_policyE2EEC2ES6_
FNDA:0,_ZNSt15_Sp_counted_ptrIPKN7testing16MatcherInterfaceIRKdEELN9__gnu_cxx12_Lock_policyE2EEC2ES6_
FN:372,_ZNSt15_Sp_counted_ptrIPKN7testing16MatcherInterfaceIRKiEELN9__gnu_cxx12_Lock_policyE2EEC2ES6_
FNDA:150,_ZNSt15_Sp_counted_ptrIPKN7testing16MatcherInterfaceIRKiEELN9__gnu_cxx12_Lock_policyE2EEC2ES6_
FN:372,_ZNSt15_Sp_counted_ptrIPKN7testing16MatcherInterfaceIRKmEELN9__gnu_cxx12_Lock_policyE2EEC2ES6_
FNDA:0,_ZNSt15_Sp_counted_ptrIPKN7testing16MatcherInterfaceIRKmEELN9__gnu_cxx12_Lock_policyE2EEC2ES6_
FN:376,_ZNSt15_Sp_counted_ptrIPKN7testing16MatcherInterfaceIRKmEELN9__gnu_cxx12_Lock_policyE2EE10_M_disposeEv
FNDA:0,_ZNSt15_Sp_counted_ptrIPKN7testing16MatcherInterfaceIRKmEELN9__gnu_cxx12_Lock_policyE2EE10_M_disposeEv
FN:376,_ZNSt15_Sp_counted_ptrIPKN7testing16MatcherInterfaceIRKiEELN9__gnu_cxx12_Lock_policyE2EE10_M_disposeEv
FNDA:150,_ZNSt15_Sp_counted_ptrIPKN7testing16MatcherInterfaceIRKiEELN9__gnu_cxx12_Lock_policyE2EE10_M_disposeEv
FN:376,_ZNSt15_Sp_counted_ptrIPKN7testing16MatcherInterfaceIRKdEELN9__gnu_cxx12_Lock_policyE2EE10_M_disposeEv
FNDA:0,_ZNSt15_Sp_counted_ptrIPKN7testing16MatcherInterfaceIRKdEELN9__gnu_cxx12_Lock_policyE2EE10_M_disposeEv
FN:380,_ZNSt15_Sp_counted_ptrIPKN7testing16MatcherInterfaceIRKmEELN9__gnu_cxx12_Lock_policyE2EE10_M_destroyEv
FNDA:0,_ZNSt15_Sp_counted_ptrIPKN7testing16MatcherInterfaceIRKmEELN9__gnu_cxx12_Lock_policyE2EE10_M_destroyEv
FN:380,_ZNSt15_Sp_counted_ptrIPKN7testing16MatcherInterfaceIRKdEELN9__gnu_cxx12_Lock_policyE2EE10_M_destroyEv
FNDA:0,_ZNSt15_Sp_counted_ptrIPKN7testing16MatcherInterfaceIRKdEELN9__gnu_cxx12_Lock_policyE2EE10_M_destroyEv
FN:380,_ZNSt15_Sp_counted_ptrIPKN7testing16MatcherInterfaceIRKiEELN9__gnu_cxx12_Lock_policyE2EE10_M_destroyEv
FNDA:150,_ZNSt15_Sp_counted_ptrIPKN7testing16MatcherInterfaceIRKiEELN9__gnu_cxx12_Lock_policyE2EE10_M_destroyEv
FN:384,_ZNSt15_Sp_counted_ptrIPKN7testing16MatcherInterfaceIRKmEELN9__gnu_cxx12_Lock_policyE2EE14_M_get_deleterERKSt9type_info
FNDA:0,_ZNSt15_Sp_counted_ptrIPKN7testing16MatcherInterfaceIRKmEELN9__gnu_cxx12_Lock_policyE2EE14_M_get_deleterERKSt9type_info
FN:384,_ZNSt15_Sp_counted_ptrIPKN7testing16MatcherInterfaceIRKdEELN9__gnu_cxx12_Lock_policyE2EE14_M_get_deleterERKSt9type_info
FNDA:0,_ZNSt15_Sp_counted_ptrIPKN7testing16MatcherInterfaceIRKdEELN9__gnu_cxx12_Lock_policyE2EE14_M_get_deleterERKSt9type_info
FN:384,_ZNSt15_Sp_counted_ptrIPKN7testing16MatcherInterfaceIRKiEELN9__gnu_cxx12_Lock_policyE2EE14_M_get_deleterERKSt9type_info
FNDA:0,_ZNSt15_Sp_counted_ptrIPKN7testing16MatcherInterfaceIRKiEELN9__gnu_cxx12_Lock_policyE2EE14_M_get_deleterERKSt9type_info
FN:621,_ZNSt14__shared_countILN9__gnu_cxx12_Lock_policyE2EEC2IPKN7testing16MatcherInterfaceIRKdEEEET_
FNDA:0,_ZNSt14__shared_countILN9__gnu_cxx12_Lock_policyE2EEC2IPKN7testing16MatcherInterfaceIRKdEEEET_
FN:621,_ZNSt14__shared_countILN9__gnu_cxx12_Lock_policyE2EEC2IPKN7testing16MatcherInterfaceIRKiEEEET_
FNDA:150,_ZNSt14__shared_countILN9__gnu_cxx12_Lock_policyE2EEC2IPKN7testing16MatcherInterfaceIRKiEEEET_
FN:621,_ZNSt14__shared_countILN9__gnu_cxx12_Lock_policyE2EEC2IPKN7testing16MatcherInterfaceIRKmEEEET_
FNDA:0,_ZNSt14__shared_countILN9__gnu_cxx12_Lock_policyE2EEC2IPKN7testing16MatcherInterfaceIRKmEEEET_
FN:635,_ZNSt14__shared_countILN9__gnu_cxx12_Lock_policyE2EEC2IPKN7testing16MatcherInterfaceIRKdEEEET_St17integral_constantIbLb0EE
FNDA:0,_ZNSt14__shared_countILN9__gnu_cxx12_Lock_policyE2EEC2IPKN7testing16MatcherInterfaceIRKdEEEET_St17integral_constantIbLb0EE
FN:635,_ZNSt14__shared_countILN9__gnu_cxx12_Lock_policyE2EEC2IPKN7testing16MatcherInterfaceIRKiEEEET_St17integral_constantIbLb0EE
FNDA:150,_ZNSt14__shared_countILN9__gnu_cxx12_Lock_policyE2EEC2IPKN7testing16MatcherInterfaceIRKiEEEET_St17integral_constantIbLb0EE
FN:635,_ZNSt14__shared_countILN9__gnu_cxx12_Lock_policyE2EEC2IPKN7testing16MatcherInterfaceIRKmEEEET_St17integral_constantIbLb0EE
FNDA:0,_ZNSt14__shared_countILN9__gnu_cxx12_Lock_policyE2EEC2IPKN7testing16MatcherInterfaceIRKmEEEET_St17integral_constantIbLb0EE
FN:727,_ZNSt14__shared_countILN9__gnu_cxx12_Lock_policyE2EED2Ev
FNDA:0,_ZNSt14__shared_countILN9__gnu_cxx12_Lock_policyE2EED2Ev
FN:1012,_ZNKSt19__shared_ptr_accessIKN7testing16MatcherInterfaceIRKiEELN9__gnu_cxx12_Lock_policyE2ELb0ELb0EEptEv
FNDA:150,_ZNKSt19__shared_ptr_accessIKN7testing16MatcherInterfaceIRKiEELN9__gnu_cxx12_Lock_policyE2ELb0ELb0EEptEv
FN:1012,_ZNKSt19__shared_ptr_accessIKN7testing16MatcherInterfaceIRKmEELN9__gnu_cxx12_Lock_policyE2ELb0ELb0EEptEv
FNDA:0,_ZNKSt19__shared_ptr_accessIKN7testing16MatcherInterfaceIRKmEELN9__gnu_cxx12_Lock_policyE2ELb0ELb0EEptEv
FN:1012,_ZNKSt19__shared_ptr_accessIKN7testing16MatcherInterfaceIRKdEELN9__gnu_cxx12_Lock_policyE2ELb0ELb0EEptEv
FNDA:0,_ZNKSt19__shared_ptr_accessIKN7testing16MatcherInterfaceIRKdEELN9__gnu_cxx12_Lock_policyE2ELb0ELb0EEptEv
FN:1020,_ZNKSt19__shared_ptr_accessIKN7testing16MatcherInterfaceIRKiEELN9__gnu_cxx12_Lock_policyE2ELb0ELb0EE6_M_getEv
FNDA:150,_ZNKSt19__shared_ptr_accessIKN7testing16MatcherInterfaceIRKiEELN9__gnu_cxx12_Lock_policyE2ELb0ELb0EE6_M_getEv
FN:1020,_ZNKSt19__shared_ptr_accessIKN7testing16MatcherInterfaceIRKmEELN9__gnu_cxx12_Lock_policyE2ELb0ELb0EE6_M_getEv
FNDA:0,_ZNKSt19__shared_ptr_accessIKN7testing16MatcherInterfaceIRKmEELN9__gnu_cxx12_Lock_policyE2ELb0ELb0EE6_M_getEv
FN:1020,_ZNKSt19__shared_ptr_accessIKN7testing16MatcherInterfaceIRKdEELN9__gnu_cxx12_Lock_policyE2ELb0ELb0EE6_M_getEv
FNDA:0,_ZNKSt19__shared_ptr_accessIKN7testing16MatcherInterfaceIRKdEELN9__gnu_cxx12_Lock_policyE2ELb0ELb0EE6_M_getEv
FN:1124,_ZNSt12__shared_ptrIKN7testing16MatcherInterfaceIRKmEELN9__gnu_cxx12_Lock_policyE2EEC2IS5_vEEPT_
FNDA:0,_ZNSt12__shared_ptrIKN7testing16MatcherInterfaceIRKmEELN9__gnu_cxx12_Lock_policyE2EEC2IS5_vEEPT_
FN:1124,_ZNSt12__shared_ptrIKN7testing16MatcherInterfaceIRKiEELN9__gnu_cxx12_Lock_policyE2EEC2IS5_vEEPT_
FNDA:150,_ZNSt12__shared_ptrIKN7testing16MatcherInterfaceIRKiEELN9__gnu_cxx12_Lock_policyE2EEC2IS5_vEEPT_
FN:1124,_ZNSt12__shared_ptrIKN7testing16MatcherInterfaceIRKdEELN9__gnu_cxx12_Lock_policyE2EEC2IS5_vEEPT_
FNDA:0,_ZNSt12__shared_ptrIKN7testing16MatcherInterfaceIRKdEELN9__gnu_cxx12_Lock_policyE2EEC2IS5_vEEPT_
FN:1169,_ZNSt12__shared_ptrIKN7testing16MatcherInterfaceIRKdEELN9__gnu_cxx12_Lock_policyE2EED2Ev
FNDA:0,_ZNSt12__shared_ptrIKN7testing16MatcherInterfaceIRKdEELN9__gnu_cxx12_Lock_policyE2EED2Ev
FN:1169,_ZNSt12__shared_ptrIKN7testing16MatcherInterfaceIRKmEELN9__gnu_cxx12_Lock_policyE2EED2Ev
FNDA:0,_ZNSt12__shared_ptrIKN7testing16MatcherInterfaceIRKmEELN9__gnu_cxx12_Lock_policyE2EED2Ev
FN:1169,_ZNSt12__shared_ptrIKN7testing16MatcherInterfaceIRKiEELN9__gnu_cxx12_Lock_policyE2EED2Ev
FNDA:150,_ZNSt12__shared_ptrIKN7testing16MatcherInterfaceIRKiEELN9__gnu_cxx12_Lock_policyE2EED2Ev
FN:1309,_ZNKSt12__shared_ptrIKN7testing16MatcherInterfaceIRKiEELN9__gnu_cxx12_Lock_policyE2EE3getEv
FNDA:150,_ZNKSt12__shared_ptrIKN7testing16MatcherInterfaceIRKiEELN9__gnu_cxx12_Lock_policyE2EE3getEv
FN:1309,_ZNKSt12__shared_ptrIKN7testing16MatcherInterfaceIRKdEELN9__gnu_cxx12_Lock_policyE2EE3getEv
FNDA:0,_ZNKSt12__shared_ptrIKN7testing16MatcherInterfaceIRKdEELN9__gnu_cxx12_Lock_policyE2EE3getEv
FN:1309,_ZNKSt12__shared_ptrIKN7testing16MatcherInterfaceIRKmEELN9__gnu_cxx12_Lock_policyE2EE3getEv
FNDA:0,_ZNKSt12__shared_ptrIKN7testing16MatcherInterfaceIRKmEELN9__gnu_cxx12_Lock_policyE2EE3getEv
FN:1388,_ZNSt12__shared_ptrIKN7testing16MatcherInterfaceIRKmEELN9__gnu_cxx12_Lock_policyE2EE31_M_enable_shared_from_this_withIS5_S4_EENSt9enable_ifIXntsrNS8_15__has_esft_baseIT0_vEE5valueEvE4typeEPT_
FNDA:0,_ZNSt12__shared_ptrIKN7testing16MatcherInterfaceIRKmEELN9__gnu_cxx12_Lock_policyE2EE31_M_enable_shared_from_this_withIS5_S4_EENSt9enable_ifIXntsrNS8_15__has_esft_baseIT0_vEE5valueEvE4typeEPT_
FN:1388,_ZNSt12__shared_ptrIKN7testing16MatcherInterfaceIRKiEELN9__gnu_cxx12_Lock_policyE2EE31_M_enable_shared_from_this_withIS5_S4_EENSt9enable_ifIXntsrNS8_15__has_esft_baseIT0_vEE5valueEvE4typeEPT_
FNDA:150,_ZNSt12__shared_ptrIKN7testing16MatcherInterfaceIRKiEELN9__gnu_cxx12_Lock_policyE2EE31_M_enable_shared_from_this_withIS5_S4_EENSt9enable_ifIXntsrNS8_15__has_esft_baseIT0_vEE5valueEvE4typeEPT_
FN:1388,_ZNSt12__shared_ptrIKN7testing16MatcherInterfaceIRKdEELN9__gnu_cxx12_Lock_policyE2EE31_M_enable_shared_from_this_withIS5_S4_EENSt9enable_ifIXntsrNS8_15__has_esft_baseIT0_vEE5valueEvE4typeEPT_
FNDA:0,_ZNSt12__shared_ptrIKN7testing16MatcherInterfaceIRKdEELN9__gnu_cxx12_Lock_policyE2EE31_M_enable_shared_from_this_withIS5_S4_EENSt9enable_ifIXntsrNS8_15__has_esft_baseIT0_vEE5valueEvE4typeEPT_
DA:117,0
DA:118,0
DA:121,0
DA:122,0
DA:121,0
DA:122,0
DA:131,0
DA:132,0
DA:148,0
DA:152,0
DA:155,0
DA:167,0
DA:168,0
DA:171,0
DA:174,0
DA:372,0
DA:373,0
DA:372,150
DA:373,150
DA:372,0
DA:373,0
DA:376,0
DA:377,0
DA:376,150
DA:377,150
DA:376,0
DA:377,0
DA:380,0
DA:381,0
DA:380,150
DA:381,150
DA:380,0
DA:381,0
DA:384,0
DA:385,0
DA:384,0
DA:385,0
DA:384,0
DA:385,0
DA:621,0
DA:625,0
DA:627,0
DA:629,0
DA:630,0
DA:632,0
DA:621,150
DA:625,150
DA:627,0
DA:629,0
DA:630,0
DA:632,150
DA:621,0
DA:625,0
DA:627,0
DA:629,0
DA:630,0
DA:632,0
DA:635,0
DA:636,0
DA:637,0
DA:635,150
DA:636,150
DA:637,150
DA:635,0
DA:636,0
DA:637,0
DA:727,0
DA:729,0
DA:730,0
DA:731,0
DA:1012,150
DA:1015,150
DA:1012,0
DA:1015,0
DA:1012,0
DA:1015,0
DA:1020,150
DA:1021,150
DA:1020,0
DA:1021,0
DA:1020,0
DA:1021,0
DA:1124,0
DA:1125,0
DA:1129,0
DA:1130,0
DA:1124,150
DA:1125,150
DA:1129,150
DA:1130,150
DA:1124,0
DA:1125,0
DA:1129,0
DA:1130,0
DA:1169,150
DA:1169,0
DA:1169,0
DA:1309,150
DA:1310,150
DA:1309,0
DA:1310,0
DA:1309,0
DA:1310,0
DA:1388,0
DA:1389,0
DA:1388,150
DA:1389,150
DA:1388,0
DA:1389,0
end_of_record
SF:/usr/include/c++/9/tuple
FN:76,_ZNSt10_Head_baseILm1ESt14default_deleteI6matrixIdEELb1EEC2Ev
FNDA:23,_ZNSt10_Head_baseILm1ESt14default_deleteI6matrixIdEELb1EEC2Ev
FN:76,_ZNSt10_Head_baseILm1ESt14default_deleteIA_dELb1EEC2Ev
FNDA:234,_ZNSt10_Head_baseILm1ESt14default_deleteIA_dELb1EEC2Ev
FN:76,_ZNSt10_Head_baseILm1ESt14default_deleteIA_iELb1EEC2Ev
FNDA:19,_ZNSt10_Head_baseILm1ESt14default_deleteIA_iELb1EEC2Ev
FN:113,_ZNSt10_Head_baseILm1ESt14default_deleteIA_dELb1EE7_M_headERS3_
FNDA:232,_ZNSt10_Head_baseILm1ESt14default_deleteIA_dELb1EE7_M_headERS3_
FN:113,_ZNSt10_Head_baseILm1ESt14default_deleteI6matrixIdEELb1EE7_M_headERS4_
FNDA:23,_ZNSt10_Head_baseILm1ESt14default_deleteI6matrixIdEELb1EE7_M_headERS4_
FN:113,_ZNSt10_Head_baseILm1ESt14default_deleteINSt7__cxx1112basic_stringIcSt11char_traitsIcESaIcEEEELb1EE7_M_headERS8_
FNDA:0,_ZNSt10_Head_baseILm1ESt14default_deleteINSt7__cxx1112basic_stringIcSt11char_traitsIcESaIcEEEELb1EE7_M_headERS8_
FN:113,_ZNSt10_Head_baseILm1ESt14default_deleteINSt7__cxx1118basic_stringstreamIcSt11char_traitsIcESaIcEEEELb1EE7_M_headERS8_
FNDA:0,_ZNSt10_Head_baseILm1ESt14default_deleteINSt7__cxx1118basic_stringstreamIcSt11char_traitsIcESaIcEEEELb1EE7_M_headERS8_
FN:113,_ZNSt10_Head_baseILm1ESt14default_deleteIA_iELb1EE7_M_headERS3_
FNDA:19,_ZNSt10_Head_baseILm1ESt14default_deleteIA_iELb1EE7_M_headERS3_
FN:122,_ZNSt10_Head_baseILm0EPiLb0EEC2Ev
FNDA:19,_ZNSt10_Head_baseILm0EPiLb0EEC2Ev
FN:122,_ZNSt10_Head_baseILm0EPdLb0EEC2Ev
FNDA:234,_ZNSt10_Head_baseILm0EPdLb0EEC2Ev
FN:122,_ZNSt10_Head_baseILm0EP6matrixIdELb0EEC2Ev
FNDA:23,_ZNSt10_Head_baseILm0EP6matrixIdELb0EEC2Ev
FN:160,_ZNSt10_Head_baseILm0EPNSt7__cxx1112basic_stringIcSt11char_traitsIcESaIcEEELb0EE7_M_headERS7_
FNDA:0,_ZNSt10_Head_baseILm0EPNSt7__cxx1112basic_stringIcSt11char_traitsIcESaIcEEELb0EE7_M_headERS7_
FN:160,_ZNSt10_Head_baseILm0EP6matrixIdELb0EE7_M_headERS3_
FNDA:46,_ZNSt10_Head_baseILm0EP6matrixIdELb0EE7_M_headERS3_
FN:160,_ZNSt10_Head_baseILm0EPNSt7__cxx1118basic_stringstreamIcSt11char_traitsIcESaIcEEELb0EE7_M_headERS7_
FNDA:0,_ZNSt10_Head_baseILm0EPNSt7__cxx1118basic_stringstreamIcSt11char_traitsIcESaIcEEELb0EE7_M_headERS7_
FN:160,_ZNSt10_Head_baseILm0EPdLb0EE7_M_headERS1_
FNDA:466,_ZNSt10_Head_baseILm0EPdLb0EE7_M_headERS1_
FN:160,_ZNSt10_Head_baseILm0EPiLb0EE7_M_headERS1_
FNDA:38,_ZNSt10_Head_baseILm0EPiLb0EE7_M_headERS1_
FN:163,_ZNSt10_Head_baseILm0EPNSt7__cxx1112basic_stringIcSt11char_traitsIcESaIcEEELb0EE7_M_headERKS7_
FNDA:0,_ZNSt10_Head_baseILm0EPNSt7__cxx1112basic_stringIcSt11char_traitsIcESaIcEEELb0EE7_M_headERKS7_
FN:163,_ZNSt10_Head_baseILm0EPiLb0EE7_M_headERKS1_
FNDA:19,_ZNSt10_Head_baseILm0EPiLb0EE7_M_headERKS1_
FN:163,_ZNSt10_Head_baseILm0EPdLb0EE7_M_headERKS1_
FNDA:232,_ZNSt10_Head_baseILm0EPdLb0EE7_M_headERKS1_
FN:163,_ZNSt10_Head_baseILm0EPNSt7__cxx1118basic_stringstreamIcSt11char_traitsIcESaIcEEELb0EE7_M_headERKS7_
FNDA:0,_ZNSt10_Head_baseILm0EPNSt7__cxx1118basic_stringstreamIcSt11char_traitsIcESaIcEEELb0EE7_M_headERKS7_
FN:163,_ZNSt10_Head_baseILm0EP6matrixIdELb0EE7_M_headERKS3_
FNDA:23,_ZNSt10_Head_baseILm0EP6matrixIdELb0EE7_M_headERKS3_
FN:195,_ZNSt11_Tuple_implILm0EJPNSt7__cxx1118basic_stringstreamIcSt11char_traitsIcESaIcEEESt14default_deleteIS5_EEE7_M_headERS9_
FNDA:0,_ZNSt11_Tuple_implILm0EJPNSt7__cxx1118basic_stringstreamIcSt11char_traitsIcESaIcEEESt14default_deleteIS5_EEE7_M_headERS9_
FN:195,_ZNSt11_Tuple_implILm0EJPiSt14default_deleteIA_iEEE7_M_headERS4_
FNDA:38,_ZNSt11_Tuple_implILm0EJPiSt14default_deleteIA_iEEE7_M_headERS4_
FN:195,_ZNSt11_Tuple_implILm0EJPNSt7__cxx1112basic_stringIcSt11char_traitsIcESaIcEEESt14default_deleteIS5_EEE7_M_headERS9_
FNDA:0,_ZNSt11_Tuple_implILm0EJPNSt7__cxx1112basic_stringIcSt11char_traitsIcESaIcEEESt14default_deleteIS5_EEE7_M_headERS9_
FN:195,_ZNSt11_Tuple_implILm0EJP6matrixIdESt14default_deleteIS1_EEE7_M_headERS5_
FNDA:46,_ZNSt11_Tuple_implILm0EJP6matrixIdESt14default_deleteIS1_EEE7_M_headERS5_
FN:195,_ZNSt11_Tuple_implILm0EJPdSt14default_deleteIA_dEEE7_M_headERS4_
FNDA:466,_ZNSt11_Tuple_implILm0EJPdSt14default_deleteIA_dEEE7_M_headERS4_
FN:198,_ZNSt11_Tuple_implILm0EJPdSt14default_deleteIA_dEEE7_M_headERKS4_
FNDA:232,_ZNSt11_Tuple_implILm0EJPdSt14default_deleteIA_dEEE7_M_headERKS4_
FN:198,_ZNSt11_Tuple_implILm0EJPNSt7__cxx1112basic_stringIcSt11char_traitsIcESaIcEEESt14default_deleteIS5_EEE7_M_headERKS9_
FNDA:0,_ZNSt11_Tuple_implILm0EJPNSt7__cxx1112basic_stringIcSt11char_traitsIcESaIcEEESt14default_deleteIS5_EEE7_M_headERKS9_
FN:198,_ZNSt11_Tuple_implILm0EJPiSt14default_deleteIA_iEEE7_M_headERKS4_
FNDA:19,_ZNSt11_Tuple_implILm0EJPiSt14default_deleteIA_iEEE7_M_headERKS4_
FN:198,_ZNSt11_Tuple_implILm0EJP6matrixIdESt14default_deleteIS1_EEE7_M_headERKS5_
FNDA:23,_ZNSt11_Tuple_implILm0EJP6matrixIdESt14default_deleteIS1_EEE7_M_headERKS5_
FN:198,_ZNSt11_Tuple_implILm0EJPNSt7__cxx1118basic_stringstreamIcSt11char_traitsIcESaIcEEESt14default_deleteIS5_EEE7_M_headERKS9_
FNDA:0,_ZNSt11_Tuple_implILm0EJPNSt7__cxx1118basic_stringstreamIcSt11char_traitsIcESaIcEEESt14default_deleteIS5_EEE7_M_headERKS9_
FN:206,_ZNSt11_Tuple_implILm0EJP6matrixIdESt14default_deleteIS1_EEEC2Ev
FNDA:23,_ZNSt11_Tuple_implILm0EJP6matrixIdESt14default_deleteIS1_EEEC2Ev
FN:206,_ZNSt11_Tuple_implILm0EJPdSt14default_deleteIA_dEEEC2Ev
FNDA:234,_ZNSt11_Tuple_implILm0EJPdSt14default_deleteIA_dEEEC2Ev
FN:206,_ZNSt11_Tuple_implILm0EJPiSt14default_deleteIA_iEEEC2Ev
FNDA:19,_ZNSt11_Tuple_implILm0EJPiSt14default_deleteIA_iEEEC2Ev
FN:334,_ZNSt11_Tuple_implILm1EJSt14default_deleteIA_dEEE7_M_headERS3_
FNDA:232,_ZNSt11_Tuple_implILm1EJSt14default_deleteIA_dEEE7_M_headERS3_
FN:334,_ZNSt11_Tuple_implILm1EJSt14default_deleteIA_iEEE7_M_headERS3_
FNDA:19,_ZNSt11_Tuple_implILm1EJSt14default_deleteIA_iEEE7_M_headERS3_
FN:334,_ZNSt11_Tuple_implILm1EJSt14default_deleteI6matrixIdEEEE7_M_headERS4_
FNDA:23,_ZNSt11_Tuple_implILm1EJSt14default_deleteI6matrixIdEEEE7_M_headERS4_
FN:334,_ZNSt11_Tuple_implILm1EJSt14default_deleteINSt7__cxx1118basic_stringstreamIcSt11char_traitsIcESaIcEEEEEE7_M_headERS8_
FNDA:0,_ZNSt11_Tuple_implILm1EJSt14default_deleteINSt7__cxx1118basic_stringstreamIcSt11char_traitsIcESaIcEEEEEE7_M_headERS8_
FN:334,_ZNSt11_Tuple_implILm1EJSt14default_deleteINSt7__cxx1112basic_stringIcSt11char_traitsIcESaIcEEEEEE7_M_headERS8_
FNDA:0,_ZNSt11_Tuple_implILm1EJSt14default_deleteINSt7__cxx1112basic_stringIcSt11char_traitsIcESaIcEEEEEE7_M_headERS8_
FN:339,_ZNSt11_Tuple_implILm1EJSt14default_deleteI6matrixIdEEEEC2Ev
FNDA:23,_ZNSt11_Tuple_implILm1EJSt14default_deleteI6matrixIdEEEEC2Ev
FN:339,_ZNSt11_Tuple_implILm1EJSt14default_deleteIA_dEEEC2Ev
FNDA:234,_ZNSt11_Tuple_implILm1EJSt14default_deleteIA_dEEEC2Ev
FN:339,_ZNSt11_Tuple_implILm1EJSt14default_deleteIA_iEEEC2Ev
FNDA:19,_ZNSt11_Tuple_implILm1EJSt14default_deleteIA_iEEEC2Ev
FN:918,_ZNSt5tupleIJPiSt14default_deleteIA_iEEEC2IS0_S3_Lb1EEEv
FNDA:19,_ZNSt5tupleIJPiSt14default_deleteIA_iEEEC2IS0_S3_Lb1EEEv
FN:918,_ZNSt5tupleIJPdSt14default_deleteIA_dEEEC2IS0_S3_Lb1EEEv
FNDA:234,_ZNSt5tupleIJPdSt14default_deleteIA_dEEEC2IS0_S3_Lb1EEEv
FN:918,_ZNSt5tupleIJP6matrixIdESt14default_deleteIS1_EEEC2IS2_S4_Lb1EEEv
FNDA:23,_ZNSt5tupleIJP6matrixIdESt14default_deleteIS1_EEEC2IS2_S4_Lb1EEEv
FN:1309,_ZSt12__get_helperILm0EPdJSt14default_deleteIA_dEEERT0_RSt11_Tuple_implIXT_EJS4_DpT1_EE
FNDA:466,_ZSt12__get_helperILm0EPdJSt14default_deleteIA_dEEERT0_RSt11_Tuple_implIXT_EJS4_DpT1_EE
FN:1309,_ZSt12__get_helperILm1ESt14default_deleteIA_iEJEERT0_RSt11_Tuple_implIXT_EJS3_DpT1_EE
FNDA:19,_ZSt12__get_helperILm1ESt14default_deleteIA_iEJEERT0_RSt11_Tuple_implIXT_EJS3_DpT1_EE
FN:1309,_ZSt12__get_helperILm1ESt14default_deleteIA_dEJEERT0_RSt11_Tuple_implIXT_EJS3_DpT1_EE
FNDA:232,_ZSt12__get_helperILm1ESt14default_deleteIA_dEJEERT0_RSt11_Tuple_implIXT_EJS3_DpT1_EE
FN:1309,_ZSt12__get_helperILm1ESt14default_deleteI6matrixIdEEJEERT0_RSt11_Tuple_implIXT_EJS4_DpT1_EE
FNDA:23,_ZSt12__get_helperILm1ESt14default_deleteI6matrixIdEEJEERT0_RSt11_Tuple_implIXT_EJS4_DpT1_EE
FN:1309,_ZSt12__get_helperILm1ESt14default_deleteINSt7__cxx1112basic_stringIcSt11char_traitsIcESaIcEEEEJEERT0_RSt11_Tuple_implIXT_EJS8_DpT1_EE
FNDA:0,_ZSt12__get_helperILm1ESt14default_deleteINSt7__cxx1112basic_stringIcSt11char_traitsIcESaIcEEEEJEERT0_RSt11_Tuple_implIXT_EJS8_DpT1_EE
FN:1309,_ZSt12__get_helperILm1ESt14default_deleteINSt7__cxx1118basic_stringstreamIcSt11char_traitsIcESaIcEEEEJEERT0_RSt11_Tuple_implIXT_EJS8_DpT1_EE
FNDA:0,_ZSt12__get_helperILm1ESt14default_deleteINSt7__cxx1118basic_stringstreamIcSt11char_traitsIcESaIcEEEEJEERT0_RSt11_Tuple_implIXT_EJS8_DpT1_EE
FN:1309,_ZSt12__get_helperILm0EPNSt7__cxx1118basic_stringstreamIcSt11char_traitsIcESaIcEEEJSt14default_deleteIS5_EEERT0_RSt11_Tuple_implIXT_EJS9_DpT1_EE
FNDA:0,_ZSt12__get_helperILm0EPNSt7__cxx1118basic_stringstreamIcSt11char_traitsIcESaIcEEEJSt14default_deleteIS5_EEERT0_RSt11_Tuple_implIXT_EJS9_DpT1_EE
FN:1309,_ZSt12__get_helperILm0EPNSt7__cxx1112basic_stringIcSt11char_traitsIcESaIcEEEJSt14default_deleteIS5_EEERT0_RSt11_Tuple_implIXT_EJS9_DpT1_EE
FNDA:0,_ZSt12__get_helperILm0EPNSt7__cxx1112basic_stringIcSt11char_traitsIcESaIcEEEJSt14default_deleteIS5_EEERT0_RSt11_Tuple_implIXT_EJS9_DpT1_EE
FN:1309,_ZSt12__get_helperILm0EPiJSt14default_deleteIA_iEEERT0_RSt11_Tuple_implIXT_EJS4_DpT1_EE
FNDA:38,_ZSt12__get_helperILm0EPiJSt14default_deleteIA_iEEERT0_RSt11_Tuple_implIXT_EJS4_DpT1_EE
FN:1309,_ZSt12__get_helperILm0EP6matrixIdEJSt14default_deleteIS1_EEERT0_RSt11_Tuple_implIXT_EJS5_DpT1_EE
FNDA:46,_ZSt12__get_helperILm0EP6matrixIdEJSt14default_deleteIS1_EEERT0_RSt11_Tuple_implIXT_EJS5_DpT1_EE
FN:1314,_ZSt12__get_helperILm0EPNSt7__cxx1112basic_stringIcSt11char_traitsIcESaIcEEEJSt14default_deleteIS5_EEERKT0_RKSt11_Tuple_implIXT_EJS9_DpT1_EE
FNDA:0,_ZSt12__get_helperILm0EPNSt7__cxx1112basic_stringIcSt11char_traitsIcESaIcEEEJSt14default_deleteIS5_EEERKT0_RKSt11_Tuple_implIXT_EJS9_DpT1_EE
FN:1314,_ZSt12__get_helperILm0EPiJSt14default_deleteIA_iEEERKT0_RKSt11_Tuple_implIXT_EJS4_DpT1_EE
FNDA:19,_ZSt12__get_helperILm0EPiJSt14default_deleteIA_iEEERKT0_RKSt11_Tuple_implIXT_EJS4_DpT1_EE
FN:1314,_ZSt12__get_helperILm0EP6matrixIdEJSt14default_deleteIS1_EEERKT0_RKSt11_Tuple_implIXT_EJS5_DpT1_EE
FNDA:23,_ZSt12__get_helperILm0EP6matrixIdEJSt14default_deleteIS1_EEERKT0_RKSt11_Tuple_implIXT_EJS5_DpT1_EE
FN:1314,_ZSt12__get_helperILm0EPdJSt14default_deleteIA_dEEERKT0_RKSt11_Tuple_implIXT_EJS4_DpT1_EE
FNDA:232,_ZSt12__get_helperILm0EPdJSt14default_deleteIA_dEEERKT0_RKSt11_Tuple_implIXT_EJS4_DpT1_EE
FN:1314,_ZSt12__get_helperILm0EPNSt7__cxx1118basic_stringstreamIcSt11char_traitsIcESaIcEEEJSt14default_deleteIS5_EEERKT0_RKSt11_Tuple_implIXT_EJS9_DpT1_EE
FNDA:0,_ZSt12__get_helperILm0EPNSt7__cxx1118basic_stringstreamIcSt11char_traitsIcESaIcEEEJSt14default_deleteIS5_EEERKT0_RKSt11_Tuple_implIXT_EJS9_DpT1_EE
FN:1320,_ZSt3getILm0EJP6matrixIdESt14default_deleteIS1_EEERNSt13tuple_elementIXT_ESt5tupleIJDpT0_EEE4typeERS9_
FNDA:46,_ZSt3getILm0EJP6matrixIdESt14default_deleteIS1_EEERNSt13tuple_elementIXT_ESt5tupleIJDpT0_EEE4typeERS9_
FN:1320,_ZSt3getILm1EJPdSt14default_deleteIA_dEEERNSt13tuple_elementIXT_ESt5tupleIJDpT0_EEE4typeERS8_
FNDA:232,_ZSt3getILm1EJPdSt14default_deleteIA_dEEERNSt13tuple_elementIXT_ESt5tupleIJDpT0_EEE4typeERS8_
FN:1320,_ZSt3getILm1EJP6matrixIdESt14default_deleteIS1_EEERNSt13tuple_elementIXT_ESt5tupleIJDpT0_EEE4typeERS9_
FNDA:23,_ZSt3getILm1EJP6matrixIdESt14default_deleteIS1_EEERNSt13tuple_elementIXT_ESt5tupleIJDpT0_EEE4typeERS9_
FN:1320,_ZSt3getILm0EJPNSt7__cxx1118basic_stringstreamIcSt11char_traitsIcESaIcEEESt14default_deleteIS5_EEERNSt13tuple_elementIXT_ESt5tupleIJDpT0_EEE4typeERSD_
FNDA:0,_ZSt3getILm0EJPNSt7__cxx1118basic_stringstreamIcSt11char_traitsIcESaIcEEESt14default_deleteIS5_EEERNSt13tuple_elementIXT_ESt5tupleIJDpT0_EEE4typeERSD_
FN:1320,_ZSt3getILm0EJPNSt7__cxx1112basic_stringIcSt11char_traitsIcESaIcEEESt14default_deleteIS5_EEERNSt13tuple_elementIXT_ESt5tupleIJDpT0_EEE4typeERSD_
FNDA:0,_ZSt3getILm0EJPNSt7__cxx1112basic_stringIcSt11char_traitsIcESaIcEEESt14default_deleteIS5_EEERNSt13tuple_elementIXT_ESt5tupleIJDpT0_EEE4typeERSD_
FN:1320,_ZSt3getILm1EJPiSt14default_deleteIA_iEEERNSt13tuple_elementIXT_ESt5tupleIJDpT0_EEE4typeERS8_
FNDA:19,_ZSt3getILm1EJPiSt14default_deleteIA_iEEERNSt13tuple_elementIXT_ESt5tupleIJDpT0_EEE4typeERS8_
FN:1320,_ZSt3getILm0EJPdSt14default_deleteIA_dEEERNSt13tuple_elementIXT_ESt5tupleIJDpT0_EEE4typeERS8_
FNDA:466,_ZSt3getILm0EJPdSt14default_deleteIA_dEEERNSt13tuple_elementIXT_ESt5tupleIJDpT0_EEE4typeERS8_
FN:1320,_ZSt3getILm0EJPiSt14default_deleteIA_iEEERNSt13tuple_elementIXT_ESt5tupleIJDpT0_EEE4typeERS8_
FNDA:38,_ZSt3getILm0EJPiSt14default_deleteIA_iEEERNSt13tuple_elementIXT_ESt5tupleIJDpT0_EEE4typeERS8_
FN:1320,_ZSt3getILm1EJPNSt7__cxx1118basic_stringstreamIcSt11char_traitsIcESaIcEEESt14default_deleteIS5_EEERNSt13tuple_elementIXT_ESt5tupleIJDpT0_EEE4typeERSD_
FNDA:0,_ZSt3getILm1EJPNSt7__cxx1118basic_stringstreamIcSt11char_traitsIcESaIcEEESt14default_deleteIS5_EEERNSt13tuple_elementIXT_ESt5tupleIJDpT0_EEE4typeERSD_
FN:1320,_ZSt3getILm1EJPNSt7__cxx1112basic_stringIcSt11char_traitsIcESaIcEEESt14default_deleteIS5_EEERNSt13tuple_elementIXT_ESt5tupleIJDpT0_EEE4typeERSD_
FNDA:0,_ZSt3getILm1EJPNSt7__cxx1112basic_stringIcSt11char_traitsIcESaIcEEESt14default_deleteIS5_EEERNSt13tuple_elementIXT_ESt5tupleIJDpT0_EEE4typeERSD_
FN:1326,_ZSt3getILm0EJP6matrixIdESt14default_deleteIS1_EEERKNSt13tuple_elementIXT_ESt5tupleIJDpT0_EEE4typeERKS9_
FNDA:23,_ZSt3getILm0EJP6matrixIdESt14default_deleteIS1_EEERKNSt13tuple_elementIXT_ESt5tupleIJDpT0_EEE4typeERKS9_
FN:1326,_ZSt3getILm0EJPdSt14default_deleteIA_dEEERKNSt13tuple_elementIXT_ESt5tupleIJDpT0_EEE4typeERKS8_
FNDA:232,_ZSt3getILm0EJPdSt14default_deleteIA_dEEERKNSt13tuple_elementIXT_ESt5tupleIJDpT0_EEE4typeERKS8_
FN:1326,_ZSt3getILm0EJPNSt7__cxx1112basic_stringIcSt11char_traitsIcESaIcEEESt14default_deleteIS5_EEERKNSt13tuple_elementIXT_ESt5tupleIJDpT0_EEE4typeERKSD_
FNDA:0,_ZSt3getILm0EJPNSt7__cxx1112basic_stringIcSt11char_traitsIcESaIcEEESt14default_deleteIS5_EEERKNSt13tuple_elementIXT_ESt5tupleIJDpT0_EEE4typeERKSD_
FN:1326,_ZSt3getILm0EJPiSt14default_deleteIA_iEEERKNSt13tuple_elementIXT_ESt5tupleIJDpT0_EEE4typeERKS8_
FNDA:19,_ZSt3getILm0EJPiSt14default_deleteIA_iEEERKNSt13tuple_elementIXT_ESt5tupleIJDpT0_EEE4typeERKS8_
FN:1326,_ZSt3getILm0EJPNSt7__cxx1118basic_stringstreamIcSt11char_traitsIcESaIcEEESt14default_deleteIS5_EEERKNSt13tuple_elementIXT_ESt5tupleIJDpT0_EEE4typeERKSD_
FNDA:0,_ZSt3getILm0EJPNSt7__cxx1118basic_stringstreamIcSt11char_traitsIcESaIcEEESt14default_deleteIS5_EEERKNSt13tuple_elementIXT_ESt5tupleIJDpT0_EEE4typeERKSD_
DA:76,19
DA:77,19
DA:76,234
DA:77,234
DA:76,23
DA:77,23
DA:113,19
DA:113,232
DA:113,23
DA:113,0
DA:113,0
DA:122,19
DA:123,19
DA:122,234
DA:123,234
DA:122,23
DA:123,23
DA:160,38
DA:160,466
DA:160,46
DA:160,0
DA:160,0
DA:163,19
DA:163,232
DA:163,0
DA:163,23
DA:163,0
DA:195,38
DA:195,466
DA:195,46
DA:195,0
DA:195,0
DA:198,19
DA:198,232
DA:198,0
DA:198,23
DA:198,0
DA:206,19
DA:207,19
DA:206,234
DA:207,234
DA:206,23
DA:207,23
DA:334,19
DA:334,232
DA:334,23
DA:334,0
DA:334,0
DA:339,19
DA:340,19
DA:339,234
DA:340,234
DA:339,23
DA:340,23
DA:918,19
DA:919,19
DA:918,234
DA:919,234
DA:918,23
DA:919,23
DA:1309,19
DA:1310,19
DA:1309,232
DA:1310,232
DA:1309,23
DA:1310,23
DA:1309,0
DA:1310,0
DA:1309,0
DA:1310,0
DA:1309,38
DA:1310,38
DA:1309,466
DA:1310,466
DA:1309,46
DA:1310,46
DA:1309,0
DA:1310,0
DA:1309,0
DA:1310,0
DA:1314,19
DA:1315,19
DA:1314,232
DA:1315,232
DA:1314,0
DA:1315,0
DA:1314,23
DA:1315,23
DA:1314,0
DA:1315,0
DA:1320,19
DA:1321,19
DA:1320,232
DA:1321,232
DA:1320,23
DA:1321,23
DA:1320,0
DA:1321,0
DA:1320,0
DA:1321,0
DA:1320,38
DA:1321,38
DA:1320,466
DA:1321,466
DA:1320,46
DA:1321,46
DA:1320,0
DA:1321,0
DA:1320,0
DA:1321,0
DA:1326,19
DA:1327,19
DA:1326,232
DA:1327,232
DA:1326,0
DA:1327,0
DA:1326,23
DA:1327,23
DA:1326,0
DA:1327,0
end_of_record
SF:/usr/local/include/gtest/gtest-message.h
FN:112,_ZN7testing7MessagelsINSt7__cxx1112basic_stringIcSt11char_traitsIcESaIcEEEEERS0_RKT_
FNDA:0,_ZN7testing7MessagelsINSt7__cxx1112basic_stringIcSt11char_traitsIcESaIcEEEEERS0_RKT_
DA:112,0
DA:128,0
DA:129,0
end_of_record
SF:/usr/include/c++/9/bits/exception.h
FN:63,_ZNSt9exceptionC2Ev
FNDA:0,_ZNSt9exceptionC2Ev
DA:63,0
end_of_record
SF:/usr/include/c++/9/bits/move.h
FN:74,_ZSt7forwardISt14default_deleteIA_dEEOT_RNSt16remove_referenceIS3_E4typeE
FNDA:2,_ZSt7forwardISt14default_deleteIA_dEEOT_RNSt16remove_referenceIS3_E4typeE
FN:99,_ZSt4moveIRN7testing8internal17FloatingEqMatcherIdEEEONSt16remove_referenceIT_E4typeEOS6_
FNDA:346,_ZSt4moveIRN7testing8internal17FloatingEqMatcherIdEEEONSt16remove_referenceIT_E4typeEOS6_
FN:99,_ZSt4moveIR6matrixIdEEONSt16remove_referenceIT_E4typeEOS4_
FNDA:4,_ZSt4moveIR6matrixIdEEONSt16remove_referenceIT_E4typeEOS4_
FN:99,_ZSt4moveIRNSt7__cxx1112basic_stringIcSt11char_traitsIcESaIcEEEEONSt16remove_referenceIT_E4typeEOS8_
FNDA:0,_ZSt4moveIRNSt7__cxx1112basic_stringIcSt11char_traitsIcESaIcEEEEONSt16remove_referenceIT_E4typeEOS8_
FN:99,_ZSt4moveIRSaIcEEONSt16remove_referenceIT_E4typeEOS3_
FNDA:0,_ZSt4moveIRSaIcEEONSt16remove_referenceIT_E4typeEOS3_
FN:99,_ZSt4moveIRPNSt7__cxx1118basic_stringstreamIcSt11char_traitsIcESaIcEEEEONSt16remove_referenceIT_E4typeEOS9_
FNDA:0,_ZSt4moveIRPNSt7__cxx1118basic_stringstreamIcSt11char_traitsIcESaIcEEEEONSt16remove_referenceIT_E4typeEOS9_
FN:99,_ZSt4moveIRPNSt7__cxx1112basic_stringIcSt11char_traitsIcESaIcEEEEONSt16remove_referenceIT_E4typeEOS9_
FNDA:0,_ZSt4moveIRPNSt7__cxx1112basic_stringIcSt11char_traitsIcESaIcEEEEONSt16remove_referenceIT_E4typeEOS9_
FN:99,_ZSt4moveIRP6matrixIdEEONSt16remove_referenceIT_E4typeEOS5_
FNDA:92,_ZSt4moveIRP6matrixIdEEONSt16remove_referenceIT_E4typeEOS5_
FN:99,_ZSt4moveIRN7testing8internal9EqMatcherIiEEEONSt16remove_referenceIT_E4typeEOS6_
FNDA:0,_ZSt4moveIRN7testing8internal9EqMatcherIiEEEONSt16remove_referenceIT_E4typeEOS6_
FN:99,_ZSt4moveIRN7testing8internal9EqMatcherImEEEONSt16remove_referenceIT_E4typeEOS6_
FNDA:472,_ZSt4moveIRN7testing8internal9EqMatcherImEEEONSt16remove_referenceIT_E4typeEOS6_
FN:99,_ZSt4moveIRSt10unique_ptrIA_dSt14default_deleteIS1_EEEONSt16remove_referenceIT_E4typeEOS7_
FNDA:2,_ZSt4moveIRSt10unique_ptrIA_dSt14default_deleteIS1_EEEONSt16remove_referenceIT_E4typeEOS7_
FN:99,_ZSt4moveIRN7testing8internal9GtMatcherIiEEEONSt16remove_referenceIT_E4typeEOS6_
FNDA:8,_ZSt4moveIRN7testing8internal9GtMatcherIiEEEONSt16remove_referenceIT_E4typeEOS6_
FN:99,_ZSt4moveIRPdEONSt16remove_referenceIT_E4typeEOS3_
FNDA:690,_ZSt4moveIRPdEONSt16remove_referenceIT_E4typeEOS3_
FN:99,_ZSt4moveIRPiEONSt16remove_referenceIT_E4typeEOS3_
FNDA:51,_ZSt4moveIRPiEONSt16remove_referenceIT_E4typeEOS3_
FN:182,_ZSt4swapIP6matrixIdEENSt9enable_ifIXsrSt6__and_IJSt6__not_ISt15__is_tuple_likeIT_EESt21is_move_constructibleIS7_ESt18is_move_assignableIS7_EEE5valueEvE4typeERS7_SH_
FNDA:23,_ZSt4swapIP6matrixIdEENSt9enable_ifIXsrSt6__and_IJSt6__not_ISt15__is_tuple_likeIT_EESt21is_move_constructibleIS7_ESt18is_move_assignableIS7_EEE5valueEvE4typeERS7_SH_
FN:182,_ZSt4swapIPNSt7__cxx1112basic_stringIcSt11char_traitsIcESaIcEEEENSt9enable_ifIXsrSt6__and_IJSt6__not_ISt15__is_tuple_likeIT_EESt21is_move_constructibleISB_ESt18is_move_assignableISB_EEE5valueEvE4typeERSB_SL_
FNDA:0,_ZSt4swapIPNSt7__cxx1112basic_stringIcSt11char_traitsIcESaIcEEEENSt9enable_ifIXsrSt6__and_IJSt6__not_ISt15__is_tuple_likeIT_EESt21is_move_constructibleISB_ESt18is_move_assignableISB_EEE5valueEvE4typeERSB_SL_
FN:182,_ZSt4swapIPdENSt9enable_ifIXsrSt6__and_IJSt6__not_ISt15__is_tuple_likeIT_EESt21is_move_constructibleIS5_ESt18is_move_assignableIS5_EEE5valueEvE4typeERS5_SF_
FNDA:230,_ZSt4swapIPdENSt9enable_ifIXsrSt6__and_IJSt6__not_ISt15__is_tuple_likeIT_EESt21is_move_constructibleIS5_ESt18is_move_assignableIS5_EEE5valueEvE4typeERS5_SF_
FN:182,_ZSt4swapIPiENSt9enable_ifIXsrSt6__and_IJSt6__not_ISt15__is_tuple_likeIT_EESt21is_move_constructibleIS5_ESt18is_move_assignableIS5_EEE5valueEvE4typeERS5_SF_
FNDA:17,_ZSt4swapIPiENSt9enable_ifIXsrSt6__and_IJSt6__not_ISt15__is_tuple_likeIT_EESt21is_move_constructibleIS5_ESt18is_move_assignableIS5_EEE5valueEvE4typeERS5_SF_
DA:74,2
DA:75,2
DA:99,51
DA:100,51
DA:99,690
DA:100,690
DA:99,8
DA:100,8
DA:99,2
DA:100,2
DA:99,472
DA:100,472
DA:99,0
DA:100,0
DA:99,346
DA:100,346
DA:99,92
DA:100,92
DA:99,0
DA:100,0
DA:99,0
DA:100,0
DA:99,0
DA:100,0
DA:99,0
DA:100,0
DA:99,4
DA:100,4
DA:182,17
DA:193,17
DA:194,17
DA:195,17
DA:196,17
DA:182,230
DA:193,230
DA:194,230
DA:195,230
DA:196,230
DA:182,23
DA:193,23
DA:194,23
DA:195,23
DA:196,23
DA:182,0
DA:193,0
DA:194,0
DA:195,0
DA:196,0
end_of_record
SF:/usr/include/c++/9/bits/unique_ptr.h
FN:75,_ZNKSt14default_deleteI6matrixIdEEclEPS1_
FNDA:23,_ZNKSt14default_deleteI6matrixIdEEclEPS1_
FN:75,_ZNKSt14default_deleteINSt7__cxx1118basic_stringstreamIcSt11char_traitsIcESaIcEEEEclEPS5_
FNDA:0,_ZNKSt14default_deleteINSt7__cxx1118basic_stringstreamIcSt11char_traitsIcESaIcEEEEclEPS5_
FN:75,_ZNKSt14default_deleteINSt7__cxx1112basic_stringIcSt11char_traitsIcESaIcEEEEclEPS5_
FNDA:0,_ZNKSt14default_deleteINSt7__cxx1112basic_stringIcSt11char_traitsIcESaIcEEEEclEPS5_
FN:111,_ZNKSt14default_deleteIA_iEclIiEENSt9enable_ifIXsrSt14is_convertibleIPA_T_PS0_E5valueEvE4typeEPS5_
FNDA:15,_ZNKSt14default_deleteIA_iEclIiEENSt9enable_ifIXsrSt14is_convertibleIPA_T_PS0_E5valueEvE4typeEPS5_
FN:111,_ZNKSt14default_deleteIA_dEclIdEENSt9enable_ifIXsrSt14is_convertibleIPA_T_PS0_E5valueEvE4typeEPS5_
FNDA:228,_ZNKSt14default_deleteIA_dEclIdEENSt9enable_ifIXsrSt14is_convertibleIPA_T_PS0_E5valueEvE4typeEPS5_
FN:146,_ZNSt15__uniq_ptr_implI6matrixIdESt14default_deleteIS1_EEC2Ev
FNDA:23,_ZNSt15__uniq_ptr_implI6matrixIdESt14default_deleteIS1_EEC2Ev
FN:146,_ZNSt15__uniq_ptr_implIiSt14default_deleteIA_iEEC2Ev
FNDA:19,_ZNSt15__uniq_ptr_implIiSt14default_deleteIA_iEEC2Ev
FN:146,_ZNSt15__uniq_ptr_implIdSt14default_deleteIA_dEEC2Ev
FNDA:234,_ZNSt15__uniq_ptr_implIdSt14default_deleteIA_dEEC2Ev
FN:153,_ZNSt15__uniq_ptr_implINSt7__cxx1112basic_stringIcSt11char_traitsIcESaIcEEESt14default_deleteIS5_EE6_M_ptrEv
FNDA:0,_ZNSt15__uniq_ptr_implINSt7__cxx1112basic_stringIcSt11char_traitsIcESaIcEEESt14default_deleteIS5_EE6_M_ptrEv
FN:153,_ZNSt15__uniq_ptr_implI6matrixIdESt14default_deleteIS1_EE6_M_ptrEv
FNDA:46,_ZNSt15__uniq_ptr_implI6matrixIdESt14default_deleteIS1_EE6_M_ptrEv
FN:153,_ZNSt15__uniq_ptr_implIiSt14default_deleteIA_iEE6_M_ptrEv
FNDA:38,_ZNSt15__uniq_ptr_implIiSt14default_deleteIA_iEE6_M_ptrEv
FN:153,_ZNSt15__uniq_ptr_implIdSt14default_deleteIA_dEE6_M_ptrEv
FNDA:466,_ZNSt15__uniq_ptr_implIdSt14default_deleteIA_dEE6_M_ptrEv
FN:153,_ZNSt15__uniq_ptr_implINSt7__cxx1118basic_stringstreamIcSt11char_traitsIcESaIcEEESt14default_deleteIS5_EE6_M_ptrEv
FNDA:0,_ZNSt15__uniq_ptr_implINSt7__cxx1118basic_stringstreamIcSt11char_traitsIcESaIcEEESt14default_deleteIS5_EE6_M_ptrEv
FN:154,_ZNKSt15__uniq_ptr_implIiSt14default_deleteIA_iEE6_M_ptrEv
FNDA:19,_ZNKSt15__uniq_ptr_implIiSt14default_deleteIA_iEE6_M_ptrEv
FN:154,_ZNKSt15__uniq_ptr_implIdSt14default_deleteIA_dEE6_M_ptrEv
FNDA:232,_ZNKSt15__uniq_ptr_implIdSt14default_deleteIA_dEE6_M_ptrEv
FN:154,_ZNKSt15__uniq_ptr_implINSt7__cxx1118basic_stringstreamIcSt11char_traitsIcESaIcEEESt14default_deleteIS5_EE6_M_ptrEv
FNDA:0,_ZNKSt15__uniq_ptr_implINSt7__cxx1118basic_stringstreamIcSt11char_traitsIcESaIcEEESt14default_deleteIS5_EE6_M_ptrEv
FN:154,_ZNKSt15__uniq_ptr_implINSt7__cxx1112basic_stringIcSt11char_traitsIcESaIcEEESt14default_deleteIS5_EE6_M_ptrEv
FNDA:0,_ZNKSt15__uniq_ptr_implINSt7__cxx1112basic_stringIcSt11char_traitsIcESaIcEEESt14default_deleteIS5_EE6_M_ptrEv
FN:154,_ZNKSt15__uniq_ptr_implI6matrixIdESt14default_deleteIS1_EE6_M_ptrEv
FNDA:23,_ZNKSt15__uniq_ptr_implI6matrixIdESt14default_deleteIS1_EE6_M_ptrEv
FN:155,_ZNSt15__uniq_ptr_implIiSt14default_deleteIA_iEE10_M_deleterEv
FNDA:19,_ZNSt15__uniq_ptr_implIiSt14default_deleteIA_iEE10_M_deleterEv
FN:155,_ZNSt15__uniq_ptr_implINSt7__cxx1118basic_stringstreamIcSt11char_traitsIcESaIcEEESt14default_deleteIS5_EE10_M_deleterEv
FNDA:0,_ZNSt15__uniq_ptr_implINSt7__cxx1118basic_stringstreamIcSt11char_traitsIcESaIcEEESt14default_deleteIS5_EE10_M_deleterEv
FN:155,_ZNSt15__uniq_ptr_implINSt7__cxx1112basic_stringIcSt11char_traitsIcESaIcEEESt14default_deleteIS5_EE10_M_deleterEv
FNDA:0,_ZNSt15__uniq_ptr_implINSt7__cxx1112basic_stringIcSt11char_traitsIcESaIcEEESt14default_deleteIS5_EE10_M_deleterEv
FN:155,_ZNSt15__uniq_ptr_implI6matrixIdESt14default_deleteIS1_EE10_M_deleterEv
FNDA:23,_ZNSt15__uniq_ptr_implI6matrixIdESt14default_deleteIS1_EE10_M_deleterEv
FN:155,_ZNSt15__uniq_ptr_implIdSt14default_deleteIA_dEE10_M_deleterEv
FNDA:232,_ZNSt15__uniq_ptr_implIdSt14default_deleteIA_dEE10_M_deleterEv
FN:250,_ZNSt10unique_ptrI6matrixIdESt14default_deleteIS1_EEC2IS3_vEEDn
FNDA:23,_ZNSt10unique_ptrI6matrixIdESt14default_deleteIS1_EEC2IS3_vEEDn
FN:286,_ZNSt10unique_ptrI6matrixIdESt14default_deleteIS1_EED2Ev
FNDA:23,_ZNSt10unique_ptrI6matrixIdESt14default_deleteIS1_EED2Ev
FN:286,_ZNSt10unique_ptrINSt7__cxx1112basic_stringIcSt11char_traitsIcESaIcEEESt14default_deleteIS5_EED2Ev
FNDA:0,_ZNSt10unique_ptrINSt7__cxx1112basic_stringIcSt11char_traitsIcESaIcEEESt14default_deleteIS5_EED2Ev
FN:286,_ZNSt10unique_ptrINSt7__cxx1118basic_stringstreamIcSt11char_traitsIcESaIcEEESt14default_deleteIS5_EED2Ev
FNDA:0,_ZNSt10unique_ptrINSt7__cxx1118basic_stringstreamIcSt11char_traitsIcESaIcEEESt14default_deleteIS5_EED2Ev
FN:344,_ZNKSt10unique_ptrINSt7__cxx1118basic_stringstreamIcSt11char_traitsIcESaIcEEESt14default_deleteIS5_EEdeEv
FNDA:0,_ZNKSt10unique_ptrINSt7__cxx1118basic_stringstreamIcSt11char_traitsIcESaIcEEESt14default_deleteIS5_EEdeEv
FN:352,_ZNKSt10unique_ptrINSt7__cxx1112basic_stringIcSt11char_traitsIcESaIcEEESt14default_deleteIS5_EEptEv
FNDA:0,_ZNKSt10unique_ptrINSt7__cxx1112basic_stringIcSt11char_traitsIcESaIcEEESt14default_deleteIS5_EEptEv
FN:360,_ZNKSt10unique_ptrINSt7__cxx1112basic_stringIcSt11char_traitsIcESaIcEEESt14default_deleteIS5_EE3getEv
FNDA:0,_ZNKSt10unique_ptrINSt7__cxx1112basic_stringIcSt11char_traitsIcESaIcEEESt14default_deleteIS5_EE3getEv
FN:360,_ZNKSt10unique_ptrINSt7__cxx1118basic_stringstreamIcSt11char_traitsIcESaIcEEESt14default_deleteIS5_EE3getEv
FNDA:0,_ZNKSt10unique_ptrINSt7__cxx1118basic_stringstreamIcSt11char_traitsIcESaIcEEESt14default_deleteIS5_EE3getEv
FN:360,_ZNKSt10unique_ptrI6matrixIdESt14default_deleteIS1_EE3getEv
FNDA:23,_ZNKSt10unique_ptrI6matrixIdESt14default_deleteIS1_EE3getEv
FN:365,_ZNSt10unique_ptrINSt7__cxx1112basic_stringIcSt11char_traitsIcESaIcEEESt14default_deleteIS5_EE11get_deleterEv
FNDA:0,_ZNSt10unique_ptrINSt7__cxx1112basic_stringIcSt11char_traitsIcESaIcEEESt14default_deleteIS5_EE11get_deleterEv
FN:365,_ZNSt10unique_ptrI6matrixIdESt14default_deleteIS1_EE11get_deleterEv
FNDA:23,_ZNSt10unique_ptrI6matrixIdESt14default_deleteIS1_EE11get_deleterEv
FN:365,_ZNSt10unique_ptrINSt7__cxx1118basic_stringstreamIcSt11char_traitsIcESaIcEEESt14default_deleteIS5_EE11get_deleterEv
FNDA:0,_ZNSt10unique_ptrINSt7__cxx1118basic_stringstreamIcSt11char_traitsIcESaIcEEESt14default_deleteIS5_EE11get_deleterEv
FN:395,_ZNSt10unique_ptrINSt7__cxx1112basic_stringIcSt11char_traitsIcESaIcEEESt14default_deleteIS5_EE5resetEPS5_
FNDA:0,_ZNSt10unique_ptrINSt7__cxx1112basic_stringIcSt11char_traitsIcESaIcEEESt14default_deleteIS5_EE5resetEPS5_
FN:395,_ZNSt10unique_ptrI6matrixIdESt14default_deleteIS1_EE5resetEPS1_
FNDA:23,_ZNSt10unique_ptrI6matrixIdESt14default_deleteIS1_EE5resetEPS1_
FN:541,_ZNSt10unique_ptrIA_iSt14default_deleteIS0_EEC2IS2_vEEDn
FNDA:19,_ZNSt10unique_ptrIA_iSt14default_deleteIS0_EEC2IS2_vEEDn
FN:541,_ZNSt10unique_ptrIA_dSt14default_deleteIS0_EEC2IS2_vEEDn
FNDA:234,_ZNSt10unique_ptrIA_dSt14default_deleteIS0_EEC2IS2_vEEDn
FN:555,_ZNSt10unique_ptrIA_dSt14default_deleteIS0_EED2Ev
FNDA:234,_ZNSt10unique_ptrIA_dSt14default_deleteIS0_EED2Ev
FN:555,_ZNSt10unique_ptrIA_iSt14default_deleteIS0_EED2Ev
FNDA:19,_ZNSt10unique_ptrIA_iSt14default_deleteIS0_EED2Ev
FN:572,_ZNSt10unique_ptrIA_dSt14default_deleteIS0_EEaSEOS3_
FNDA:2,_ZNSt10unique_ptrIA_dSt14default_deleteIS0_EEaSEOS3_
FN:619,_ZNKSt10unique_ptrIA_iSt14default_deleteIS0_EE3getEv
FNDA:19,_ZNKSt10unique_ptrIA_iSt14default_deleteIS0_EE3getEv
FN:619,_ZNKSt10unique_ptrIA_dSt14default_deleteIS0_EE3getEv
FNDA:232,_ZNKSt10unique_ptrIA_dSt14default_deleteIS0_EE3getEv
FN:624,_ZNSt10unique_ptrIA_iSt14default_deleteIS0_EE11get_deleterEv
FNDA:19,_ZNSt10unique_ptrIA_iSt14default_deleteIS0_EE11get_deleterEv
FN:624,_ZNSt10unique_ptrIA_dSt14default_deleteIS0_EE11get_deleterEv
FNDA:232,_ZNSt10unique_ptrIA_dSt14default_deleteIS0_EE11get_deleterEv
FN:640,_ZNSt10unique_ptrIA_dSt14default_deleteIS0_EE7releaseEv
FNDA:2,_ZNSt10unique_ptrIA_dSt14default_deleteIS0_EE7releaseEv
FN:666,_ZNSt10unique_ptrIA_iSt14default_deleteIS0_EE5resetIPivEEvT_
FNDA:17,_ZNSt10unique_ptrIA_iSt14default_deleteIS0_EE5resetIPivEEvT_
FN:666,_ZNSt10unique_ptrIA_dSt14default_deleteIS0_EE5resetIPdvEEvT_
FNDA:230,_ZNSt10unique_ptrIA_dSt14default_deleteIS0_EE5resetIPdvEEvT_
DA:75,23
DA:81,23
DA:82,23
DA:75,0
DA:81,0
DA:82,0
DA:75,0
DA:81,0
DA:82,0
DA:111,15
DA:115,15
DA:116,15
DA:111,228
DA:115,228
DA:116,228
DA:146,19
DA:146,234
DA:146,23
DA:153,38
DA:153,466
DA:153,46
DA:153,0
DA:153,0
DA:154,19
DA:154,232
DA:154,0
DA:154,23
DA:154,0
DA:155,19
DA:155,232
DA:155,23
DA:155,0
DA:155,0
DA:250,23
DA:251,23
DA:252,23
DA:286,23
DA:290,23
DA:291,23
DA:292,23
DA:293,23
DA:294,23
DA:286,0
DA:290,0
DA:291,0
DA:292,0
DA:293,0
DA:294,0
DA:286,0
DA:290,0
DA:291,0
DA:292,0
DA:293,0
DA:294,0
DA:344,0
DA:347,0
DA:352,0
DA:355,0
DA:360,0
DA:361,0
DA:360,23
DA:361,23
DA:360,0
DA:361,0
DA:365,23
DA:366,23
DA:365,0
DA:366,0
DA:365,0
DA:366,0
DA:395,23
DA:400,23
DA:401,23
DA:402,0
DA:403,23
DA:395,0
DA:400,0
DA:401,0
DA:402,0
DA:403,0
DA:541,19
DA:542,19
DA:543,19
DA:541,234
DA:542,234
DA:543,234
DA:555,19
DA:557,19
DA:558,19
DA:559,13
DA:560,19
DA:561,19
DA:555,234
DA:557,234
DA:558,234
DA:559,226
DA:560,234
DA:561,234
DA:572,2
DA:574,2
DA:575,2
DA:576,2
DA:619,19
DA:620,19
DA:619,232
DA:620,232
DA:624,19
DA:625,19
DA:624,232
DA:625,232
DA:640,2
DA:642,2
DA:643,2
DA:644,2
DA:666,17
DA:668,17
DA:670,17
DA:671,17
DA:672,2
DA:673,17
DA:666,230
DA:668,230
DA:670,230
DA:671,230
DA:672,2
DA:673,230
end_of_record
SF:/usr/include/c++/9/bits/stl_iterator_base_funcs.h
FN:98,_ZSt10__distanceIPcENSt15iterator_traitsIT_E15difference_typeES2_S2_St26random_access_iterator_tag
FNDA:79956,_ZSt10__distanceIPcENSt15iterator_traitsIT_E15difference_typeES2_S2_St26random_access_iterator_tag
FN:98,_ZSt10__distanceIPKcENSt15iterator_traitsIT_E15difference_typeES3_S3_St26random_access_iterator_tag
FNDA:0,_ZSt10__distanceIPKcENSt15iterator_traitsIT_E15difference_typeES3_S3_St26random_access_iterator_tag
FN:98,_ZSt10__distanceIPKiENSt15iterator_traitsIT_E15difference_typeES3_S3_St26random_access_iterator_tag
FNDA:8,_ZSt10__distanceIPKiENSt15iterator_traitsIT_E15difference_typeES3_S3_St26random_access_iterator_tag
FN:138,_ZSt8distanceIPcENSt15iterator_traitsIT_E15difference_typeES2_S2_
FNDA:79956,_ZSt8distanceIPcENSt15iterator_traitsIT_E15difference_typeES2_S2_
FN:138,_ZSt8distanceIPKcENSt15iterator_traitsIT_E15difference_typeES3_S3_
FNDA:0,_ZSt8distanceIPKcENSt15iterator_traitsIT_E15difference_typeES3_S3_
FN:138,_ZSt8distanceIPKiENSt15iterator_traitsIT_E15difference_typeES3_S3_
FNDA:8,_ZSt8distanceIPKiENSt15iterator_traitsIT_E15difference_typeES3_S3_
DA:98,79956
DA:104,79956
DA:98,0
DA:104,0
DA:98,8
DA:104,8
DA:138,79956
DA:141,79956
DA:142,159912
DA:138,0
DA:141,0
DA:142,0
DA:138,8
DA:141,8
DA:142,16
end_of_record
SF:/usr/include/c++/9/bits/stl_algobase.h
FN:198,_ZSt3minImERKT_S2_S2_
FNDA:37500,_ZSt3minImERKT_S2_S2_
FN:280,_ZSt12__niter_baseIPKiET_S2_
FNDA:16,_ZSt12__niter_baseIPKiET_S2_
FN:280,_ZSt12__niter_baseIPiET_S1_
FNDA:23697,_ZSt12__niter_baseIPiET_S1_
FN:280,_ZSt12__niter_baseIPdET_S1_
FNDA:112335,_ZSt12__niter_baseIPdET_S1_
FN:295,_ZSt12__niter_wrapIPiET_RKS1_S1_
FNDA:9,_ZSt12__niter_wrapIPiET_RKS1_S1_
FN:295,_ZSt12__niter_wrapIPdET_RKS1_S1_
FNDA:69,_ZSt12__niter_wrapIPdET_RKS1_S1_
FN:375,_ZNSt11__copy_moveILb0ELb1ESt26random_access_iterator_tagE8__copy_mIiEEPT_PKS3_S6_S4_
FNDA:8,_ZNSt11__copy_moveILb0ELb1ESt26random_access_iterator_tagE8__copy_mIiEEPT_PKS3_S6_S4_
FN:393,_ZSt13__copy_move_aILb0EPKiPiET1_T0_S4_S3_
FNDA:8,_ZSt13__copy_move_aILb0EPKiPiET1_T0_S4_S3_
FN:438,_ZSt14__copy_move_a2ILb0EPKiPiET1_T0_S4_S3_
FNDA:8,_ZSt14__copy_move_a2ILb0EPKiPiET1_T0_S4_S3_
FN:465,_ZSt4copyIPKiPiET0_T_S4_S3_
FNDA:8,_ZSt4copyIPKiPiET0_T_S4_S3_
FN:767,_ZSt10__fill_n_aIPimiEN9__gnu_cxx11__enable_ifIXsrSt11__is_scalarIT1_E7__valueET_E6__typeES6_T0_RKS4_
FNDA:1,_ZSt10__fill_n_aIPimiEN9__gnu_cxx11__enable_ifIXsrSt11__is_scalarIT1_E7__valueET_E6__typeES6_T0_RKS4_
FN:767,_ZSt10__fill_n_aIPdmdEN9__gnu_cxx11__enable_ifIXsrSt11__is_scalarIT1_E7__valueET_E6__typeES6_T0_RKS4_
FNDA:32,_ZSt10__fill_n_aIPdmdEN9__gnu_cxx11__enable_ifIXsrSt11__is_scalarIT1_E7__valueET_E6__typeES6_T0_RKS4_
FN:802,_ZSt6fill_nIPimiET_S1_T0_RKT1_
FNDA:1,_ZSt6fill_nIPimiET_S1_T0_RKT1_
FN:802,_ZSt6fill_nIPdmdET_S1_T0_RKT1_
FNDA:32,_ZSt6fill_nIPdmdET_S1_T0_RKT1_
DA:198,37500
DA:203,37500
DA:204,0
DA:205,37500
DA:280,16
DA:282,16
DA:280,23697
DA:282,23697
DA:280,112335
DA:282,112335
DA:295,9
DA:296,9
DA:295,69
DA:296,69
DA:375,8
DA:384,8
DA:385,8
DA:386,8
DA:387,8
DA:393,8
DA:398,8
DA:404,8
DA:438,8
DA:440,8
DA:443,8
DA:465,8
DA:474,8
DA:767,1
DA:769,1
DA:770,1
DA:771,21
DA:772,20
DA:773,1
DA:767,32
DA:769,32
DA:770,32
DA:771,627
DA:772,595
DA:773,32
DA:802,1
DA:808,1
DA:809,1
DA:802,32
DA:808,32
DA:809,32
end_of_record
SF:/usr/include/c++/9/ext/type_traits.h
FN:152,_ZN9__gnu_cxx17__is_null_pointerIcEEbPT_
FNDA:79956,_ZN9__gnu_cxx17__is_null_pointerIcEEbPT_
FN:152,_ZN9__gnu_cxx17__is_null_pointerIKcEEbPT_
FNDA:0,_ZN9__gnu_cxx17__is_null_pointerIKcEEbPT_
DA:152,79956
DA:153,79956
DA:152,0
DA:153,0
end_of_record
SF:/home/john/cse701/roc/include/exceptions.hpp
FN:10,_ZN10sayMessageC2ERKNSt7__cxx1112basic_stringIcSt11char_traitsIcESaIcEEE
FNDA:0,_ZN10sayMessageC2ERKNSt7__cxx1112basic_stringIcSt11char_traitsIcESaIcEEE
FN:11,_ZNK10sayMessage4whatEv
FNDA:0,_ZNK10sayMessage4whatEv
DA:10,0
DA:11,0
end_of_record
SF:/home/john/cse701/roc/include/matrix.hpp
FN:127,_ZN6matrixIdEC2ERKmS2_
FNDA:58,_ZN6matrixIdEC2ERKmS2_
FN:127,_ZN6matrixIiEC2ERKmS2_
FNDA:1,_ZN6matrixIiEC2ERKmS2_
FN:138,_ZN6matrixIiEC2ERKSt6vectorIiSaIiEE
FNDA:2,_ZN6matrixIiEC2ERKSt6vectorIiSaIiEE
FN:151,_ZN6matrixIiEC2ERKSt16initializer_listIiE
FNDA:1,_ZN6matrixIiEC2ERKSt16initializer_listIiE
FN:158,_ZN6matrixIdEC2ERKmS2_RKSt6vectorIdSaIdEE
FNDA:23,_ZN6matrixIdEC2ERKmS2_RKSt6vectorIdSaIdEE
FN:158,_ZN6matrixIiEC2ERKmS2_RKSt6vectorIiSaIiEE
FNDA:6,_ZN6matrixIiEC2ERKmS2_RKSt6vectorIiSaIiEE
FN:173,_ZN6matrixIiEC2ERKmS2_RKSt16initializer_listIiE
FNDA:1,_ZN6matrixIiEC2ERKmS2_RKSt16initializer_listIiE
FN:181,_ZN6matrixIdEC2ERKS0_
FNDA:1,_ZN6matrixIdEC2ERKS0_
FN:190,_ZN6matrixIdEC2EOS0_
FNDA:1,_ZN6matrixIdEC2EOS0_
FN:203,_ZN6matrixIdEaSERKS0_
FNDA:3,_ZN6matrixIdEaSERKS0_
FN:218,_ZN6matrixIdEaSEOS0_
FNDA:3,_ZN6matrixIdEaSEOS0_
FN:234,_ZNK6matrixIiE8get_rowsEv
FNDA:100,_ZNK6matrixIiE8get_rowsEv
FN:234,_ZNK6matrixIdE8get_rowsEv
FNDA:349,_ZNK6matrixIdE8get_rowsEv
FN:240,_ZNK6matrixIdE8get_colsEv
FNDA:68,_ZNK6matrixIdE8get_colsEv
FN:240,_ZNK6matrixIiE8get_colsEv
FNDA:22,_ZNK6matrixIiE8get_colsEv
FN:247,_ZN6matrixIiEclERKmS2_
FNDA:91,_ZN6matrixIiEclERKmS2_
FN:247,_ZN6matrixIdEclERKmS2_
FNDA:888,_ZN6matrixIdEclERKmS2_
FN:254,_ZNK6matrixIdEclERKmS2_
FNDA:15,_ZNK6matrixIdEclERKmS2_
FN:269,_ZlsIdERSoS0_RK6matrixIT_E
FNDA:1,_ZlsIdERSoS0_RK6matrixIT_E
DA:127,1
DA:128,1
DA:130,1
DA:131,0
DA:132,1
DA:133,1
DA:134,1
DA:127,58
DA:128,62
DA:130,58
DA:131,2
DA:132,56
DA:133,54
DA:134,54
DA:138,2
DA:139,2
DA:141,2
DA:142,2
DA:143,2
DA:144,9
DA:145,32
DA:146,25
DA:147,2
DA:151,1
DA:152,1
DA:154,1
DA:158,6
DA:160,10
DA:162,6
DA:163,2
DA:164,4
DA:165,2
DA:166,2
DA:167,2
DA:168,12
DA:169,2
DA:158,23
DA:160,23
DA:162,23
DA:163,0
DA:164,23
DA:165,0
DA:166,23
DA:167,23
DA:168,368
DA:169,23
DA:173,1
DA:175,1
DA:177,1
DA:181,1
DA:183,1
DA:184,1
DA:185,1
DA:186,1
DA:190,1
DA:192,1
DA:193,1
DA:194,1
DA:195,1
DA:196,1
DA:197,1
DA:203,3
DA:205,3
DA:206,1
DA:207,2
DA:208,1
DA:209,1
DA:210,1
DA:211,1
DA:212,1
DA:213,1
DA:218,3
DA:220,3
DA:221,1
DA:222,2
DA:223,1
DA:224,1
DA:225,1
DA:226,1
DA:227,1
DA:228,1
DA:229,1
DA:230,1
DA:234,100
DA:236,100
DA:234,349
DA:236,349
DA:240,68
DA:242,68
DA:240,22
DA:242,22
DA:247,91
DA:249,91
DA:247,888
DA:249,888
DA:254,15
DA:256,15
DA:269,1
DA:275,4
DA:277,3
DA:278,18
DA:279,15
DA:280,3
DA:282,1
DA:284,1
end_of_record
SF:/usr/include/c++/9/bits/char_traits.h
FN:100,_ZN9__gnu_cxx11char_traitsIcE2eqERKcS3_
FNDA:0,_ZN9__gnu_cxx11char_traitsIcE2eqERKcS3_
FN:161,_ZN9__gnu_cxx11char_traitsIcE6lengthEPKc
FNDA:0,_ZN9__gnu_cxx11char_traitsIcE6lengthEPKc
FN:329,_ZNSt11char_traitsIcE6lengthEPKc
FNDA:0,_ZNSt11char_traitsIcE6lengthEPKc
FN:361,_ZNSt11char_traitsIcE4copyEPcPKcm
FNDA:0,_ZNSt11char_traitsIcE4copyEPcPKcm
DA:100,0
DA:101,0
DA:161,0
DA:164,0
DA:165,0
DA:166,0
DA:167,0
DA:236,0
DA:329,0
DA:332,0
DA:333,0
DA:335,0
DA:361,0
DA:363,0
DA:364,0
DA:365,0
end_of_record
SF:/usr/include/c++/9/bits/alloc_traits.h
FN:443,_ZNSt16allocator_traitsISaIdEE8allocateERS0_m
FNDA:18780,_ZNSt16allocator_traitsISaIdEE8allocateERS0_m
FN:443,_ZNSt16allocator_traitsISaIiEE8allocateERS0_m
FNDA:3957,_ZNSt16allocator_traitsISaIiEE8allocateERS0_m
FN:469,_ZNSt16allocator_traitsISaIdEE10deallocateERS0_Pdm
FNDA:0,_ZNSt16allocator_traitsISaIdEE10deallocateERS0_Pdm
FN:469,_ZNSt16allocator_traitsISaIiEE10deallocateERS0_Pim
FNDA:3957,_ZNSt16allocator_traitsISaIiEE10deallocateERS0_Pim
FN:505,_ZNSt16allocator_traitsISaIiEE8max_sizeERKS0_
FNDA:7905,_ZNSt16allocator_traitsISaIiEE8max_sizeERKS0_
FN:505,_ZNSt16allocator_traitsISaIdEE8max_sizeERKS0_
FNDA:37491,_ZNSt16allocator_traitsISaIdEE8max_sizeERKS0_
FN:514,_ZNSt16allocator_traitsISaIcEE37select_on_container_copy_constructionERKS0_
FNDA:0,_ZNSt16allocator_traitsISaIcEE37select_on_container_copy_constructionERKS0_
DA:443,18780
DA:444,18780
DA:443,3957
DA:444,3957
DA:469,0
DA:470,0
DA:469,3957
DA:470,3957
DA:505,7905
DA:506,7905
DA:505,37491
DA:506,37491
DA:514,0
DA:515,0
end_of_record
SF:/usr/local/include/gtest/internal/gtest-port.h
FN:957,_ZN7testing8internal8GTestLog9GetStreamEv
FNDA:0,_ZN7testing8internal8GTestLog9GetStreamEv
DA:957,0
end_of_record
SF:/usr/include/c++/9/bits/stl_construct.h
FN:117,_ZNSt12_Destroy_auxILb1EE9__destroyIPiEEvT_S3_
FNDA:4898,_ZNSt12_Destroy_auxILb1EE9__destroyIPiEEvT_S3_
FN:117,_ZNSt12_Destroy_auxILb1EE9__destroyIPdEEvT_S3_
FNDA:0,_ZNSt12_Destroy_auxILb1EE9__destroyIPdEEvT_S3_
FN:127,_ZSt8_DestroyIPiEvT_S1_
FNDA:4898,_ZSt8_DestroyIPiEvT_S1_
FN:127,_ZSt8_DestroyIPdEvT_S1_
FNDA:0,_ZSt8_DestroyIPdEvT_S1_
FN:203,_ZSt8_DestroyIPiiEvT_S1_RSaIT0_E
FNDA:4898,_ZSt8_DestroyIPiiEvT_S1_RSaIT0_E
FN:203,_ZSt8_DestroyIPddEvT_S1_RSaIT0_E
FNDA:0,_ZSt8_DestroyIPddEvT_S1_RSaIT0_E
DA:117,4898
DA:117,0
DA:127,4898
DA:137,4898
DA:138,4898
DA:127,0
DA:137,0
DA:138,0
DA:203,4898
DA:206,4898
DA:207,4898
DA:203,0
DA:206,0
DA:207,0
end_of_record
SF:/usr/include/c++/9/ext/new_allocator.h
FN:80,_ZN9__gnu_cxx13new_allocatorIiEC2Ev
FNDA:950,_ZN9__gnu_cxx13new_allocatorIiEC2Ev
FN:80,_ZN9__gnu_cxx13new_allocatorIdEC2Ev
FNDA:0,_ZN9__gnu_cxx13new_allocatorIdEC2Ev
FN:80,_ZN9__gnu_cxx13new_allocatorIcEC2Ev
FNDA:0,_ZN9__gnu_cxx13new_allocatorIcEC2Ev
FN:83,_ZN9__gnu_cxx13new_allocatorIiEC2ERKS1_
FNDA:18,_ZN9__gnu_cxx13new_allocatorIiEC2ERKS1_
FN:83,_ZN9__gnu_cxx13new_allocatorIdEC2ERKS1_
FNDA:0,_ZN9__gnu_cxx13new_allocatorIdEC2ERKS1_
FN:83,_ZN9__gnu_cxx13new_allocatorIcEC2ERKS1_
FNDA:0,_ZN9__gnu_cxx13new_allocatorIcEC2ERKS1_
FN:89,_ZN9__gnu_cxx13new_allocatorIiED2Ev
FNDA:968,_ZN9__gnu_cxx13new_allocatorIiED2Ev
FN:89,_ZN9__gnu_cxx13new_allocatorIdED2Ev
FNDA:0,_ZN9__gnu_cxx13new_allocatorIdED2Ev
FN:89,_ZN9__gnu_cxx13new_allocatorIcED2Ev
FNDA:0,_ZN9__gnu_cxx13new_allocatorIcED2Ev
FN:102,_ZN9__gnu_cxx13new_allocatorIdE8allocateEmPKv
FNDA:18780,_ZN9__gnu_cxx13new_allocatorIdE8allocateEmPKv
FN:102,_ZN9__gnu_cxx13new_allocatorIiE8allocateEmPKv
FNDA:3957,_ZN9__gnu_cxx13new_allocatorIiE8allocateEmPKv
FN:119,_ZN9__gnu_cxx13new_allocatorIdE10deallocateEPdm
FNDA:0,_ZN9__gnu_cxx13new_allocatorIdE10deallocateEPdm
FN:119,_ZN9__gnu_cxx13new_allocatorIiE10deallocateEPim
FNDA:3957,_ZN9__gnu_cxx13new_allocatorIiE10deallocateEPim
FN:132,_ZNK9__gnu_cxx13new_allocatorIiE8max_sizeEv
FNDA:11862,_ZNK9__gnu_cxx13new_allocatorIiE8max_sizeEv
FN:132,_ZNK9__gnu_cxx13new_allocatorIdE8max_sizeEv
FNDA:56271,_ZNK9__gnu_cxx13new_allocatorIdE8max_sizeEv
DA:80,950
DA:80,0
DA:80,0
DA:83,18
DA:83,0
DA:83,0
DA:89,968
DA:89,0
DA:89,0
DA:102,18780
DA:104,18780
DA:105,0
DA:114,18780
DA:102,3957
DA:104,3957
DA:105,0
DA:114,3957
DA:119,0
DA:128,0
DA:119,3957
DA:128,3957
DA:132,11862
DA:135,11862
DA:132,56271
DA:135,56271
end_of_record
SF:/usr/local/include/gtest/gtest-printers.h
FN:260,_ZN16testing_internal26DefaultPrintNonContainerToIiEEvRKT_PSo
FNDA:0,_ZN16testing_internal26DefaultPrintNonContainerToIiEEvRKT_PSo
FN:260,_ZN16testing_internal26DefaultPrintNonContainerToImEEvRKT_PSo
FNDA:0,_ZN16testing_internal26DefaultPrintNonContainerToImEEvRKT_PSo
FN:260,_ZN16testing_internal26DefaultPrintNonContainerToIdEEvRKT_PSo
FNDA:0,_ZN16testing_internal26DefaultPrintNonContainerToIdEEvRKT_PSo
FN:313,_ZN7testing8internal19FormatForComparisonIPdDnE6FormatB5cxx11ERKS2_
FNDA:0,_ZN7testing8internal19FormatForComparisonIPdDnE6FormatB5cxx11ERKS2_
FN:313,_ZN7testing8internal19FormatForComparisonIDnPdE6FormatB5cxx11ERKDn
FNDA:0,_ZN7testing8internal19FormatForComparisonIDnPdE6FormatB5cxx11ERKDn
FN:377,_ZN7testing8internal33FormatForComparisonFailureMessageIPdDnEENSt7__cxx1112basic_stringIcSt11char_traitsIcESaIcEEERKT_RKT0_
FNDA:0,_ZN7testing8internal33FormatForComparisonFailureMessageIPdDnEENSt7__cxx1112basic_stringIcSt11char_traitsIcESaIcEEERKT_RKT0_
FN:377,_ZN7testing8internal33FormatForComparisonFailureMessageIDnPdEENSt7__cxx1112basic_stringIcSt11char_traitsIcESaIcEEERKT_RKT0_
FNDA:0,_ZN7testing8internal33FormatForComparisonFailureMessageIDnPdEENSt7__cxx1112basic_stringIcSt11char_traitsIcESaIcEEERKT_RKT0_
FN:439,_ZN7testing8internal14DefaultPrintToIdEEvNS0_15WrapPrinterTypeILNS0_18DefaultPrinterTypeE1EEEPT_PSo
FNDA:0,_ZN7testing8internal14DefaultPrintToIdEEvNS0_15WrapPrinterTypeILNS0_18DefaultPrinterTypeE1EEEPT_PSo
FN:466,_ZN7testing8internal14DefaultPrintToIdEEvNS0_15WrapPrinterTypeILNS0_18DefaultPrinterTypeE3EEERKT_PSo
FNDA:0,_ZN7testing8internal14DefaultPrintToIdEEvNS0_15WrapPrinterTypeILNS0_18DefaultPrinterTypeE3EEERKT_PSo
FN:466,_ZN7testing8internal14DefaultPrintToIiEEvNS0_15WrapPrinterTypeILNS0_18DefaultPrinterTypeE3EEERKT_PSo
FNDA:0,_ZN7testing8internal14DefaultPrintToIiEEvNS0_15WrapPrinterTypeILNS0_18DefaultPrinterTypeE3EEERKT_PSo
FN:466,_ZN7testing8internal14DefaultPrintToImEEvNS0_15WrapPrinterTypeILNS0_18DefaultPrinterTypeE3EEERKT_PSo
FNDA:0,_ZN7testing8internal14DefaultPrintToImEEvNS0_15WrapPrinterTypeILNS0_18DefaultPrinterTypeE3EEERKT_PSo
FN:483,_ZN7testing8internal7PrintToIPdEEvRKT_PSo
FNDA:0,_ZN7testing8internal7PrintToIPdEEvRKT_PSo
FN:483,_ZN7testing8internal7PrintToIdEEvRKT_PSo
FNDA:0,_ZN7testing8internal7PrintToIdEEvRKT_PSo
FN:483,_ZN7testing8internal7PrintToImEEvRKT_PSo
FNDA:0,_ZN7testing8internal7PrintToImEEvRKT_PSo
FN:483,_ZN7testing8internal7PrintToIiEEvRKT_PSo
FNDA:0,_ZN7testing8internal7PrintToIiEEvRKT_PSo
FN:613,_ZN7testing8internal7PrintToEDnPSo
FNDA:0,_ZN7testing8internal7PrintToEDnPSo
FN:670,_ZN7testing8internal16UniversalPrinterIPdE5PrintERKS2_PSo
FNDA:0,_ZN7testing8internal16UniversalPrinterIPdE5PrintERKS2_PSo
FN:670,_ZN7testing8internal16UniversalPrinterIDnE5PrintERKDnPSo
FNDA:0,_ZN7testing8internal16UniversalPrinterIDnE5PrintERKDnPSo
FN:670,_ZN7testing8internal16UniversalPrinterIiE5PrintERKiPSo
FNDA:0,_ZN7testing8internal16UniversalPrinterIiE5PrintERKiPSo
FN:670,_ZN7testing8internal16UniversalPrinterImE5PrintERKmPSo
FNDA:0,_ZN7testing8internal16UniversalPrinterImE5PrintERKmPSo
FN:670,_ZN7testing8internal16UniversalPrinterIdE5PrintERKdPSo
FNDA:0,_ZN7testing8internal16UniversalPrinterIdE5PrintERKdPSo
FN:796,_ZN7testing8internal21UniversalTersePrinterIPdE5PrintERKS2_PSo
FNDA:0,_ZN7testing8internal21UniversalTersePrinterIPdE5PrintERKS2_PSo
FN:796,_ZN7testing8internal21UniversalTersePrinterIDnE5PrintERKDnPSo
FNDA:0,_ZN7testing8internal21UniversalTersePrinterIDnE5PrintERKDnPSo
FN:865,_ZN7testing8internal14UniversalPrintIPdEEvRKT_PSo
FNDA:0,_ZN7testing8internal14UniversalPrintIPdEEvRKT_PSo
FN:865,_ZN7testing8internal14UniversalPrintIDnEEvRKT_PSo
FNDA:0,_ZN7testing8internal14UniversalPrintIDnEEvRKT_PSo
FN:865,_ZN7testing8internal14UniversalPrintIiEEvRKT_PSo
FNDA:0,_ZN7testing8internal14UniversalPrintIiEEvRKT_PSo
FN:865,_ZN7testing8internal14UniversalPrintImEEvRKT_PSo
FNDA:0,_ZN7testing8internal14UniversalPrintImEEvRKT_PSo
FN:865,_ZN7testing8internal14UniversalPrintIdEEvRKT_PSo
FNDA:0,_ZN7testing8internal14UniversalPrintIdEEvRKT_PSo
FN:915,_ZN7testing13PrintToStringIPdEENSt7__cxx1112basic_stringIcSt11char_traitsIcESaIcEEERKT_
FNDA:0,_ZN7testing13PrintToStringIPdEENSt7__cxx1112basic_stringIcSt11char_traitsIcESaIcEEERKT_
FN:915,_ZN7testing13PrintToStringIDnEENSt7__cxx1112basic_stringIcSt11char_traitsIcESaIcEEERKT_
FNDA:0,_ZN7testing13PrintToStringIDnEENSt7__cxx1112basic_stringIcSt11char_traitsIcESaIcEEERKT_
DA:260,0
DA:287,0
DA:288,0
DA:260,0
DA:287,0
DA:288,0
DA:260,0
DA:287,0
DA:288,0
DA:313,0
DA:314,0
DA:313,0
DA:314,0
DA:377,0
DA:379,0
DA:377,0
DA:379,0
DA:439,0
DA:441,0
DA:442,0
DA:447,0
DA:449,0
DA:466,0
DA:468,0
DA:469,0
DA:466,0
DA:468,0
DA:469,0
DA:466,0
DA:468,0
DA:469,0
DA:483,0
DA:503,0
DA:514,0
DA:483,0
DA:503,0
DA:514,0
DA:483,0
DA:503,0
DA:514,0
DA:483,0
DA:503,0
DA:514,0
DA:613,0
DA:670,0
DA:679,0
DA:680,0
DA:670,0
DA:679,0
DA:680,0
DA:670,0
DA:679,0
DA:680,0
DA:670,0
DA:679,0
DA:680,0
DA:670,0
DA:679,0
DA:680,0
DA:796,0
DA:797,0
DA:798,0
DA:796,0
DA:797,0
DA:798,0
DA:865,0
DA:869,0
DA:870,0
DA:865,0
DA:869,0
DA:870,0
DA:865,0
DA:869,0
DA:870,0
DA:865,0
DA:869,0
DA:870,0
DA:865,0
DA:869,0
DA:870,0
DA:915,0
DA:916,0
DA:917,0
DA:918,0
DA:915,0
DA:916,0
DA:917,0
DA:918,0
end_of_record
SF:/usr/include/c++/9/bits/stl_iterator_base_types.h
FN:205,_ZSt19__iterator_categoryIPcENSt15iterator_traitsIT_E17iterator_categoryERKS2_
FNDA:79956,_ZSt19__iterator_categoryIPcENSt15iterator_traitsIT_E17iterator_categoryERKS2_
FN:205,_ZSt19__iterator_categoryIPKcENSt15iterator_traitsIT_E17iterator_categoryERKS3_
FNDA:0,_ZSt19__iterator_categoryIPKcENSt15iterator_traitsIT_E17iterator_categoryERKS3_
FN:205,_ZSt19__iterator_categoryIPKiENSt15iterator_traitsIT_E17iterator_categoryERKS3_
FNDA:8,_ZSt19__iterator_categoryIPKiENSt15iterator_traitsIT_E17iterator_categoryERKS3_
DA:205,79956
DA:206,79956
DA:205,0
DA:206,0
DA:205,8
DA:206,8
end_of_record
SF:/usr/include/c++/9/typeinfo
FN:99,_ZNKSt9type_info4nameEv
FNDA:0,_ZNKSt9type_info4nameEv
DA:99,0
DA:100,0
end_of_record
SF:/usr/local/include/gtest/gtest.h
FN:312,_ZNK7testing15AssertionResultcvbEv
FNDA:0,_ZNK7testing15AssertionResultcvbEv
FN:321,_ZNK7testing15AssertionResult7messageEv
FNDA:0,_ZNK7testing15AssertionResult7messageEv
FN:325,_ZNK7testing15AssertionResult15failure_messageEv
FNDA:0,_ZNK7testing15AssertionResult15failure_messageEv
FN:328,_ZN7testing15AssertionResultlsINSt7__cxx1112basic_stringIcSt11char_traitsIcESaIcEEEEERS0_RKT_
FNDA:0,_ZN7testing15AssertionResultlsINSt7__cxx1112basic_stringIcSt11char_traitsIcESaIcEEEEERS0_RKT_
FN:343,_ZN7testing15AssertionResult13AppendMessageERKNS_7MessageE
FNDA:0,_ZN7testing15AssertionResult13AppendMessageERKNS_7MessageE
FN:417,_ZN7testing4Test14SetUpTestSuiteEv
FNDA:0,_ZN7testing4Test14SetUpTestSuiteEv
FN:427,_ZN7testing4Test17TearDownTestSuiteEv
FNDA:0,_ZN7testing4Test17TearDownTestSuiteEv
FN:431,_ZN7testing4Test16TearDownTestCaseEv
FNDA:0,_ZN7testing4Test16TearDownTestCaseEv
FN:432,_ZN7testing4Test13SetUpTestCaseEv
FNDA:0,_ZN7testing4Test13SetUpTestCaseEv
FN:513,_ZN7testing4Test5SetupEv
FNDA:0,_ZN7testing4Test5SetupEv
FN:1504,_ZN7testing8internal18CmpHelperEQFailureIPdDnEENS_15AssertionResultEPKcS5_RKT_RKT0_
FNDA:0,_ZN7testing8internal18CmpHelperEQFailureIPdDnEENS_15AssertionResultEPKcS5_RKT_RKT0_
FN:1523,_ZN7testing8internal11CmpHelperEQIPdDnEENS_15AssertionResultEPKcS5_RKT_RKT0_
FNDA:2,_ZN7testing8internal11CmpHelperEQIPdDnEENS_15AssertionResultEPKcS5_RKT_RKT0_
FN:1551,_ZN7testing8internal8EqHelper7CompareIPdDnLPv0EEENS_15AssertionResultEPKcS7_RKT_RKT0_
FNDA:2,_ZN7testing8internal8EqHelper7CompareIPdDnLPv0EEENS_15AssertionResultEPKcS7_RKT_RKT0_
DA:312,0
DA:321,0
DA:322,0
DA:325,0
DA:328,0
DA:329,0
DA:330,0
DA:343,0
DA:344,0
DA:345,0
DA:346,0
DA:417,0
DA:427,0
DA:431,0
DA:432,0
DA:513,0
DA:1504,0
DA:1511,0
DA:1523,2
DA:1527,2
DA:1528,2
DA:1531,0
DA:1551,2
DA:1554,2
end_of_record
SF:/usr/include/c++/9/bits/ios_base.h
FN:705,_ZNSt8ios_base9precisionEl
FNDA:0,_ZNSt8ios_base9precisionEl
DA:705,0
DA:707,0
DA:708,0
DA:709,0
end_of_record
SF:/usr/include/c++/9/bits/allocator.h
FN:138,_ZNSaIiEC2Ev
FNDA:950,_ZNSaIiEC2Ev
FN:138,_ZNSaIdEC2Ev
FNDA:0,_ZNSaIdEC2Ev
FN:141,_ZNSaIiEC2ERKS_
FNDA:18,_ZNSaIiEC2ERKS_
FN:141,_ZNSaIdEC2ERKS_
FNDA:0,_ZNSaIdEC2ERKS_
FN:153,_ZNSaIiED2Ev
FNDA:968,_ZNSaIiED2Ev
FN:153,_ZNSaIdED2Ev
FNDA:0,_ZNSaIdED2Ev
DA:138,950
DA:138,0
DA:141,18
DA:142,18
DA:141,0
DA:142,0
DA:153,968
DA:153,0
end_of_record
TN:
SF:/usr/include/c++/9/bits/stl_iterator_base_funcs.h
FN:98,_ZSt10__distanceIPcENSt15iterator_traitsIT_E15difference_typeES2_S2_St26random_access_iterator_tag
FNDA:0,_ZSt10__distanceIPcENSt15iterator_traitsIT_E15difference_typeES2_S2_St26random_access_iterator_tag
FN:98,_ZSt10__distanceIPKcENSt15iterator_traitsIT_E15difference_typeES3_S3_St26random_access_iterator_tag
FNDA:0,_ZSt10__distanceIPKcENSt15iterator_traitsIT_E15difference_typeES3_S3_St26random_access_iterator_tag
FN:98,_ZSt10__distanceIPKdENSt15iterator_traitsIT_E15difference_typeES3_S3_St26random_access_iterator_tag
FNDA:0,_ZSt10__distanceIPKdENSt15iterator_traitsIT_E15difference_typeES3_S3_St26random_access_iterator_tag
FN:138,_ZSt8distanceIPcENSt15iterator_traitsIT_E15difference_typeES2_S2_
FNDA:0,_ZSt8distanceIPcENSt15iterator_traitsIT_E15difference_typeES2_S2_
FN:138,_ZSt8distanceIPKcENSt15iterator_traitsIT_E15difference_typeES3_S3_
FNDA:0,_ZSt8distanceIPKcENSt15iterator_traitsIT_E15difference_typeES3_S3_
FN:138,_ZSt8distanceIPKdENSt15iterator_traitsIT_E15difference_typeES3_S3_
FNDA:0,_ZSt8distanceIPKdENSt15iterator_traitsIT_E15difference_typeES3_S3_
DA:98,0
DA:104,0
DA:98,0
DA:104,0
DA:98,0
DA:104,0
DA:138,0
DA:141,0
DA:142,0
DA:138,0
DA:141,0
DA:142,0
DA:138,0
DA:141,0
DA:142,0
end_of_record
SF:/usr/include/c++/9/bits/unique_ptr.h
FN:75,_ZNKSt14default_deleteINSt7__cxx1118basic_stringstreamIcSt11char_traitsIcESaIcEEEEclEPS5_
FNDA:0,_ZNKSt14default_deleteINSt7__cxx1118basic_stringstreamIcSt11char_traitsIcESaIcEEEEclEPS5_
FN:75,_ZNKSt14default_deleteINSt7__cxx1112basic_stringIcSt11char_traitsIcESaIcEEEEclEPS5_
FNDA:0,_ZNKSt14default_deleteINSt7__cxx1112basic_stringIcSt11char_traitsIcESaIcEEEEclEPS5_
FN:153,_ZNSt15__uniq_ptr_implINSt7__cxx1118basic_stringstreamIcSt11char_traitsIcESaIcEEESt14default_deleteIS5_EE6_M_ptrEv
FNDA:0,_ZNSt15__uniq_ptr_implINSt7__cxx1118basic_stringstreamIcSt11char_traitsIcESaIcEEESt14default_deleteIS5_EE6_M_ptrEv
FN:153,_ZNSt15__uniq_ptr_implINSt7__cxx1112basic_stringIcSt11char_traitsIcESaIcEEESt14default_deleteIS5_EE6_M_ptrEv
FNDA:0,_ZNSt15__uniq_ptr_implINSt7__cxx1112basic_stringIcSt11char_traitsIcESaIcEEESt14default_deleteIS5_EE6_M_ptrEv
FN:154,_ZNKSt15__uniq_ptr_implINSt7__cxx1118basic_stringstreamIcSt11char_traitsIcESaIcEEESt14default_deleteIS5_EE6_M_ptrEv
FNDA:0,_ZNKSt15__uniq_ptr_implINSt7__cxx1118basic_stringstreamIcSt11char_traitsIcESaIcEEESt14default_deleteIS5_EE6_M_ptrEv
FN:154,_ZNKSt15__uniq_ptr_implINSt7__cxx1112basic_stringIcSt11char_traitsIcESaIcEEESt14default_deleteIS5_EE6_M_ptrEv
FNDA:0,_ZNKSt15__uniq_ptr_implINSt7__cxx1112basic_stringIcSt11char_traitsIcESaIcEEESt14default_deleteIS5_EE6_M_ptrEv
FN:155,_ZNSt15__uniq_ptr_implINSt7__cxx1118basic_stringstreamIcSt11char_traitsIcESaIcEEESt14default_deleteIS5_EE10_M_deleterEv
FNDA:0,_ZNSt15__uniq_ptr_implINSt7__cxx1118basic_stringstreamIcSt11char_traitsIcESaIcEEESt14default_deleteIS5_EE10_M_deleterEv
FN:155,_ZNSt15__uniq_ptr_implINSt7__cxx1112basic_stringIcSt11char_traitsIcESaIcEEESt14default_deleteIS5_EE10_M_deleterEv
FNDA:0,_ZNSt15__uniq_ptr_implINSt7__cxx1112basic_stringIcSt11char_traitsIcESaIcEEESt14default_deleteIS5_EE10_M_deleterEv
FN:286,_ZNSt10unique_ptrINSt7__cxx1112basic_stringIcSt11char_traitsIcESaIcEEESt14default_deleteIS5_EED2Ev
FNDA:0,_ZNSt10unique_ptrINSt7__cxx1112basic_stringIcSt11char_traitsIcESaIcEEESt14default_deleteIS5_EED2Ev
FN:286,_ZNSt10unique_ptrINSt7__cxx1118basic_stringstreamIcSt11char_traitsIcESaIcEEESt14default_deleteIS5_EED2Ev
FNDA:0,_ZNSt10unique_ptrINSt7__cxx1118basic_stringstreamIcSt11char_traitsIcESaIcEEESt14default_deleteIS5_EED2Ev
FN:344,_ZNKSt10unique_ptrINSt7__cxx1118basic_stringstreamIcSt11char_traitsIcESaIcEEESt14default_deleteIS5_EEdeEv
FNDA:0,_ZNKSt10unique_ptrINSt7__cxx1118basic_stringstreamIcSt11char_traitsIcESaIcEEESt14default_deleteIS5_EEdeEv
FN:352,_ZNKSt10unique_ptrINSt7__cxx1112basic_stringIcSt11char_traitsIcESaIcEEESt14default_deleteIS5_EEptEv
FNDA:0,_ZNKSt10unique_ptrINSt7__cxx1112basic_stringIcSt11char_traitsIcESaIcEEESt14default_deleteIS5_EEptEv
FN:360,_ZNKSt10unique_ptrINSt7__cxx1118basic_stringstreamIcSt11char_traitsIcESaIcEEESt14default_deleteIS5_EE3getEv
FNDA:0,_ZNKSt10unique_ptrINSt7__cxx1118basic_stringstreamIcSt11char_traitsIcESaIcEEESt14default_deleteIS5_EE3getEv
FN:360,_ZNKSt10unique_ptrINSt7__cxx1112basic_stringIcSt11char_traitsIcESaIcEEESt14default_deleteIS5_EE3getEv
FNDA:0,_ZNKSt10unique_ptrINSt7__cxx1112basic_stringIcSt11char_traitsIcESaIcEEESt14default_deleteIS5_EE3getEv
FN:365,_ZNSt10unique_ptrINSt7__cxx1112basic_stringIcSt11char_traitsIcESaIcEEESt14default_deleteIS5_EE11get_deleterEv
FNDA:0,_ZNSt10unique_ptrINSt7__cxx1112basic_stringIcSt11char_traitsIcESaIcEEESt14default_deleteIS5_EE11get_deleterEv
FN:365,_ZNSt10unique_ptrINSt7__cxx1118basic_stringstreamIcSt11char_traitsIcESaIcEEESt14default_deleteIS5_EE11get_deleterEv
FNDA:0,_ZNSt10unique_ptrINSt7__cxx1118basic_stringstreamIcSt11char_traitsIcESaIcEEESt14default_deleteIS5_EE11get_deleterEv
FN:395,_ZNSt10unique_ptrINSt7__cxx1112basic_stringIcSt11char_traitsIcESaIcEEESt14default_deleteIS5_EE5resetEPS5_
FNDA:0,_ZNSt10unique_ptrINSt7__cxx1112basic_stringIcSt11char_traitsIcESaIcEEESt14default_deleteIS5_EE5resetEPS5_
DA:75,0
DA:81,0
DA:82,0
DA:75,0
DA:81,0
DA:82,0
DA:153,0
DA:153,0
DA:154,0
DA:154,0
DA:155,0
DA:155,0
DA:286,0
DA:290,0
DA:291,0
DA:292,0
DA:293,0
DA:294,0
DA:286,0
DA:290,0
DA:291,0
DA:292,0
DA:293,0
DA:294,0
DA:344,0
DA:347,0
DA:352,0
DA:355,0
DA:360,0
DA:361,0
DA:360,0
DA:361,0
DA:365,0
DA:366,0
DA:365,0
DA:366,0
DA:395,0
DA:400,0
DA:401,0
DA:402,0
DA:403,0
end_of_record
SF:/usr/include/c++/9/bits/move.h
FN:99,_ZSt4moveIRN7testing8internal9EqMatcherIiEEEONSt16remove_referenceIT_E4typeEOS6_
FNDA:0,_ZSt4moveIRN7testing8internal9EqMatcherIiEEEONSt16remove_referenceIT_E4typeEOS6_
FN:99,_ZSt4moveIRN7testing8internal17FloatingEqMatcherIdEEEONSt16remove_referenceIT_E4typeEOS6_
FNDA:0,_ZSt4moveIRN7testing8internal17FloatingEqMatcherIdEEEONSt16remove_referenceIT_E4typeEOS6_
FN:99,_ZSt4moveIRPNSt7__cxx1112basic_stringIcSt11char_traitsIcESaIcEEEEONSt16remove_referenceIT_E4typeEOS9_
FNDA:0,_ZSt4moveIRPNSt7__cxx1112basic_stringIcSt11char_traitsIcESaIcEEEEONSt16remove_referenceIT_E4typeEOS9_
FN:99,_ZSt4moveIRPNSt7__cxx1118basic_stringstreamIcSt11char_traitsIcESaIcEEEEONSt16remove_referenceIT_E4typeEOS9_
FNDA:0,_ZSt4moveIRPNSt7__cxx1118basic_stringstreamIcSt11char_traitsIcESaIcEEEEONSt16remove_referenceIT_E4typeEOS9_
FN:99,_ZSt4moveIRSaIcEEONSt16remove_referenceIT_E4typeEOS3_
FNDA:0,_ZSt4moveIRSaIcEEONSt16remove_referenceIT_E4typeEOS3_
FN:182,_ZSt4swapIPNSt7__cxx1112basic_stringIcSt11char_traitsIcESaIcEEEENSt9enable_ifIXsrSt6__and_IJSt6__not_ISt15__is_tuple_likeIT_EESt21is_move_constructibleISB_ESt18is_move_assignableISB_EEE5valueEvE4typeERSB_SL_
FNDA:0,_ZSt4swapIPNSt7__cxx1112basic_stringIcSt11char_traitsIcESaIcEEEENSt9enable_ifIXsrSt6__and_IJSt6__not_ISt15__is_tuple_likeIT_EESt21is_move_constructibleISB_ESt18is_move_assignableISB_EEE5valueEvE4typeERSB_SL_
DA:99,0
DA:100,0
DA:99,0
DA:100,0
DA:99,0
DA:100,0
DA:99,0
DA:100,0
DA:99,0
DA:100,0
DA:182,0
DA:193,0
DA:194,0
DA:195,0
DA:196,0
end_of_record
SF:/usr/local/include/gtest/gtest-message.h
FN:112,_ZN7testing7MessagelsINSt7__cxx1112basic_stringIcSt11char_traitsIcESaIcEEEEERS0_RKT_
FNDA:0,_ZN7testing7MessagelsINSt7__cxx1112basic_stringIcSt11char_traitsIcESaIcEEEEERS0_RKT_
DA:112,0
DA:128,0
DA:129,0
end_of_record
SF:/usr/include/c++/9/tuple
FN:113,_ZNSt10_Head_baseILm1ESt14default_deleteINSt7__cxx1112basic_stringIcSt11char_traitsIcESaIcEEEELb1EE7_M_headERS8_
FNDA:0,_ZNSt10_Head_baseILm1ESt14default_deleteINSt7__cxx1112basic_stringIcSt11char_traitsIcESaIcEEEELb1EE7_M_headERS8_
FN:113,_ZNSt10_Head_baseILm1ESt14default_deleteINSt7__cxx1118basic_stringstreamIcSt11char_traitsIcESaIcEEEELb1EE7_M_headERS8_
FNDA:0,_ZNSt10_Head_baseILm1ESt14default_deleteINSt7__cxx1118basic_stringstreamIcSt11char_traitsIcESaIcEEEELb1EE7_M_headERS8_
FN:160,_ZNSt10_Head_baseILm0EPNSt7__cxx1118basic_stringstreamIcSt11char_traitsIcESaIcEEELb0EE7_M_headERS7_
FNDA:0,_ZNSt10_Head_baseILm0EPNSt7__cxx1118basic_stringstreamIcSt11char_traitsIcESaIcEEELb0EE7_M_headERS7_
FN:160,_ZNSt10_Head_baseILm0EPNSt7__cxx1112basic_stringIcSt11char_traitsIcESaIcEEELb0EE7_M_headERS7_
FNDA:0,_ZNSt10_Head_baseILm0EPNSt7__cxx1112basic_stringIcSt11char_traitsIcESaIcEEELb0EE7_M_headERS7_
FN:163,_ZNSt10_Head_baseILm0EPNSt7__cxx1118basic_stringstreamIcSt11char_traitsIcESaIcEEELb0EE7_M_headERKS7_
FNDA:0,_ZNSt10_Head_baseILm0EPNSt7__cxx1118basic_stringstreamIcSt11char_traitsIcESaIcEEELb0EE7_M_headERKS7_
FN:163,_ZNSt10_Head_baseILm0EPNSt7__cxx1112basic_stringIcSt11char_traitsIcESaIcEEELb0EE7_M_headERKS7_
FNDA:0,_ZNSt10_Head_baseILm0EPNSt7__cxx1112basic_stringIcSt11char_traitsIcESaIcEEELb0EE7_M_headERKS7_
FN:195,_ZNSt11_Tuple_implILm0EJPNSt7__cxx1112basic_stringIcSt11char_traitsIcESaIcEEESt14default_deleteIS5_EEE7_M_headERS9_
FNDA:0,_ZNSt11_Tuple_implILm0EJPNSt7__cxx1112basic_stringIcSt11char_traitsIcESaIcEEESt14default_deleteIS5_EEE7_M_headERS9_
FN:195,_ZNSt11_Tuple_implILm0EJPNSt7__cxx1118basic_stringstreamIcSt11char_traitsIcESaIcEEESt14default_deleteIS5_EEE7_M_headERS9_
FNDA:0,_ZNSt11_Tuple_implILm0EJPNSt7__cxx1118basic_stringstreamIcSt11char_traitsIcESaIcEEESt14default_deleteIS5_EEE7_M_headERS9_
FN:198,_ZNSt11_Tuple_implILm0EJPNSt7__cxx1118basic_stringstreamIcSt11char_traitsIcESaIcEEESt14default_deleteIS5_EEE7_M_headERKS9_
FNDA:0,_ZNSt11_Tuple_implILm0EJPNSt7__cxx1118basic_stringstreamIcSt11char_traitsIcESaIcEEESt14default_deleteIS5_EEE7_M_headERKS9_
FN:198,_ZNSt11_Tuple_implILm0EJPNSt7__cxx1112basic_stringIcSt11char_traitsIcESaIcEEESt14default_deleteIS5_EEE7_M_headERKS9_
FNDA:0,_ZNSt11_Tuple_implILm0EJPNSt7__cxx1112basic_stringIcSt11char_traitsIcESaIcEEESt14default_deleteIS5_EEE7_M_headERKS9_
FN:334,_ZNSt11_Tuple_implILm1EJSt14default_deleteINSt7__cxx1118basic_stringstreamIcSt11char_traitsIcESaIcEEEEEE7_M_headERS8_
FNDA:0,_ZNSt11_Tuple_implILm1EJSt14default_deleteINSt7__cxx1118basic_stringstreamIcSt11char_traitsIcESaIcEEEEEE7_M_headERS8_
FN:334,_ZNSt11_Tuple_implILm1EJSt14default_deleteINSt7__cxx1112basic_stringIcSt11char_traitsIcESaIcEEEEEE7_M_headERS8_
FNDA:0,_ZNSt11_Tuple_implILm1EJSt14default_deleteINSt7__cxx1112basic_stringIcSt11char_traitsIcESaIcEEEEEE7_M_headERS8_
FN:1309,_ZSt12__get_helperILm1ESt14default_deleteINSt7__cxx1112basic_stringIcSt11char_traitsIcESaIcEEEEJEERT0_RSt11_Tuple_implIXT_EJS8_DpT1_EE
FNDA:0,_ZSt12__get_helperILm1ESt14default_deleteINSt7__cxx1112basic_stringIcSt11char_traitsIcESaIcEEEEJEERT0_RSt11_Tuple_implIXT_EJS8_DpT1_EE
FN:1309,_ZSt12__get_helperILm1ESt14default_deleteINSt7__cxx1118basic_stringstreamIcSt11char_traitsIcESaIcEEEEJEERT0_RSt11_Tuple_implIXT_EJS8_DpT1_EE
FNDA:0,_ZSt12__get_helperILm1ESt14default_deleteINSt7__cxx1118basic_stringstreamIcSt11char_traitsIcESaIcEEEEJEERT0_RSt11_Tuple_implIXT_EJS8_DpT1_EE
FN:1309,_ZSt12__get_helperILm0EPNSt7__cxx1118basic_stringstreamIcSt11char_traitsIcESaIcEEEJSt14default_deleteIS5_EEERT0_RSt11_Tuple_implIXT_EJS9_DpT1_EE
FNDA:0,_ZSt12__get_helperILm0EPNSt7__cxx1118basic_stringstreamIcSt11char_traitsIcESaIcEEEJSt14default_deleteIS5_EEERT0_RSt11_Tuple_implIXT_EJS9_DpT1_EE
FN:1309,_ZSt12__get_helperILm0EPNSt7__cxx1112basic_stringIcSt11char_traitsIcESaIcEEEJSt14default_deleteIS5_EEERT0_RSt11_Tuple_implIXT_EJS9_DpT1_EE
FNDA:0,_ZSt12__get_helperILm0EPNSt7__cxx1112basic_stringIcSt11char_traitsIcESaIcEEEJSt14default_deleteIS5_EEERT0_RSt11_Tuple_implIXT_EJS9_DpT1_EE
FN:1314,_ZSt12__get_helperILm0EPNSt7__cxx1118basic_stringstreamIcSt11char_traitsIcESaIcEEEJSt14default_deleteIS5_EEERKT0_RKSt11_Tuple_implIXT_EJS9_DpT1_EE
FNDA:0,_ZSt12__get_helperILm0EPNSt7__cxx1118basic_stringstreamIcSt11char_traitsIcESaIcEEEJSt14default_deleteIS5_EEERKT0_RKSt11_Tuple_implIXT_EJS9_DpT1_EE
FN:1314,_ZSt12__get_helperILm0EPNSt7__cxx1112basic_stringIcSt11char_traitsIcESaIcEEEJSt14default_deleteIS5_EEERKT0_RKSt11_Tuple_implIXT_EJS9_DpT1_EE
FNDA:0,_ZSt12__get_helperILm0EPNSt7__cxx1112basic_stringIcSt11char_traitsIcESaIcEEEJSt14default_deleteIS5_EEERKT0_RKSt11_Tuple_implIXT_EJS9_DpT1_EE
FN:1320,_ZSt3getILm1EJPNSt7__cxx1118basic_stringstreamIcSt11char_traitsIcESaIcEEESt14default_deleteIS5_EEERNSt13tuple_elementIXT_ESt5tupleIJDpT0_EEE4typeERSD_
FNDA:0,_ZSt3getILm1EJPNSt7__cxx1118basic_stringstreamIcSt11char_traitsIcESaIcEEESt14default_deleteIS5_EEERNSt13tuple_elementIXT_ESt5tupleIJDpT0_EEE4typeERSD_
FN:1320,_ZSt3getILm1EJPNSt7__cxx1112basic_stringIcSt11char_traitsIcESaIcEEESt14default_deleteIS5_EEERNSt13tuple_elementIXT_ESt5tupleIJDpT0_EEE4typeERSD_
FNDA:0,_ZSt3getILm1EJPNSt7__cxx1112basic_stringIcSt11char_traitsIcESaIcEEESt14default_deleteIS5_EEERNSt13tuple_elementIXT_ESt5tupleIJDpT0_EEE4typeERSD_
FN:1320,_ZSt3getILm0EJPNSt7__cxx1112basic_stringIcSt11char_traitsIcESaIcEEESt14default_deleteIS5_EEERNSt13tuple_elementIXT_ESt5tupleIJDpT0_EEE4typeERSD_
FNDA:0,_ZSt3getILm0EJPNSt7__cxx1112basic_stringIcSt11char_traitsIcESaIcEEESt14default_deleteIS5_EEERNSt13tuple_elementIXT_ESt5tupleIJDpT0_EEE4typeERSD_
FN:1320,_ZSt3getILm0EJPNSt7__cxx1118basic_stringstreamIcSt11char_traitsIcESaIcEEESt14default_deleteIS5_EEERNSt13tuple_elementIXT_ESt5tupleIJDpT0_EEE4typeERSD_
FNDA:0,_ZSt3getILm0EJPNSt7__cxx1118basic_stringstreamIcSt11char_traitsIcESaIcEEESt14default_deleteIS5_EEERNSt13tuple_elementIXT_ESt5tupleIJDpT0_EEE4typeERSD_
FN:1326,_ZSt3getILm0EJPNSt7__cxx1118basic_stringstreamIcSt11char_traitsIcESaIcEEESt14default_deleteIS5_EEERKNSt13tuple_elementIXT_ESt5tupleIJDpT0_EEE4typeERKSD_
FNDA:0,_ZSt3getILm0EJPNSt7__cxx1118basic_stringstreamIcSt11char_traitsIcESaIcEEESt14default_deleteIS5_EEERKNSt13tuple_elementIXT_ESt5tupleIJDpT0_EEE4typeERKSD_
FN:1326,_ZSt3getILm0EJPNSt7__cxx1112basic_stringIcSt11char_traitsIcESaIcEEESt14default_deleteIS5_EEERKNSt13tuple_elementIXT_ESt5tupleIJDpT0_EEE4typeERKSD_
FNDA:0,_ZSt3getILm0EJPNSt7__cxx1112basic_stringIcSt11char_traitsIcESaIcEEESt14default_deleteIS5_EEERKNSt13tuple_elementIXT_ESt5tupleIJDpT0_EEE4typeERKSD_
DA:113,0
DA:113,0
DA:160,0
DA:160,0
DA:163,0
DA:163,0
DA:195,0
DA:195,0
DA:198,0
DA:198,0
DA:334,0
DA:334,0
DA:1309,0
DA:1310,0
DA:1309,0
DA:1310,0
DA:1309,0
DA:1310,0
DA:1309,0
DA:1310,0
DA:1314,0
DA:1315,0
DA:1314,0
DA:1315,0
DA:1320,0
DA:1321,0
DA:1320,0
DA:1321,0
DA:1320,0
DA:1321,0
DA:1320,0
DA:1321,0
DA:1326,0
DA:1327,0
DA:1326,0
DA:1327,0
end_of_record
SF:/usr/local/include/gtest/internal/gtest-port.h
FN:957,_ZN7testing8internal8GTestLog9GetStreamEv
FNDA:0,_ZN7testing8internal8GTestLog9GetStreamEv
DA:957,0
end_of_record
SF:/usr/include/c++/9/bits/alloc_traits.h
FN:443,_ZNSt16allocator_traitsISaIdEE8allocateERS0_m
FNDA:0,_ZNSt16allocator_traitsISaIdEE8allocateERS0_m
FN:469,_ZNSt16allocator_traitsISaIdEE10deallocateERS0_Pdm
FNDA:0,_ZNSt16allocator_traitsISaIdEE10deallocateERS0_Pdm
FN:505,_ZNSt16allocator_traitsISaIdEE8max_sizeERKS0_
FNDA:0,_ZNSt16allocator_traitsISaIdEE8max_sizeERKS0_
FN:514,_ZNSt16allocator_traitsISaIcEE37select_on_container_copy_constructionERKS0_
FNDA:0,_ZNSt16allocator_traitsISaIcEE37select_on_container_copy_constructionERKS0_
DA:443,0
DA:444,0
DA:469,0
DA:470,0
DA:505,0
DA:506,0
DA:514,0
DA:515,0
end_of_record
SF:/usr/include/c++/9/bits/char_traits.h
FN:100,_ZN9__gnu_cxx11char_traitsIcE2eqERKcS3_
FNDA:0,_ZN9__gnu_cxx11char_traitsIcE2eqERKcS3_
FN:161,_ZN9__gnu_cxx11char_traitsIcE6lengthEPKc
FNDA:0,_ZN9__gnu_cxx11char_traitsIcE6lengthEPKc
FN:329,_ZNSt11char_traitsIcE6lengthEPKc
FNDA:0,_ZNSt11char_traitsIcE6lengthEPKc
FN:361,_ZNSt11char_traitsIcE4copyEPcPKcm
FNDA:0,_ZNSt11char_traitsIcE4copyEPcPKcm
DA:100,0
DA:101,0
DA:161,0
DA:164,0
DA:165,0
DA:166,0
DA:167,0
DA:236,0
DA:329,0
DA:332,0
DA:333,0
DA:335,0
DA:361,0
DA:363,0
DA:364,0
DA:365,0
end_of_record
SF:/usr/include/c++/9/ext/type_traits.h
FN:152,_ZN9__gnu_cxx17__is_null_pointerIcEEbPT_
FNDA:0,_ZN9__gnu_cxx17__is_null_pointerIcEEbPT_
FN:152,_ZN9__gnu_cxx17__is_null_pointerIKcEEbPT_
FNDA:0,_ZN9__gnu_cxx17__is_null_pointerIKcEEbPT_
DA:152,0
DA:153,0
DA:152,0
DA:153,0
end_of_record
SF:/usr/include/c++/9/bits/stl_algobase.h
FN:198,_ZSt3minImERKT_S2_S2_
FNDA:0,_ZSt3minImERKT_S2_S2_
FN:280,_ZSt12__niter_baseIPdET_S1_
FNDA:0,_ZSt12__niter_baseIPdET_S1_
FN:280,_ZSt12__niter_baseIPKdET_S2_
FNDA:0,_ZSt12__niter_baseIPKdET_S2_
FN:295,_ZSt12__niter_wrapIPdET_RKS1_S1_
FNDA:0,_ZSt12__niter_wrapIPdET_RKS1_S1_
FN:375,_ZNSt11__copy_moveILb0ELb1ESt26random_access_iterator_tagE8__copy_mIdEEPT_PKS3_S6_S4_
FNDA:0,_ZNSt11__copy_moveILb0ELb1ESt26random_access_iterator_tagE8__copy_mIdEEPT_PKS3_S6_S4_
FN:393,_ZSt13__copy_move_aILb0EPKdPdET1_T0_S4_S3_
FNDA:0,_ZSt13__copy_move_aILb0EPKdPdET1_T0_S4_S3_
FN:438,_ZSt14__copy_move_a2ILb0EPKdPdET1_T0_S4_S3_
FNDA:0,_ZSt14__copy_move_a2ILb0EPKdPdET1_T0_S4_S3_
FN:465,_ZSt4copyIPKdPdET0_T_S4_S3_
FNDA:0,_ZSt4copyIPKdPdET0_T_S4_S3_
DA:198,0
DA:203,0
DA:204,0
DA:205,0
DA:280,0
DA:282,0
DA:280,0
DA:282,0
DA:295,0
DA:296,0
DA:375,0
DA:384,0
DA:385,0
DA:386,0
DA:387,0
DA:393,0
DA:398,0
DA:404,0
DA:438,0
DA:440,0
DA:443,0
DA:465,0
DA:474,0
end_of_record
SF:/usr/include/c++/9/typeinfo
FN:99,_ZNKSt9type_info4nameEv
FNDA:0,_ZNKSt9type_info4nameEv
DA:99,0
DA:100,0
end_of_record
SF:/usr/include/c++/9/bits/stl_iterator_base_types.h
FN:205,_ZSt19__iterator_categoryIPcENSt15iterator_traitsIT_E17iterator_categoryERKS2_
FNDA:0,_ZSt19__iterator_categoryIPcENSt15iterator_traitsIT_E17iterator_categoryERKS2_
FN:205,_ZSt19__iterator_categoryIPKcENSt15iterator_traitsIT_E17iterator_categoryERKS3_
FNDA:0,_ZSt19__iterator_categoryIPKcENSt15iterator_traitsIT_E17iterator_categoryERKS3_
FN:205,_ZSt19__iterator_categoryIPKdENSt15iterator_traitsIT_E17iterator_categoryERKS3_
FNDA:0,_ZSt19__iterator_categoryIPKdENSt15iterator_traitsIT_E17iterator_categoryERKS3_
DA:205,0
DA:206,0
DA:205,0
DA:206,0
DA:205,0
DA:206,0
end_of_record
SF:/usr/local/include/gtest/gtest-printers.h
FN:260,_ZN16testing_internal26DefaultPrintNonContainerToIiEEvRKT_PSo
FNDA:0,_ZN16testing_internal26DefaultPrintNonContainerToIiEEvRKT_PSo
FN:260,_ZN16testing_internal26DefaultPrintNonContainerToImEEvRKT_PSo
FNDA:0,_ZN16testing_internal26DefaultPrintNonContainerToImEEvRKT_PSo
FN:260,_ZN16testing_internal26DefaultPrintNonContainerToIdEEvRKT_PSo
FNDA:0,_ZN16testing_internal26DefaultPrintNonContainerToIdEEvRKT_PSo
FN:466,_ZN7testing8internal14DefaultPrintToIiEEvNS0_15WrapPrinterTypeILNS0_18DefaultPrinterTypeE3EEERKT_PSo
FNDA:0,_ZN7testing8internal14DefaultPrintToIiEEvNS0_15WrapPrinterTypeILNS0_18DefaultPrinterTypeE3EEERKT_PSo
FN:466,_ZN7testing8internal14DefaultPrintToImEEvNS0_15WrapPrinterTypeILNS0_18DefaultPrinterTypeE3EEERKT_PSo
FNDA:0,_ZN7testing8internal14DefaultPrintToImEEvNS0_15WrapPrinterTypeILNS0_18DefaultPrinterTypeE3EEERKT_PSo
FN:466,_ZN7testing8internal14DefaultPrintToIdEEvNS0_15WrapPrinterTypeILNS0_18DefaultPrinterTypeE3EEERKT_PSo
FNDA:0,_ZN7testing8internal14DefaultPrintToIdEEvNS0_15WrapPrinterTypeILNS0_18DefaultPrinterTypeE3EEERKT_PSo
FN:483,_ZN7testing8internal7PrintToIiEEvRKT_PSo
FNDA:0,_ZN7testing8internal7PrintToIiEEvRKT_PSo
FN:483,_ZN7testing8internal7PrintToImEEvRKT_PSo
FNDA:0,_ZN7testing8internal7PrintToImEEvRKT_PSo
FN:483,_ZN7testing8internal7PrintToIdEEvRKT_PSo
FNDA:0,_ZN7testing8internal7PrintToIdEEvRKT_PSo
FN:670,_ZN7testing8internal16UniversalPrinterIiE5PrintERKiPSo
FNDA:0,_ZN7testing8internal16UniversalPrinterIiE5PrintERKiPSo
FN:670,_ZN7testing8internal16UniversalPrinterImE5PrintERKmPSo
FNDA:0,_ZN7testing8internal16UniversalPrinterImE5PrintERKmPSo
FN:670,_ZN7testing8internal16UniversalPrinterIdE5PrintERKdPSo
FNDA:0,_ZN7testing8internal16UniversalPrinterIdE5PrintERKdPSo
FN:865,_ZN7testing8internal14UniversalPrintIiEEvRKT_PSo
FNDA:0,_ZN7testing8internal14UniversalPrintIiEEvRKT_PSo
FN:865,_ZN7testing8internal14UniversalPrintImEEvRKT_PSo
FNDA:0,_ZN7testing8internal14UniversalPrintImEEvRKT_PSo
FN:865,_ZN7testing8internal14UniversalPrintIdEEvRKT_PSo
FNDA:0,_ZN7testing8internal14UniversalPrintIdEEvRKT_PSo
DA:260,0
DA:287,0
DA:288,0
DA:260,0
DA:287,0
DA:288,0
DA:260,0
DA:287,0
DA:288,0
DA:466,0
DA:468,0
DA:469,0
DA:466,0
DA:468,0
DA:469,0
DA:466,0
DA:468,0
DA:469,0
DA:483,0
DA:503,0
DA:514,0
DA:483,0
DA:503,0
DA:514,0
DA:483,0
DA:503,0
DA:514,0
DA:670,0
DA:679,0
DA:680,0
DA:670,0
DA:679,0
DA:680,0
DA:670,0
DA:679,0
DA:680,0
DA:865,0
DA:869,0
DA:870,0
DA:865,0
DA:869,0
DA:870,0
DA:865,0
DA:869,0
DA:870,0
end_of_record
SF:/usr/include/c++/9/ext/new_allocator.h
FN:80,_ZN9__gnu_cxx13new_allocatorIdEC2Ev
FNDA:0,_ZN9__gnu_cxx13new_allocatorIdEC2Ev
FN:80,_ZN9__gnu_cxx13new_allocatorIcEC2Ev
FNDA:0,_ZN9__gnu_cxx13new_allocatorIcEC2Ev
FN:83,_ZN9__gnu_cxx13new_allocatorIdEC2ERKS1_
FNDA:0,_ZN9__gnu_cxx13new_allocatorIdEC2ERKS1_
FN:83,_ZN9__gnu_cxx13new_allocatorIcEC2ERKS1_
FNDA:0,_ZN9__gnu_cxx13new_allocatorIcEC2ERKS1_
FN:89,_ZN9__gnu_cxx13new_allocatorIdED2Ev
FNDA:0,_ZN9__gnu_cxx13new_allocatorIdED2Ev
FN:89,_ZN9__gnu_cxx13new_allocatorIcED2Ev
FNDA:0,_ZN9__gnu_cxx13new_allocatorIcED2Ev
FN:102,_ZN9__gnu_cxx13new_allocatorIdE8allocateEmPKv
FNDA:0,_ZN9__gnu_cxx13new_allocatorIdE8allocateEmPKv
FN:119,_ZN9__gnu_cxx13new_allocatorIdE10deallocateEPdm
FNDA:0,_ZN9__gnu_cxx13new_allocatorIdE10deallocateEPdm
FN:132,_ZNK9__gnu_cxx13new_allocatorIdE8max_sizeEv
FNDA:0,_ZNK9__gnu_cxx13new_allocatorIdE8max_sizeEv
DA:80,0
DA:80,0
DA:83,0
DA:83,0
DA:89,0
DA:89,0
DA:102,0
DA:104,0
DA:105,0
DA:114,0
DA:119,0
DA:128,0
DA:132,0
DA:135,0
end_of_record
SF:/usr/include/c++/9/bits/stl_construct.h
FN:117,_ZNSt12_Destroy_auxILb1EE9__destroyIPdEEvT_S3_
FNDA:0,_ZNSt12_Destroy_auxILb1EE9__destroyIPdEEvT_S3_
FN:127,_ZSt8_DestroyIPdEvT_S1_
FNDA:0,_ZSt8_DestroyIPdEvT_S1_
FN:203,_ZSt8_DestroyIPddEvT_S1_RSaIT0_E
FNDA:0,_ZSt8_DestroyIPddEvT_S1_RSaIT0_E
DA:117,0
DA:127,0
DA:137,0
DA:138,0
DA:203,0
DA:206,0
DA:207,0
end_of_record
SF:/usr/include/c++/9/bits/allocator.h
FN:138,_ZNSaIdEC2Ev
FNDA:0,_ZNSaIdEC2Ev
FN:141,_ZNSaIdEC2ERKS_
FNDA:0,_ZNSaIdEC2ERKS_
FN:153,_ZNSaIdED2Ev
FNDA:0,_ZNSaIdED2Ev
DA:138,0
DA:141,0
DA:142,0
DA:153,0
end_of_record
SF:/usr/include/c++/9/bits/ios_base.h
FN:705,_ZNSt8ios_base9precisionEl
FNDA:0,_ZNSt8ios_base9precisionEl
DA:705,0
DA:707,0
DA:708,0
DA:709,0
end_of_record
SF:/usr/local/include/gtest/gtest.h
FN:312,_ZNK7testing15AssertionResultcvbEv
FNDA:0,_ZNK7testing15AssertionResultcvbEv
FN:321,_ZNK7testing15AssertionResult7messageEv
FNDA:0,_ZNK7testing15AssertionResult7messageEv
FN:325,_ZNK7testing15AssertionResult15failure_messageEv
FNDA:0,_ZNK7testing15AssertionResult15failure_messageEv
FN:328,_ZN7testing15AssertionResultlsINSt7__cxx1112basic_stringIcSt11char_traitsIcESaIcEEEEERS0_RKT_
FNDA:0,_ZN7testing15AssertionResultlsINSt7__cxx1112basic_stringIcSt11char_traitsIcESaIcEEEEERS0_RKT_
FN:343,_ZN7testing15AssertionResult13AppendMessageERKNS_7MessageE
FNDA:0,_ZN7testing15AssertionResult13AppendMessageERKNS_7MessageE
FN:417,_ZN7testing4Test14SetUpTestSuiteEv
FNDA:0,_ZN7testing4Test14SetUpTestSuiteEv
FN:427,_ZN7testing4Test17TearDownTestSuiteEv
FNDA:0,_ZN7testing4Test17TearDownTestSuiteEv
FN:431,_ZN7testing4Test16TearDownTestCaseEv
FNDA:0,_ZN7testing4Test16TearDownTestCaseEv
FN:432,_ZN7testing4Test13SetUpTestCaseEv
FNDA:0,_ZN7testing4Test13SetUpTestCaseEv
FN:513,_ZN7testing4Test5SetupEv
FNDA:0,_ZN7testing4Test5SetupEv
DA:312,0
DA:321,0
DA:322,0
DA:325,0
DA:328,0
DA:329,0
DA:330,0
DA:343,0
DA:344,0
DA:345,0
DA:346,0
DA:417,0
DA:427,0
DA:431,0
DA:432,0
DA:513,0
end_of_record
SF:/home/john/cse701/roc/test/threetermTests.cpp
FN:13,_ZN87ThreeTermAnalysisOf_TaylorSeriesAtNegativeOneRealPoleAtOneWithScalingTenthAlphaOne_TestC2Ev
FNDA:1,_ZN87ThreeTermAnalysisOf_TaylorSeriesAtNegativeOneRealPoleAtOneWithScalingTenthAlphaOne_TestC2Ev
FN:13,_ZN87ThreeTermAnalysisOf_TaylorSeriesAtNegativeOneRealPoleAtOneWithScalingTenthAlphaOne_Test8TestBodyEv
FNDA:1,_ZN87ThreeTermAnalysisOf_TaylorSeriesAtNegativeOneRealPoleAtOneWithScalingTenthAlphaOne_Test8TestBodyEv
FN:62,_ZN83ThreeTermAnalysisOf_TaylorSeriesAtZeroOneRealPoleAtOneWithScalingTenthAlphaOne_TestC2Ev
FNDA:1,_ZN83ThreeTermAnalysisOf_TaylorSeriesAtZeroOneRealPoleAtOneWithScalingTenthAlphaOne_TestC2Ev
FN:62,_ZN83ThreeTermAnalysisOf_TaylorSeriesAtZeroOneRealPoleAtOneWithScalingTenthAlphaOne_Test8TestBodyEv
FNDA:1,_ZN83ThreeTermAnalysisOf_TaylorSeriesAtZeroOneRealPoleAtOneWithScalingTenthAlphaOne_Test8TestBodyEv
FN:85,_ZN85ThreeTermAnalysisOf_TaylorSeriesAtPTNineOneRealPoleAtOneWithScalingTenthAlphaOne_TestC2Ev
FNDA:1,_ZN85ThreeTermAnalysisOf_TaylorSeriesAtPTNineOneRealPoleAtOneWithScalingTenthAlphaOne_TestC2Ev
FN:85,_ZN85ThreeTermAnalysisOf_TaylorSeriesAtPTNineOneRealPoleAtOneWithScalingTenthAlphaOne_Test8TestBodyEv
FNDA:1,_ZN85ThreeTermAnalysisOf_TaylorSeriesAtPTNineOneRealPoleAtOneWithScalingTenthAlphaOne_Test8TestBodyEv
FN:134,_ZN85ThreeTermAnalysisOf_TaylorSeriesAtOnePT0001RealPoleAtOneWithScalingTenthAlphaOne_TestC2Ev
FNDA:1,_ZN85ThreeTermAnalysisOf_TaylorSeriesAtOnePT0001RealPoleAtOneWithScalingTenthAlphaOne_TestC2Ev
FN:134,_ZN85ThreeTermAnalysisOf_TaylorSeriesAtOnePT0001RealPoleAtOneWithScalingTenthAlphaOne_Test8TestBodyEv
FNDA:1,_ZN85ThreeTermAnalysisOf_TaylorSeriesAtOnePT0001RealPoleAtOneWithScalingTenthAlphaOne_Test8TestBodyEv
FN:164,_ZN82ThreeTermAnalysisOf_TaylorSeriesAtOnePT9RealPoleAtOneWithScalingTenthAlphaOne_Test8TestBodyEv
FNDA:1,_ZN82ThreeTermAnalysisOf_TaylorSeriesAtOnePT9RealPoleAtOneWithScalingTenthAlphaOne_Test8TestBodyEv
FN:164,_ZN82ThreeTermAnalysisOf_TaylorSeriesAtOnePT9RealPoleAtOneWithScalingTenthAlphaOne_TestC2Ev
FNDA:1,_ZN82ThreeTermAnalysisOf_TaylorSeriesAtOnePT9RealPoleAtOneWithScalingTenthAlphaOne_TestC2Ev
FN:194,_ZN77ThreeTermAnalysisOf_TaylorSeriesAtThreePoleAtOneWithScalingTenthAlphaOne_TestC2Ev
FNDA:1,_ZN77ThreeTermAnalysisOf_TaylorSeriesAtThreePoleAtOneWithScalingTenthAlphaOne_TestC2Ev
FN:194,_ZN77ThreeTermAnalysisOf_TaylorSeriesAtThreePoleAtOneWithScalingTenthAlphaOne_Test8TestBodyEv
FNDA:1,_ZN77ThreeTermAnalysisOf_TaylorSeriesAtThreePoleAtOneWithScalingTenthAlphaOne_Test8TestBodyEv
FN:242,_ZN85ThreeTermAnalysisOf_TaylorSeriesAtNegativeOneRealPoleAtOneWithScalingOneAlphaOne_TestC2Ev
FNDA:1,_ZN85ThreeTermAnalysisOf_TaylorSeriesAtNegativeOneRealPoleAtOneWithScalingOneAlphaOne_TestC2Ev
FN:242,_ZN85ThreeTermAnalysisOf_TaylorSeriesAtNegativeOneRealPoleAtOneWithScalingOneAlphaOne_Test8TestBodyEv
FNDA:1,_ZN85ThreeTermAnalysisOf_TaylorSeriesAtNegativeOneRealPoleAtOneWithScalingOneAlphaOne_Test8TestBodyEv
FN:272,_ZN81ThreeTermAnalysisOf_TaylorSeriesAtZeroOneRealPoleAtOneWithScalingOneAlphaOne_TestC2Ev
FNDA:1,_ZN81ThreeTermAnalysisOf_TaylorSeriesAtZeroOneRealPoleAtOneWithScalingOneAlphaOne_TestC2Ev
FN:272,_ZN81ThreeTermAnalysisOf_TaylorSeriesAtZeroOneRealPoleAtOneWithScalingOneAlphaOne_Test8TestBodyEv
FNDA:1,_ZN81ThreeTermAnalysisOf_TaylorSeriesAtZeroOneRealPoleAtOneWithScalingOneAlphaOne_Test8TestBodyEv
FN:293,_ZN83ThreeTermAnalysisOf_TaylorSeriesAtPTNineOneRealPoleAtOneWithScalingOneAlphaOne_TestC2Ev
FNDA:1,_ZN83ThreeTermAnalysisOf_TaylorSeriesAtPTNineOneRealPoleAtOneWithScalingOneAlphaOne_TestC2Ev
FN:293,_ZN83ThreeTermAnalysisOf_TaylorSeriesAtPTNineOneRealPoleAtOneWithScalingOneAlphaOne_Test8TestBodyEv
FNDA:1,_ZN83ThreeTermAnalysisOf_TaylorSeriesAtPTNineOneRealPoleAtOneWithScalingOneAlphaOne_Test8TestBodyEv
FN:323,_ZN83ThreeTermAnalysisOf_TaylorSeriesAtOnePT0001RealPoleAtOneWithScalingOneAlphaOne_TestC2Ev
FNDA:1,_ZN83ThreeTermAnalysisOf_TaylorSeriesAtOnePT0001RealPoleAtOneWithScalingOneAlphaOne_TestC2Ev
FN:323,_ZN83ThreeTermAnalysisOf_TaylorSeriesAtOnePT0001RealPoleAtOneWithScalingOneAlphaOne_Test8TestBodyEv
FNDA:1,_ZN83ThreeTermAnalysisOf_TaylorSeriesAtOnePT0001RealPoleAtOneWithScalingOneAlphaOne_Test8TestBodyEv
FN:353,_ZN80ThreeTermAnalysisOf_TaylorSeriesAtOnePT9RealPoleAtOneWithScalingOneAlphaOne_TestC2Ev
FNDA:1,_ZN80ThreeTermAnalysisOf_TaylorSeriesAtOnePT9RealPoleAtOneWithScalingOneAlphaOne_TestC2Ev
FN:353,_ZN80ThreeTermAnalysisOf_TaylorSeriesAtOnePT9RealPoleAtOneWithScalingOneAlphaOne_Test8TestBodyEv
FNDA:1,_ZN80ThreeTermAnalysisOf_TaylorSeriesAtOnePT9RealPoleAtOneWithScalingOneAlphaOne_Test8TestBodyEv
FN:383,_ZN75ThreeTermAnalysisOf_TaylorSeriesAtThreePoleAtOneWithScalingOneAlphaOne_TestC2Ev
FNDA:1,_ZN75ThreeTermAnalysisOf_TaylorSeriesAtThreePoleAtOneWithScalingOneAlphaOne_TestC2Ev
FN:383,_ZN75ThreeTermAnalysisOf_TaylorSeriesAtThreePoleAtOneWithScalingOneAlphaOne_Test8TestBodyEv
FNDA:1,_ZN75ThreeTermAnalysisOf_TaylorSeriesAtThreePoleAtOneWithScalingOneAlphaOne_Test8TestBodyEv
FN:413,_ZN83ThreeTermAnalysisOf_TaylorSeriesAtNegativeOnePoleAtOneWithScalingTenthAlphaTwo_TestC2Ev
FNDA:1,_ZN83ThreeTermAnalysisOf_TaylorSeriesAtNegativeOnePoleAtOneWithScalingTenthAlphaTwo_TestC2Ev
FN:413,_ZN83ThreeTermAnalysisOf_TaylorSeriesAtNegativeOnePoleAtOneWithScalingTenthAlphaTwo_Test8TestBodyEv
FNDA:1,_ZN83ThreeTermAnalysisOf_TaylorSeriesAtNegativeOnePoleAtOneWithScalingTenthAlphaTwo_Test8TestBodyEv
FN:462,_ZN76ThreeTermAnalysisOf_TaylorSeriesAtZeroPoleAtOneWithScalingTenthAlphaTwo_TestC2Ev
FNDA:1,_ZN76ThreeTermAnalysisOf_TaylorSeriesAtZeroPoleAtOneWithScalingTenthAlphaTwo_TestC2Ev
FN:462,_ZN76ThreeTermAnalysisOf_TaylorSeriesAtZeroPoleAtOneWithScalingTenthAlphaTwo_Test8TestBodyEv
FNDA:1,_ZN76ThreeTermAnalysisOf_TaylorSeriesAtZeroPoleAtOneWithScalingTenthAlphaTwo_Test8TestBodyEv
FN:490,_ZN75ThreeTermAnalysisOf_TaylorSeriesAtPT9PoleAtOneWithScalingTenthAlphaTwo_TestC2Ev
FNDA:1,_ZN75ThreeTermAnalysisOf_TaylorSeriesAtPT9PoleAtOneWithScalingTenthAlphaTwo_TestC2Ev
FN:490,_ZN75ThreeTermAnalysisOf_TaylorSeriesAtPT9PoleAtOneWithScalingTenthAlphaTwo_Test8TestBodyEv
FNDA:1,_ZN75ThreeTermAnalysisOf_TaylorSeriesAtPT9PoleAtOneWithScalingTenthAlphaTwo_Test8TestBodyEv
FN:538,_ZN81ThreeTermAnalysisOf_TaylorSeriesAtNegativeOnePoleAtOneWithScalingOneAlphaTwo_TestC2Ev
FNDA:1,_ZN81ThreeTermAnalysisOf_TaylorSeriesAtNegativeOnePoleAtOneWithScalingOneAlphaTwo_TestC2Ev
FN:538,_ZN81ThreeTermAnalysisOf_TaylorSeriesAtNegativeOnePoleAtOneWithScalingOneAlphaTwo_Test8TestBodyEv
FNDA:1,_ZN81ThreeTermAnalysisOf_TaylorSeriesAtNegativeOnePoleAtOneWithScalingOneAlphaTwo_Test8TestBodyEv
FN:568,_ZN74ThreeTermAnalysisOf_TaylorSeriesAtZeroPoleAtOneWithScalingOneAlphaTwo_TestC2Ev
FNDA:1,_ZN74ThreeTermAnalysisOf_TaylorSeriesAtZeroPoleAtOneWithScalingOneAlphaTwo_TestC2Ev
FN:568,_ZN74ThreeTermAnalysisOf_TaylorSeriesAtZeroPoleAtOneWithScalingOneAlphaTwo_Test8TestBodyEv
FNDA:1,_ZN74ThreeTermAnalysisOf_TaylorSeriesAtZeroPoleAtOneWithScalingOneAlphaTwo_Test8TestBodyEv
FN:589,_ZN73ThreeTermAnalysisOf_TaylorSeriesAtPT9PoleAtOneWithScalingOneAlphaTwo_TestC2Ev
FNDA:1,_ZN73ThreeTermAnalysisOf_TaylorSeriesAtPT9PoleAtOneWithScalingOneAlphaTwo_TestC2Ev
FN:589,_ZN73ThreeTermAnalysisOf_TaylorSeriesAtPT9PoleAtOneWithScalingOneAlphaTwo_Test8TestBodyEv
FNDA:1,_ZN73ThreeTermAnalysisOf_TaylorSeriesAtPT9PoleAtOneWithScalingOneAlphaTwo_Test8TestBodyEv
FN:618,_ZN110ThreeTermAnalysisOf_TaylorSeriesAtNegativePT3WithScalingTenthForComplexConjugatePolesAtPMOneFifthAlphaOne_TestC2Ev
FNDA:1,_ZN110ThreeTermAnalysisOf_TaylorSeriesAtNegativePT3WithScalingTenthForComplexConjugatePolesAtPMOneFifthAlphaOne_TestC2Ev
FN:618,_ZN110ThreeTermAnalysisOf_TaylorSeriesAtNegativePT3WithScalingTenthForComplexConjugatePolesAtPMOneFifthAlphaOne_Test8TestBodyEv
FNDA:1,_ZN110ThreeTermAnalysisOf_TaylorSeriesAtNegativePT3WithScalingTenthForComplexConjugatePolesAtPMOneFifthAlphaOne_Test8TestBodyEv
FN:655,_ZN36ThreeTermAnalysisOf_TestRCThree_TestC2Ev
FNDA:1,_ZN36ThreeTermAnalysisOf_TestRCThree_TestC2Ev
FN:655,_ZN36ThreeTermAnalysisOf_TestRCThree_Test8TestBodyEv
FNDA:1,_ZN36ThreeTermAnalysisOf_TestRCThree_Test8TestBodyEv
FN:661,_ZN34ThreeTermAnalysisOf_TestOrder_Test8TestBodyEv
FNDA:1,_ZN34ThreeTermAnalysisOf_TestOrder_Test8TestBodyEv
FN:661,_ZN34ThreeTermAnalysisOf_TestOrder_TestC2Ev
FNDA:1,_ZN34ThreeTermAnalysisOf_TestOrder_TestC2Ev
DA:13,1
DA:19,1
DA:20,1
DA:21,1
DA:51,2
DA:52,1
DA:54,1
DA:56,1
DA:57,1
DA:58,1
DA:59,1
DA:60,1
DA:13,1
DA:62,1
DA:68,1
DA:69,1
DA:70,1
DA:74,2
DA:75,1
DA:77,1
DA:79,1
DA:80,1
DA:81,1
DA:82,1
DA:83,1
DA:62,1
DA:85,1
DA:91,1
DA:92,1
DA:93,1
DA:123,2
DA:124,1
DA:126,1
DA:128,1
DA:129,1
DA:130,1
DA:131,1
DA:132,1
DA:85,1
DA:134,1
DA:140,1
DA:141,1
DA:142,1
DA:153,2
DA:154,1
DA:156,1
DA:158,1
DA:159,1
DA:160,1
DA:161,1
DA:162,1
DA:134,1
DA:164,1
DA:170,1
DA:171,1
DA:172,1
DA:183,2
DA:184,1
DA:186,1
DA:188,1
DA:189,1
DA:190,1
DA:191,1
DA:192,1
DA:164,1
DA:194,1
DA:199,1
DA:200,1
DA:201,1
DA:231,2
DA:232,1
DA:234,1
DA:236,1
DA:237,1
DA:238,1
DA:239,1
DA:240,1
DA:194,1
DA:242,1
DA:248,1
DA:249,1
DA:250,1
DA:261,2
DA:262,1
DA:264,1
DA:266,1
DA:267,1
DA:268,1
DA:269,1
DA:270,1
DA:242,1
DA:272,1
DA:278,1
DA:279,1
DA:280,1
DA:282,2
DA:283,1
DA:285,1
DA:287,1
DA:288,1
DA:289,1
DA:290,1
DA:291,1
DA:272,1
DA:293,1
DA:299,1
DA:300,1
DA:301,1
DA:312,2
DA:313,1
DA:315,1
DA:317,1
DA:318,1
DA:319,1
DA:320,1
DA:321,1
DA:293,1
DA:323,1
DA:329,1
DA:330,1
DA:331,1
DA:342,2
DA:343,1
DA:345,1
DA:347,1
DA:348,1
DA:349,1
DA:350,1
DA:351,1
DA:323,1
DA:353,1
DA:359,1
DA:360,1
DA:361,1
DA:372,2
DA:373,1
DA:375,1
DA:377,1
DA:378,1
DA:379,1
DA:380,1
DA:381,1
DA:353,1
DA:383,1
DA:388,1
DA:389,1
DA:390,1
DA:401,2
DA:402,1
DA:404,1
DA:406,1
DA:407,1
DA:408,1
DA:409,1
DA:410,1
DA:383,1
DA:413,1
DA:419,1
DA:420,1
DA:421,1
DA:451,2
DA:452,1
DA:454,1
DA:456,1
DA:457,1
DA:458,1
DA:459,1
DA:460,1
DA:413,1
DA:462,1
DA:467,1
DA:468,1
DA:469,1
DA:479,2
DA:480,1
DA:482,1
DA:484,1
DA:485,1
DA:486,1
DA:487,1
DA:488,1
DA:462,1
DA:490,1
DA:495,1
DA:496,1
DA:497,1
DA:527,2
DA:528,1
DA:530,1
DA:532,1
DA:533,1
DA:534,1
DA:535,1
DA:536,1
DA:490,1
DA:538,1
DA:544,1
DA:545,1
DA:546,1
DA:557,2
DA:558,1
DA:560,1
DA:562,1
DA:563,1
DA:564,1
DA:565,1
DA:566,1
DA:538,1
DA:568,1
DA:573,1
DA:574,1
DA:575,1
DA:578,2
DA:579,1
DA:581,1
DA:583,1
DA:584,1
DA:585,1
DA:586,1
DA:587,1
DA:568,1
DA:589,1
DA:594,1
DA:595,1
DA:596,1
DA:607,2
DA:608,1
DA:610,1
DA:612,1
DA:613,1
DA:614,1
DA:615,1
DA:616,1
DA:589,1
DA:618,1
DA:625,1
DA:626,1
DA:627,1
DA:642,2
DA:643,1
DA:645,1
DA:649,1
DA:650,1
DA:651,1
DA:652,1
DA:653,1
DA:618,1
DA:655,1
DA:657,1
DA:658,2
DA:659,1
DA:655,1
DA:661,1
DA:663,1
DA:664,2
DA:665,1
DA:661,1
end_of_record
SF:/usr/include/c++/9/ext/alloc_traits.h
FN:97,_ZN9__gnu_cxx14__alloc_traitsISaIcEcE17_S_select_on_copyERKS1_
FNDA:0,_ZN9__gnu_cxx14__alloc_traitsISaIcEcE17_S_select_on_copyERKS1_
DA:97,0
DA:98,0
end_of_record
SF:/usr/include/c++/9/bits/basic_string.tcc
FN:206,_ZNSt7__cxx1112basic_stringIcSt11char_traitsIcESaIcEE12_M_constructIPcEEvT_S7_St20forward_iterator_tag
FNDA:0,_ZNSt7__cxx1112basic_stringIcSt11char_traitsIcESaIcEE12_M_constructIPcEEvT_S7_St20forward_iterator_tag
FN:206,_ZNSt7__cxx1112basic_stringIcSt11char_traitsIcESaIcEE12_M_constructIPKcEEvT_S8_St20forward_iterator_tag
FNDA:0,_ZNSt7__cxx1112basic_stringIcSt11char_traitsIcESaIcEE12_M_constructIPKcEEvT_S8_St20forward_iterator_tag
DA:206,0
DA:211,0
DA:212,0
DA:215,0
DA:217,0
DA:219,0
DA:220,0
DA:225,0
DA:226,0
DA:228,0
DA:229,0
DA:232,0
DA:233,0
DA:206,0
DA:211,0
DA:212,0
DA:215,0
DA:217,0
DA:219,0
DA:220,0
DA:225,0
DA:226,0
DA:228,0
DA:229,0
DA:232,0
DA:233,0
end_of_record
SF:/usr/include/x86_64-linux-gnu/c++/9/bits/gthr-default.h
FN:248,_ZL18__gthread_active_pv
FNDA:0,_ZL18__gthread_active_pv
DA:248,0
DA:252,0
end_of_record
SF:/usr/local/include/gtest/internal/gtest-internal.h
FN:286,_ZN7testing8internal13FloatingPointIdEC2ERKd
FNDA:0,_ZN7testing8internal13FloatingPointIdEC2ERKd
FN:313,_ZNK7testing8internal13FloatingPointIdE13exponent_bitsEv
FNDA:0,_ZNK7testing8internal13FloatingPointIdE13exponent_bitsEv
FN:316,_ZNK7testing8internal13FloatingPointIdE13fraction_bitsEv
FNDA:0,_ZNK7testing8internal13FloatingPointIdE13fraction_bitsEv
FN:322,_ZNK7testing8internal13FloatingPointIdE6is_nanEv
FNDA:0,_ZNK7testing8internal13FloatingPointIdE6is_nanEv
FN:334,_ZNK7testing8internal13FloatingPointIdE12AlmostEqualsERKS2_
FNDA:0,_ZNK7testing8internal13FloatingPointIdE12AlmostEqualsERKS2_
FN:365,_ZN7testing8internal13FloatingPointIdE24SignAndMagnitudeToBiasedERKy
FNDA:0,_ZN7testing8internal13FloatingPointIdE24SignAndMagnitudeToBiasedERKy
FN:377,_ZN7testing8internal13FloatingPointIdE38DistanceBetweenSignAndMagnitudeNumbersERKyS4_
FNDA:0,_ZN7testing8internal13FloatingPointIdE38DistanceBetweenSignAndMagnitudeNumbersERKyS4_
FN:442,_ZN7testing8internal15TestFactoryBaseD2Ev
FNDA:0,_ZN7testing8internal15TestFactoryBaseD2Ev
FN:442,_ZN7testing8internal15TestFactoryBaseD0Ev
FNDA:0,_ZN7testing8internal15TestFactoryBaseD0Ev
FN:449,_ZN7testing8internal15TestFactoryBaseC2Ev
FNDA:0,_ZN7testing8internal15TestFactoryBaseC2Ev
FN:460,_ZN7testing8internal15TestFactoryImplI74ThreeTermAnalysisOf_TaylorSeriesAtZeroPoleAtOneWithScalingOneAlphaTwo_TestE10CreateTestEv
FNDA:1,_ZN7testing8internal15TestFactoryImplI74ThreeTermAnalysisOf_TaylorSeriesAtZeroPoleAtOneWithScalingOneAlphaTwo_TestE10CreateTestEv
FN:460,_ZN7testing8internal15TestFactoryImplI87ThreeTermAnalysisOf_TaylorSeriesAtNegativeOneRealPoleAtOneWithScalingTenthAlphaOne_TestE10CreateTestEv
FNDA:1,_ZN7testing8internal15TestFactoryImplI87ThreeTermAnalysisOf_TaylorSeriesAtNegativeOneRealPoleAtOneWithScalingTenthAlphaOne_TestE10CreateTestEv
FN:460,_ZN7testing8internal15TestFactoryImplI83ThreeTermAnalysisOf_TaylorSeriesAtZeroOneRealPoleAtOneWithScalingTenthAlphaOne_TestE10CreateTestEv
FNDA:1,_ZN7testing8internal15TestFactoryImplI83ThreeTermAnalysisOf_TaylorSeriesAtZeroOneRealPoleAtOneWithScalingTenthAlphaOne_TestE10CreateTestEv
FN:460,_ZN7testing8internal15TestFactoryImplI34ThreeTermAnalysisOf_TestOrder_TestE10CreateTestEv
FNDA:1,_ZN7testing8internal15TestFactoryImplI34ThreeTermAnalysisOf_TestOrder_TestE10CreateTestEv
FN:460,_ZN7testing8internal15TestFactoryImplI36ThreeTermAnalysisOf_TestRCThree_TestE10CreateTestEv
FNDA:1,_ZN7testing8internal15TestFactoryImplI36ThreeTermAnalysisOf_TestRCThree_TestE10CreateTestEv
FN:460,_ZN7testing8internal15TestFactoryImplI110ThreeTermAnalysisOf_TaylorSeriesAtNegativePT3WithScalingTenthForComplexConjugatePolesAtPMOneFifthAlphaOne_TestE10CreateTestEv
FNDA:1,_ZN7testing8internal15TestFactoryImplI110ThreeTermAnalysisOf_TaylorSeriesAtNegativePT3WithScalingTenthForComplexConjugatePolesAtPMOneFifthAlphaOne_TestE10CreateTestEv
FN:460,_ZN7testing8internal15TestFactoryImplI73ThreeTermAnalysisOf_TaylorSeriesAtPT9PoleAtOneWithScalingOneAlphaTwo_TestE10CreateTestEv
FNDA:1,_ZN7testing8internal15TestFactoryImplI73ThreeTermAnalysisOf_TaylorSeriesAtPT9PoleAtOneWithScalingOneAlphaTwo_TestE10CreateTestEv
FN:460,_ZN7testing8internal15TestFactoryImplI85ThreeTermAnalysisOf_TaylorSeriesAtPTNineOneRealPoleAtOneWithScalingTenthAlphaOne_TestE10CreateTestEv
FNDA:1,_ZN7testing8internal15TestFactoryImplI85ThreeTermAnalysisOf_TaylorSeriesAtPTNineOneRealPoleAtOneWithScalingTenthAlphaOne_TestE10CreateTestEv
FN:460,_ZN7testing8internal15TestFactoryImplI81ThreeTermAnalysisOf_TaylorSeriesAtNegativeOnePoleAtOneWithScalingOneAlphaTwo_TestE10CreateTestEv
FNDA:1,_ZN7testing8internal15TestFactoryImplI81ThreeTermAnalysisOf_TaylorSeriesAtNegativeOnePoleAtOneWithScalingOneAlphaTwo_TestE10CreateTestEv
FN:460,_ZN7testing8internal15TestFactoryImplI75ThreeTermAnalysisOf_TaylorSeriesAtPT9PoleAtOneWithScalingTenthAlphaTwo_TestE10CreateTestEv
FNDA:1,_ZN7testing8internal15TestFactoryImplI75ThreeTermAnalysisOf_TaylorSeriesAtPT9PoleAtOneWithScalingTenthAlphaTwo_TestE10CreateTestEv
FN:460,_ZN7testing8internal15TestFactoryImplI83ThreeTermAnalysisOf_TaylorSeriesAtNegativeOnePoleAtOneWithScalingTenthAlphaTwo_TestE10CreateTestEv
FNDA:1,_ZN7testing8internal15TestFactoryImplI83ThreeTermAnalysisOf_TaylorSeriesAtNegativeOnePoleAtOneWithScalingTenthAlphaTwo_TestE10CreateTestEv
FN:460,_ZN7testing8internal15TestFactoryImplI85ThreeTermAnalysisOf_TaylorSeriesAtOnePT0001RealPoleAtOneWithScalingTenthAlphaOne_TestE10CreateTestEv
FNDA:1,_ZN7testing8internal15TestFactoryImplI85ThreeTermAnalysisOf_TaylorSeriesAtOnePT0001RealPoleAtOneWithScalingTenthAlphaOne_TestE10CreateTestEv
FN:460,_ZN7testing8internal15TestFactoryImplI82ThreeTermAnalysisOf_TaylorSeriesAtOnePT9RealPoleAtOneWithScalingTenthAlphaOne_TestE10CreateTestEv
FNDA:1,_ZN7testing8internal15TestFactoryImplI82ThreeTermAnalysisOf_TaylorSeriesAtOnePT9RealPoleAtOneWithScalingTenthAlphaOne_TestE10CreateTestEv
FN:460,_ZN7testing8internal15TestFactoryImplI77ThreeTermAnalysisOf_TaylorSeriesAtThreePoleAtOneWithScalingTenthAlphaOne_TestE10CreateTestEv
FNDA:1,_ZN7testing8internal15TestFactoryImplI77ThreeTermAnalysisOf_TaylorSeriesAtThreePoleAtOneWithScalingTenthAlphaOne_TestE10CreateTestEv
FN:460,_ZN7testing8internal15TestFactoryImplI85ThreeTermAnalysisOf_TaylorSeriesAtNegativeOneRealPoleAtOneWithScalingOneAlphaOne_TestE10CreateTestEv
FNDA:1,_ZN7testing8internal15TestFactoryImplI85ThreeTermAnalysisOf_TaylorSeriesAtNegativeOneRealPoleAtOneWithScalingOneAlphaOne_TestE10CreateTestEv
FN:460,_ZN7testing8internal15TestFactoryImplI81ThreeTermAnalysisOf_TaylorSeriesAtZeroOneRealPoleAtOneWithScalingOneAlphaOne_TestE10CreateTestEv
FNDA:1,_ZN7testing8internal15TestFactoryImplI81ThreeTermAnalysisOf_TaylorSeriesAtZeroOneRealPoleAtOneWithScalingOneAlphaOne_TestE10CreateTestEv
FN:460,_ZN7testing8internal15TestFactoryImplI83ThreeTermAnalysisOf_TaylorSeriesAtPTNineOneRealPoleAtOneWithScalingOneAlphaOne_TestE10CreateTestEv
FNDA:1,_ZN7testing8internal15TestFactoryImplI83ThreeTermAnalysisOf_TaylorSeriesAtPTNineOneRealPoleAtOneWithScalingOneAlphaOne_TestE10CreateTestEv
FN:460,_ZN7testing8internal15TestFactoryImplI83ThreeTermAnalysisOf_TaylorSeriesAtOnePT0001RealPoleAtOneWithScalingOneAlphaOne_TestE10CreateTestEv
FNDA:1,_ZN7testing8internal15TestFactoryImplI83ThreeTermAnalysisOf_TaylorSeriesAtOnePT0001RealPoleAtOneWithScalingOneAlphaOne_TestE10CreateTestEv
FN:460,_ZN7testing8internal15TestFactoryImplI80ThreeTermAnalysisOf_TaylorSeriesAtOnePT9RealPoleAtOneWithScalingOneAlphaOne_TestE10CreateTestEv
FNDA:1,_ZN7testing8internal15TestFactoryImplI80ThreeTermAnalysisOf_TaylorSeriesAtOnePT9RealPoleAtOneWithScalingOneAlphaOne_TestE10CreateTestEv
FN:460,_ZN7testing8internal15TestFactoryImplI75ThreeTermAnalysisOf_TaylorSeriesAtThreePoleAtOneWithScalingOneAlphaOne_TestE10CreateTestEv
FNDA:1,_ZN7testing8internal15TestFactoryImplI75ThreeTermAnalysisOf_TaylorSeriesAtThreePoleAtOneWithScalingOneAlphaOne_TestE10CreateTestEv
FN:460,_ZN7testing8internal15TestFactoryImplI76ThreeTermAnalysisOf_TaylorSeriesAtZeroPoleAtOneWithScalingTenthAlphaTwo_TestE10CreateTestEv
FNDA:1,_ZN7testing8internal15TestFactoryImplI76ThreeTermAnalysisOf_TaylorSeriesAtZeroPoleAtOneWithScalingTenthAlphaTwo_TestE10CreateTestEv
FN:481,_ZN7testing8internal12CodeLocationC2ERKNSt7__cxx1112basic_stringIcSt11char_traitsIcESaIcEEEi
FNDA:0,_ZN7testing8internal12CodeLocationC2ERKNSt7__cxx1112basic_stringIcSt11char_traitsIcESaIcEEEi
FN:494,_ZN7testing8internal19GetNotDefaultOrNullEPFvvES2_
FNDA:0,_ZN7testing8internal19GetNotDefaultOrNullEPFvvES2_
FN:509,_ZN7testing8internal16SuiteApiResolverINS_4TestEE19GetSetUpCaseOrSuiteEPKci
FNDA:0,_ZN7testing8internal16SuiteApiResolverINS_4TestEE19GetSetUpCaseOrSuiteEPKci
FN:524,_ZN7testing8internal16SuiteApiResolverINS_4TestEE22GetTearDownCaseOrSuiteEPKci
FNDA:0,_ZN7testing8internal16SuiteApiResolverINS_4TestEE22GetTearDownCaseOrSuiteEPKci
FN:823,_ZN7testing8internal12ConstCharPtrC2EPKc
FNDA:0,_ZN7testing8internal12ConstCharPtrC2EPKc
FN:824,_ZNK7testing8internal12ConstCharPtrcvbEv
FNDA:0,_ZNK7testing8internal12ConstCharPtrcvbEv
DA:286,0
DA:313,0
DA:316,0
DA:322,0
DA:325,0
DA:334,0
DA:337,0
DA:339,0
DA:340,0
DA:365,0
DA:366,0
DA:368,0
DA:371,0
DA:377,0
DA:379,0
DA:380,0
DA:381,0
DA:442,0
DA:442,0
DA:449,0
DA:460,1
DA:460,1
DA:460,1
DA:460,1
DA:460,1
DA:460,1
DA:460,1
DA:460,1
DA:460,1
DA:460,1
DA:460,1
DA:460,1
DA:460,1
DA:460,1
DA:460,1
DA:460,1
DA:460,1
DA:460,1
DA:460,1
DA:460,1
DA:460,1
DA:481,0
DA:482,0
DA:494,0
DA:496,0
DA:509,0
DA:512,0
DA:514,0
DA:516,0
DA:519,0
DA:521,0
DA:524,0
DA:527,0
DA:529,0
DA:531,0
DA:534,0
DA:536,0
DA:823,0
DA:824,0
end_of_record
SF:/usr/local/include/gtest/internal/gtest-type-util.h
FN:64,_ZN7testing8internal31CanonicalizeForStdLibVersioningENSt7__cxx1112basic_stringIcSt11char_traitsIcESaIcEEE
FNDA:0,_ZN7testing8internal31CanonicalizeForStdLibVersioningENSt7__cxx1112basic_stringIcSt11char_traitsIcESaIcEEE
FN:80,_ZN7testing8internal11GetTypeNameIKmEENSt7__cxx1112basic_stringIcSt11char_traitsIcESaIcEEEv
FNDA:0,_ZN7testing8internal11GetTypeNameIKmEENSt7__cxx1112basic_stringIcSt11char_traitsIcESaIcEEEv
FN:80,_ZN7testing8internal11GetTypeNameIKdEENSt7__cxx1112basic_stringIcSt11char_traitsIcESaIcEEEv
FNDA:0,_ZN7testing8internal11GetTypeNameIKdEENSt7__cxx1112basic_stringIcSt11char_traitsIcESaIcEEEv
DA:64,0
DA:66,0
DA:67,0
DA:68,0
DA:70,0
DA:73,0
DA:80,0
DA:83,0
DA:85,0
DA:91,0
DA:92,0
DA:93,0
DA:94,0
DA:80,0
DA:83,0
DA:85,0
DA:91,0
DA:92,0
DA:93,0
DA:94,0
end_of_record
SF:/usr/include/c++/9/bits/shared_ptr.h
FN:139,_ZNSt10shared_ptrIKN7testing16MatcherInterfaceIRKdEEEC2IS5_vEEPT_
FNDA:0,_ZNSt10shared_ptrIKN7testing16MatcherInterfaceIRKdEEEC2IS5_vEEPT_
FN:139,_ZNSt10shared_ptrIKN7testing16MatcherInterfaceIRKmEEEC2IS5_vEEPT_
FNDA:0,_ZNSt10shared_ptrIKN7testing16MatcherInterfaceIRKmEEEC2IS5_vEEPT_
DA:139,0
DA:139,0
end_of_record
SF:/usr/include/c++/9/bits/cpp_type_traits.h
FN:428,_ZSt12__miter_baseIPKdET_S2_
FNDA:0,_ZSt12__miter_baseIPKdET_S2_
DA:428,0
DA:429,0
end_of_record
SF:/usr/include/c++/9/ext/atomicity.h
FN:48,_ZN9__gnu_cxxL18__exchange_and_addEPVii
FNDA:0,_ZN9__gnu_cxxL18__exchange_and_addEPVii
FN:65,_ZN9__gnu_cxxL25__exchange_and_add_singleEPii
FNDA:0,_ZN9__gnu_cxxL25__exchange_and_add_singleEPii
FN:78,_ZN9__gnu_cxxL27__exchange_and_add_dispatchEPii
FNDA:0,_ZN9__gnu_cxxL27__exchange_and_add_dispatchEPii
DA:48,0
DA:49,0
DA:65,0
DA:67,0
DA:68,0
DA:69,0
DA:78,0
DA:81,0
DA:82,0
DA:84,0
end_of_record
SF:/usr/include/c++/9/initializer_list
FN:71,_ZNKSt16initializer_listIdE4sizeEv
FNDA:0,_ZNKSt16initializer_listIdE4sizeEv
FN:75,_ZNKSt16initializer_listIdE5beginEv
FNDA:0,_ZNKSt16initializer_listIdE5beginEv
FN:79,_ZNKSt16initializer_listIdE3endEv
FNDA:0,_ZNKSt16initializer_listIdE3endEv
DA:71,0
DA:75,0
DA:79,0
end_of_record
SF:/usr/include/c++/9/iostream
end_of_record
SF:/usr/include/c++/9/bits/stl_vector.h
FN:94,_ZNSt12_Vector_baseIdSaIdEE17_Vector_impl_dataC2Ev
FNDA:0,_ZNSt12_Vector_baseIdSaIdEE17_Vector_impl_dataC2Ev
FN:133,_ZNSt12_Vector_baseIdSaIdEE12_Vector_implC2ERKS0_
FNDA:0,_ZNSt12_Vector_baseIdSaIdEE12_Vector_implC2ERKS0_
FN:273,_ZNSt12_Vector_baseIdSaIdEE19_M_get_Tp_allocatorEv
FNDA:0,_ZNSt12_Vector_baseIdSaIdEE19_M_get_Tp_allocatorEv
FN:290,_ZNSt12_Vector_baseIdSaIdEEC2ERKS0_
FNDA:0,_ZNSt12_Vector_baseIdSaIdEEC2ERKS0_
FN:330,_ZNSt12_Vector_baseIdSaIdEED2Ev
FNDA:0,_ZNSt12_Vector_baseIdSaIdEED2Ev
FN:340,_ZNSt12_Vector_baseIdSaIdEE11_M_allocateEm
FNDA:0,_ZNSt12_Vector_baseIdSaIdEE11_M_allocateEm
FN:347,_ZNSt12_Vector_baseIdSaIdEE13_M_deallocateEPdm
FNDA:0,_ZNSt12_Vector_baseIdSaIdEE13_M_deallocateEPdm
FN:622,_ZNSt6vectorIdSaIdEEC2ESt16initializer_listIdERKS0_
FNDA:0,_ZNSt6vectorIdSaIdEEC2ESt16initializer_listIdERKS0_
FN:675,_ZNSt6vectorIdSaIdEED2Ev
FNDA:0,_ZNSt6vectorIdSaIdEED2Ev
FN:915,_ZNKSt6vectorIdSaIdEE4sizeEv
FNDA:0,_ZNKSt6vectorIdSaIdEE4sizeEv
FN:1574,_ZNSt6vectorIdSaIdEE19_M_range_initializeIPKdEEvT_S5_St20forward_iterator_tag
FNDA:0,_ZNSt6vectorIdSaIdEE19_M_range_initializeIPKdEEvT_S5_St20forward_iterator_tag
FN:1764,_ZNSt6vectorIdSaIdEE17_S_check_init_lenEmRKS0_
FNDA:0,_ZNSt6vectorIdSaIdEE17_S_check_init_lenEmRKS0_
FN:1773,_ZNSt6vectorIdSaIdEE11_S_max_sizeERKS0_
FNDA:0,_ZNSt6vectorIdSaIdEE11_S_max_sizeERKS0_
DA:94,0
DA:95,0
DA:96,0
DA:133,0
DA:134,0
DA:135,0
DA:273,0
DA:274,0
DA:290,0
DA:291,0
DA:330,0
DA:332,0
DA:333,0
DA:334,0
DA:340,0
DA:343,0
DA:347,0
DA:350,0
DA:351,0
DA:352,0
DA:622,0
DA:624,0
DA:626,0
DA:628,0
DA:675,0
DA:677,0
DA:678,0
DA:680,0
DA:915,0
DA:916,0
DA:1574,0
DA:1577,0
DA:1578,0
DA:1579,0
DA:1580,0
DA:1581,0
DA:1582,0
DA:1584,0
DA:1585,0
DA:1764,0
DA:1766,0
DA:1767,0
DA:1769,0
DA:1773,0
DA:1778,0
DA:1780,0
DA:1781,0
end_of_record
SF:/usr/include/c++/9/bits/shared_ptr_base.h
FN:117,_ZNSt16_Sp_counted_baseILN9__gnu_cxx12_Lock_policyE2EEC2Ev
FNDA:0,_ZNSt16_Sp_counted_baseILN9__gnu_cxx12_Lock_policyE2EEC2Ev
FN:121,_ZNSt16_Sp_counted_baseILN9__gnu_cxx12_Lock_policyE2EED0Ev
FNDA:0,_ZNSt16_Sp_counted_baseILN9__gnu_cxx12_Lock_policyE2EED0Ev
FN:121,_ZNSt16_Sp_counted_baseILN9__gnu_cxx12_Lock_policyE2EED2Ev
FNDA:0,_ZNSt16_Sp_counted_baseILN9__gnu_cxx12_Lock_policyE2EED2Ev
FN:131,_ZNSt16_Sp_counted_baseILN9__gnu_cxx12_Lock_policyE2EE10_M_destroyEv
FNDA:0,_ZNSt16_Sp_counted_baseILN9__gnu_cxx12_Lock_policyE2EE10_M_destroyEv
FN:148,_ZNSt16_Sp_counted_baseILN9__gnu_cxx12_Lock_policyE2EE10_M_releaseEv
FNDA:0,_ZNSt16_Sp_counted_baseILN9__gnu_cxx12_Lock_policyE2EE10_M_releaseEv
FN:372,_ZNSt15_Sp_counted_ptrIPKN7testing16MatcherInterfaceIRKdEELN9__gnu_cxx12_Lock_policyE2EEC2ES6_
FNDA:0,_ZNSt15_Sp_counted_ptrIPKN7testing16MatcherInterfaceIRKdEELN9__gnu_cxx12_Lock_policyE2EEC2ES6_
FN:372,_ZNSt15_Sp_counted_ptrIPKN7testing16MatcherInterfaceIRKmEELN9__gnu_cxx12_Lock_policyE2EEC2ES6_
FNDA:0,_ZNSt15_Sp_counted_ptrIPKN7testing16MatcherInterfaceIRKmEELN9__gnu_cxx12_Lock_policyE2EEC2ES6_
FN:376,_ZNSt15_Sp_counted_ptrIPKN7testing16MatcherInterfaceIRKmEELN9__gnu_cxx12_Lock_policyE2EE10_M_disposeEv
FNDA:0,_ZNSt15_Sp_counted_ptrIPKN7testing16MatcherInterfaceIRKmEELN9__gnu_cxx12_Lock_policyE2EE10_M_disposeEv
FN:376,_ZNSt15_Sp_counted_ptrIPKN7testing16MatcherInterfaceIRKdEELN9__gnu_cxx12_Lock_policyE2EE10_M_disposeEv
FNDA:0,_ZNSt15_Sp_counted_ptrIPKN7testing16MatcherInterfaceIRKdEELN9__gnu_cxx12_Lock_policyE2EE10_M_disposeEv
FN:380,_ZNSt15_Sp_counted_ptrIPKN7testing16MatcherInterfaceIRKmEELN9__gnu_cxx12_Lock_policyE2EE10_M_destroyEv
FNDA:0,_ZNSt15_Sp_counted_ptrIPKN7testing16MatcherInterfaceIRKmEELN9__gnu_cxx12_Lock_policyE2EE10_M_destroyEv
FN:380,_ZNSt15_Sp_counted_ptrIPKN7testing16MatcherInterfaceIRKdEELN9__gnu_cxx12_Lock_policyE2EE10_M_destroyEv
FNDA:0,_ZNSt15_Sp_counted_ptrIPKN7testing16MatcherInterfaceIRKdEELN9__gnu_cxx12_Lock_policyE2EE10_M_destroyEv
FN:384,_ZNSt15_Sp_counted_ptrIPKN7testing16MatcherInterfaceIRKmEELN9__gnu_cxx12_Lock_policyE2EE14_M_get_deleterERKSt9type_info
FNDA:0,_ZNSt15_Sp_counted_ptrIPKN7testing16MatcherInterfaceIRKmEELN9__gnu_cxx12_Lock_policyE2EE14_M_get_deleterERKSt9type_info
FN:384,_ZNSt15_Sp_counted_ptrIPKN7testing16MatcherInterfaceIRKdEELN9__gnu_cxx12_Lock_policyE2EE14_M_get_deleterERKSt9type_info
FNDA:0,_ZNSt15_Sp_counted_ptrIPKN7testing16MatcherInterfaceIRKdEELN9__gnu_cxx12_Lock_policyE2EE14_M_get_deleterERKSt9type_info
FN:621,_ZNSt14__shared_countILN9__gnu_cxx12_Lock_policyE2EEC2IPKN7testing16MatcherInterfaceIRKmEEEET_
FNDA:0,_ZNSt14__shared_countILN9__gnu_cxx12_Lock_policyE2EEC2IPKN7testing16MatcherInterfaceIRKmEEEET_
FN:621,_ZNSt14__shared_countILN9__gnu_cxx12_Lock_policyE2EEC2IPKN7testing16MatcherInterfaceIRKdEEEET_
FNDA:0,_ZNSt14__shared_countILN9__gnu_cxx12_Lock_policyE2EEC2IPKN7testing16MatcherInterfaceIRKdEEEET_
FN:635,_ZNSt14__shared_countILN9__gnu_cxx12_Lock_policyE2EEC2IPKN7testing16MatcherInterfaceIRKdEEEET_St17integral_constantIbLb0EE
FNDA:0,_ZNSt14__shared_countILN9__gnu_cxx12_Lock_policyE2EEC2IPKN7testing16MatcherInterfaceIRKdEEEET_St17integral_constantIbLb0EE
FN:635,_ZNSt14__shared_countILN9__gnu_cxx12_Lock_policyE2EEC2IPKN7testing16MatcherInterfaceIRKmEEEET_St17integral_constantIbLb0EE
FNDA:0,_ZNSt14__shared_countILN9__gnu_cxx12_Lock_policyE2EEC2IPKN7testing16MatcherInterfaceIRKmEEEET_St17integral_constantIbLb0EE
FN:727,_ZNSt14__shared_countILN9__gnu_cxx12_Lock_policyE2EED2Ev
FNDA:0,_ZNSt14__shared_countILN9__gnu_cxx12_Lock_policyE2EED2Ev
FN:1012,_ZNKSt19__shared_ptr_accessIKN7testing16MatcherInterfaceIRKmEELN9__gnu_cxx12_Lock_policyE2ELb0ELb0EEptEv
FNDA:0,_ZNKSt19__shared_ptr_accessIKN7testing16MatcherInterfaceIRKmEELN9__gnu_cxx12_Lock_policyE2ELb0ELb0EEptEv
FN:1012,_ZNKSt19__shared_ptr_accessIKN7testing16MatcherInterfaceIRKdEELN9__gnu_cxx12_Lock_policyE2ELb0ELb0EEptEv
FNDA:0,_ZNKSt19__shared_ptr_accessIKN7testing16MatcherInterfaceIRKdEELN9__gnu_cxx12_Lock_policyE2ELb0ELb0EEptEv
FN:1020,_ZNKSt19__shared_ptr_accessIKN7testing16MatcherInterfaceIRKmEELN9__gnu_cxx12_Lock_policyE2ELb0ELb0EE6_M_getEv
FNDA:0,_ZNKSt19__shared_ptr_accessIKN7testing16MatcherInterfaceIRKmEELN9__gnu_cxx12_Lock_policyE2ELb0ELb0EE6_M_getEv
FN:1020,_ZNKSt19__shared_ptr_accessIKN7testing16MatcherInterfaceIRKdEELN9__gnu_cxx12_Lock_policyE2ELb0ELb0EE6_M_getEv
FNDA:0,_ZNKSt19__shared_ptr_accessIKN7testing16MatcherInterfaceIRKdEELN9__gnu_cxx12_Lock_policyE2ELb0ELb0EE6_M_getEv
FN:1124,_ZNSt12__shared_ptrIKN7testing16MatcherInterfaceIRKmEELN9__gnu_cxx12_Lock_policyE2EEC2IS5_vEEPT_
FNDA:0,_ZNSt12__shared_ptrIKN7testing16MatcherInterfaceIRKmEELN9__gnu_cxx12_Lock_policyE2EEC2IS5_vEEPT_
FN:1124,_ZNSt12__shared_ptrIKN7testing16MatcherInterfaceIRKdEELN9__gnu_cxx12_Lock_policyE2EEC2IS5_vEEPT_
FNDA:0,_ZNSt12__shared_ptrIKN7testing16MatcherInterfaceIRKdEELN9__gnu_cxx12_Lock_policyE2EEC2IS5_vEEPT_
FN:1169,_ZNSt12__shared_ptrIKN7testing16MatcherInterfaceIRKmEELN9__gnu_cxx12_Lock_policyE2EED2Ev
FNDA:0,_ZNSt12__shared_ptrIKN7testing16MatcherInterfaceIRKmEELN9__gnu_cxx12_Lock_policyE2EED2Ev
FN:1169,_ZNSt12__shared_ptrIKN7testing16MatcherInterfaceIRKdEELN9__gnu_cxx12_Lock_policyE2EED2Ev
FNDA:0,_ZNSt12__shared_ptrIKN7testing16MatcherInterfaceIRKdEELN9__gnu_cxx12_Lock_policyE2EED2Ev
FN:1309,_ZNKSt12__shared_ptrIKN7testing16MatcherInterfaceIRKdEELN9__gnu_cxx12_Lock_policyE2EE3getEv
FNDA:0,_ZNKSt12__shared_ptrIKN7testing16MatcherInterfaceIRKdEELN9__gnu_cxx12_Lock_policyE2EE3getEv
FN:1309,_ZNKSt12__shared_ptrIKN7testing16MatcherInterfaceIRKmEELN9__gnu_cxx12_Lock_policyE2EE3getEv
FNDA:0,_ZNKSt12__shared_ptrIKN7testing16MatcherInterfaceIRKmEELN9__gnu_cxx12_Lock_policyE2EE3getEv
FN:1388,_ZNSt12__shared_ptrIKN7testing16MatcherInterfaceIRKmEELN9__gnu_cxx12_Lock_policyE2EE31_M_enable_shared_from_this_withIS5_S4_EENSt9enable_ifIXntsrNS8_15__has_esft_baseIT0_vEE5valueEvE4typeEPT_
FNDA:0,_ZNSt12__shared_ptrIKN7testing16MatcherInterfaceIRKmEELN9__gnu_cxx12_Lock_policyE2EE31_M_enable_shared_from_this_withIS5_S4_EENSt9enable_ifIXntsrNS8_15__has_esft_baseIT0_vEE5valueEvE4typeEPT_
FN:1388,_ZNSt12__shared_ptrIKN7testing16MatcherInterfaceIRKdEELN9__gnu_cxx12_Lock_policyE2EE31_M_enable_shared_from_this_withIS5_S4_EENSt9enable_ifIXntsrNS8_15__has_esft_baseIT0_vEE5valueEvE4typeEPT_
FNDA:0,_ZNSt12__shared_ptrIKN7testing16MatcherInterfaceIRKdEELN9__gnu_cxx12_Lock_policyE2EE31_M_enable_shared_from_this_withIS5_S4_EENSt9enable_ifIXntsrNS8_15__has_esft_baseIT0_vEE5valueEvE4typeEPT_
DA:117,0
DA:118,0
DA:121,0
DA:122,0
DA:121,0
DA:122,0
DA:131,0
DA:132,0
DA:148,0
DA:152,0
DA:155,0
DA:167,0
DA:168,0
DA:171,0
DA:174,0
DA:372,0
DA:373,0
DA:372,0
DA:373,0
DA:376,0
DA:377,0
DA:376,0
DA:377,0
DA:380,0
DA:381,0
DA:380,0
DA:381,0
DA:384,0
DA:385,0
DA:384,0
DA:385,0
DA:621,0
DA:625,0
DA:627,0
DA:629,0
DA:630,0
DA:632,0
DA:621,0
DA:625,0
DA:627,0
DA:629,0
DA:630,0
DA:632,0
DA:635,0
DA:636,0
DA:637,0
DA:635,0
DA:636,0
DA:637,0
DA:727,0
DA:729,0
DA:730,0
DA:731,0
DA:1012,0
DA:1015,0
DA:1012,0
DA:1015,0
DA:1020,0
DA:1021,0
DA:1020,0
DA:1021,0
DA:1124,0
DA:1125,0
DA:1129,0
DA:1130,0
DA:1124,0
DA:1125,0
DA:1129,0
DA:1130,0
DA:1169,0
DA:1169,0
DA:1309,0
DA:1310,0
DA:1309,0
DA:1310,0
DA:1388,0
DA:1389,0
DA:1388,0
DA:1389,0
end_of_record
SF:/usr/local/include/gtest/gtest-matchers.h
FN:85,_ZN7testing19MatchResultListenerC2EPSo
FNDA:0,_ZN7testing19MatchResultListenerC2EPSo
FN:91,_ZN7testing19MatchResultListenerlsIdEERS0_RKT_
FNDA:0,_ZN7testing19MatchResultListenerlsIdEERS0_RKT_
FN:91,_ZN7testing19MatchResultListenerlsIA10_cEERS0_RKT_
FNDA:0,_ZN7testing19MatchResultListenerlsIA10_cEERS0_RKT_
FN:91,_ZN7testing19MatchResultListenerlsIA7_cEERS0_RKT_
FNDA:0,_ZN7testing19MatchResultListenerlsIA7_cEERS0_RKT_
FN:97,_ZN7testing19MatchResultListener6streamEv
FNDA:0,_ZN7testing19MatchResultListener6streamEv
FN:103,_ZNK7testing19MatchResultListener12IsInterestedEv
FNDA:0,_ZNK7testing19MatchResultListener12IsInterestedEv
FN:111,_ZN7testing19MatchResultListenerD2Ev
FNDA:0,_ZN7testing19MatchResultListenerD2Ev
FN:111,_ZN7testing19MatchResultListenerD0Ev
FNDA:0,_ZN7testing19MatchResultListenerD0Ev
FN:118,_ZN7testing25MatcherDescriberInterfaceD2Ev
FNDA:0,_ZN7testing25MatcherDescriberInterfaceD2Ev
FN:118,_ZN7testing25MatcherDescriberInterfaceD0Ev
FNDA:0,_ZN7testing25MatcherDescriberInterfaceD0Ev
FN:133,_ZNK7testing25MatcherDescriberInterface18DescribeNegationToEPSo
FNDA:0,_ZNK7testing25MatcherDescriberInterface18DescribeNegationToEPSo
FN:211,_ZNK7testing8internal5AnyEqclImiEEbRKT_RKT0_
FNDA:0,_ZNK7testing8internal5AnyEqclImiEEbRKT_RKT0_
FN:237,_ZN7testing8internal24DummyMatchResultListenerC2Ev
FNDA:0,_ZN7testing8internal24DummyMatchResultListenerC2Ev
FN:263,_ZNK7testing8internal11MatcherBaseIRKmE15MatchAndExplainES3_PNS_19MatchResultListenerE
FNDA:0,_ZNK7testing8internal11MatcherBaseIRKmE15MatchAndExplainES3_PNS_19MatchResultListenerE
FN:263,_ZNK7testing8internal11MatcherBaseIRKdE15MatchAndExplainES3_PNS_19MatchResultListenerE
FNDA:0,_ZNK7testing8internal11MatcherBaseIRKdE15MatchAndExplainES3_PNS_19MatchResultListenerE
FN:268,_ZNK7testing8internal11MatcherBaseIRKmE7MatchesES3_
FNDA:0,_ZNK7testing8internal11MatcherBaseIRKmE7MatchesES3_
FN:268,_ZNK7testing8internal11MatcherBaseIRKdE7MatchesES3_
FNDA:0,_ZNK7testing8internal11MatcherBaseIRKdE7MatchesES3_
FN:274,_ZNK7testing8internal11MatcherBaseIRKmE10DescribeToEPSo
FNDA:0,_ZNK7testing8internal11MatcherBaseIRKmE10DescribeToEPSo
FN:274,_ZNK7testing8internal11MatcherBaseIRKdE10DescribeToEPSo
FNDA:0,_ZNK7testing8internal11MatcherBaseIRKdE10DescribeToEPSo
FN:298,_ZN7testing8internal11MatcherBaseIRKdEC2EPKNS_16MatcherInterfaceIS3_EE
FNDA:0,_ZN7testing8internal11MatcherBaseIRKdEC2EPKNS_16MatcherInterfaceIS3_EE
FN:298,_ZN7testing8internal11MatcherBaseIRKmEC2EPKNS_16MatcherInterfaceIS3_EE
FNDA:0,_ZN7testing8internal11MatcherBaseIRKmEC2EPKNS_16MatcherInterfaceIS3_EE
FN:312,_ZN7testing8internal11MatcherBaseIRKdED2Ev
FNDA:0,_ZN7testing8internal11MatcherBaseIRKdED2Ev
FN:312,_ZN7testing8internal11MatcherBaseIRKdED0Ev
FNDA:0,_ZN7testing8internal11MatcherBaseIRKdED0Ev
FN:312,_ZN7testing8internal11MatcherBaseIRKmED0Ev
FNDA:0,_ZN7testing8internal11MatcherBaseIRKmED0Ev
FN:312,_ZN7testing8internal11MatcherBaseIRKmED2Ev
FNDA:0,_ZN7testing8internal11MatcherBaseIRKmED2Ev
FN:333,_ZN7testing7MatcherIRKmEC2EPKNS_16MatcherInterfaceIS2_EE
FNDA:0,_ZN7testing7MatcherIRKmEC2EPKNS_16MatcherInterfaceIS2_EE
FN:333,_ZN7testing7MatcherIRKdEC2EPKNS_16MatcherInterfaceIS2_EE
FNDA:0,_ZN7testing7MatcherIRKdEC2EPKNS_16MatcherInterfaceIS2_EE
FN:501,_ZN7testing11MakeMatcherIRKdEENS_7MatcherIT_EEPKNS_16MatcherInterfaceIS4_EE
FNDA:0,_ZN7testing11MakeMatcherIRKdEENS_7MatcherIT_EEPKNS_16MatcherInterfaceIS4_EE
FN:531,_ZN7testing8internal14ComparisonBaseINS0_9EqMatcherIiEEiNS0_5AnyEqEEC2ERKi
FNDA:0,_ZN7testing8internal14ComparisonBaseINS0_9EqMatcherIiEEiNS0_5AnyEqEEC2ERKi
FN:533,_ZNK7testing8internal14ComparisonBaseINS0_9EqMatcherIiEEiNS0_5AnyEqEEcvNS_7MatcherIT_EEIRKmEEv
FNDA:0,_ZNK7testing8internal14ComparisonBaseINS0_9EqMatcherIiEEiNS0_5AnyEqEEcvNS_7MatcherIT_EEIRKmEEv
FN:539,_ZN7testing8internal14ComparisonBaseINS0_9EqMatcherIiEEiNS0_5AnyEqEE6UnwrapIiEERKT_S9_
FNDA:0,_ZN7testing8internal14ComparisonBaseINS0_9EqMatcherIiEEiNS0_5AnyEqEE6UnwrapIiEERKT_S9_
FN:546,_ZN7testing8internal14ComparisonBaseINS0_9EqMatcherIiEEiNS0_5AnyEqEE4ImplIRKmiEC2ERKi
FNDA:0,_ZN7testing8internal14ComparisonBaseINS0_9EqMatcherIiEEiNS0_5AnyEqEE4ImplIRKmiEC2ERKi
FN:547,_ZNK7testing8internal14ComparisonBaseINS0_9EqMatcherIiEEiNS0_5AnyEqEE4ImplIRKmiE15MatchAndExplainES8_PNS_19MatchResultListenerE
FNDA:0,_ZNK7testing8internal14ComparisonBaseINS0_9EqMatcherIiEEiNS0_5AnyEqEE4ImplIRKmiE15MatchAndExplainES8_PNS_19MatchResultListenerE
FN:551,_ZNK7testing8internal14ComparisonBaseINS0_9EqMatcherIiEEiNS0_5AnyEqEE4ImplIRKmiE10DescribeToEPSo
FNDA:0,_ZNK7testing8internal14ComparisonBaseINS0_9EqMatcherIiEEiNS0_5AnyEqEE4ImplIRKmiE10DescribeToEPSo
FN:555,_ZNK7testing8internal14ComparisonBaseINS0_9EqMatcherIiEEiNS0_5AnyEqEE4ImplIRKmiE18DescribeNegationToEPSo
FNDA:0,_ZNK7testing8internal14ComparisonBaseINS0_9EqMatcherIiEEiNS0_5AnyEqEE4ImplIRKmiE18DescribeNegationToEPSo
FN:569,_ZN7testing8internal9EqMatcherIiEC2ERKi
FNDA:0,_ZN7testing8internal9EqMatcherIiEC2ERKi
FN:571,_ZN7testing8internal9EqMatcherIiE4DescEv
FNDA:0,_ZN7testing8internal9EqMatcherIiE4DescEv
FN:572,_ZN7testing8internal9EqMatcherIiE11NegatedDescEv
FNDA:0,_ZN7testing8internal9EqMatcherIiE11NegatedDescEv
FN:695,_ZN7testing2EqIiEENS_8internal9EqMatcherIT_EES3_
FNDA:0,_ZN7testing2EqIiEENS_8internal9EqMatcherIT_EES3_
DA:85,0
DA:91,0
DA:92,0
DA:93,0
DA:91,0
DA:92,0
DA:93,0
DA:91,0
DA:92,0
DA:93,0
DA:97,0
DA:103,0
DA:111,0
DA:112,0
DA:111,0
DA:112,0
DA:118,0
DA:118,0
DA:133,0
DA:134,0
DA:135,0
DA:136,0
DA:137,0
DA:211,0
DA:237,0
DA:263,0
DA:264,0
DA:263,0
DA:264,0
DA:268,0
DA:269,0
DA:270,0
DA:268,0
DA:269,0
DA:270,0
DA:274,0
DA:274,0
DA:298,0
DA:298,0
DA:312,0
DA:312,0
DA:312,0
DA:312,0
DA:333,0
DA:334,0
DA:333,0
DA:334,0
DA:501,0
DA:502,0
DA:531,0
DA:533,0
DA:534,0
DA:539,0
DA:546,0
DA:547,0
DA:549,0
DA:551,0
DA:552,0
DA:553,0
DA:554,0
DA:555,0
DA:556,0
DA:557,0
DA:558,0
DA:569,0
DA:570,0
DA:571,0
DA:572,0
DA:695,0
end_of_record
SF:/usr/include/c++/9/bits/basic_string.h
FN:243,_ZNSt7__cxx1112basic_stringIcSt11char_traitsIcESaIcEE16_M_construct_auxIPcEEvT_S7_St12__false_type
FNDA:0,_ZNSt7__cxx1112basic_stringIcSt11char_traitsIcESaIcEE16_M_construct_auxIPcEEvT_S7_St12__false_type
FN:243,_ZNSt7__cxx1112basic_stringIcSt11char_traitsIcESaIcEE16_M_construct_auxIPKcEEvT_S8_St12__false_type
FNDA:0,_ZNSt7__cxx1112basic_stringIcSt11char_traitsIcESaIcEE16_M_construct_auxIPKcEEvT_S8_St12__false_type
FN:263,_ZNSt7__cxx1112basic_stringIcSt11char_traitsIcESaIcEE12_M_constructIPcEEvT_S7_
FNDA:0,_ZNSt7__cxx1112basic_stringIcSt11char_traitsIcESaIcEE12_M_constructIPcEEvT_S7_
FN:263,_ZNSt7__cxx1112basic_stringIcSt11char_traitsIcESaIcEE12_M_constructIPKcEEvT_S8_
FNDA:0,_ZNSt7__cxx1112basic_stringIcSt11char_traitsIcESaIcEE12_M_constructIPKcEEvT_S8_
FN:525,_ZNSt7__cxx1112basic_stringIcSt11char_traitsIcESaIcEEC2IS3_EEPKcRKS3_
FNDA:0,_ZNSt7__cxx1112basic_stringIcSt11char_traitsIcESaIcEEC2IS3_EEPKcRKS3_
FN:6175,_ZSteqIcSt11char_traitsIcESaIcEEbRKNSt7__cxx1112basic_stringIT_T0_T1_EEPKS5_
FNDA:0,_ZSteqIcSt11char_traitsIcESaIcEEbRKNSt7__cxx1112basic_stringIT_T0_T1_EEPKS5_
FN:6213,_ZStneIcSt11char_traitsIcESaIcEEbRKNSt7__cxx1112basic_stringIT_T0_T1_EEPKS5_
FNDA:0,_ZStneIcSt11char_traitsIcESaIcEEbRKNSt7__cxx1112basic_stringIT_T0_T1_EEPKS5_
DA:243,0
DA:247,0
DA:248,0
DA:243,0
DA:247,0
DA:248,0
DA:263,0
DA:266,0
DA:267,0
DA:263,0
DA:266,0
DA:267,0
DA:525,0
DA:526,0
DA:527,0
DA:6175,0
DA:6177,0
DA:6213,0
DA:6215,0
end_of_record
SF:/usr/include/c++/9/bits/stl_uninitialized.h
FN:99,_ZNSt20__uninitialized_copyILb1EE13__uninit_copyIPKdPdEET0_T_S6_S5_
FNDA:0,_ZNSt20__uninitialized_copyILb1EE13__uninit_copyIPKdPdEET0_T_S6_S5_
FN:115,_ZSt18uninitialized_copyIPKdPdET0_T_S4_S3_
FNDA:0,_ZSt18uninitialized_copyIPKdPdET0_T_S4_S3_
FN:305,_ZSt22__uninitialized_copy_aIPKdPddET0_T_S4_S3_RSaIT1_E
FNDA:0,_ZSt22__uninitialized_copy_aIPKdPddET0_T_S4_S3_RSaIT1_E
DA:99,0
DA:101,0
DA:115,0
DA:134,0
DA:140,0
DA:305,0
DA:307,0
end_of_record
SF:/usr/local/include/gmock/gmock-matchers.h
FN:90,_ZN7testing25StringMatchResultListenerC2Ev
FNDA:0,_ZN7testing25StringMatchResultListenerC2Ev
FN:93,_ZNK7testing25StringMatchResultListener3strB5cxx11Ev
FNDA:0,_ZNK7testing25StringMatchResultListener3strB5cxx11Ev
FN:121,_ZN7testing8internal15MatcherCastImplIRKmNS0_9EqMatcherIiEEE4CastERKS5_
FNDA:0,_ZN7testing8internal15MatcherCastImplIRKmNS0_9EqMatcherIiEEE4CastERKS5_
FN:121,_ZN7testing8internal15MatcherCastImplIRKdNS0_17FloatingEqMatcherIdEEE4CastERKS5_
FNDA:0,_ZN7testing8internal15MatcherCastImplIRKdNS0_17FloatingEqMatcherIdEEE4CastERKS5_
FN:142,_ZN7testing8internal15MatcherCastImplIRKmNS0_9EqMatcherIiEEE8CastImplILb0EEENS_7MatcherIS3_EERKS5_St17integral_constantIbLb1EESC_IbXT_EE
FNDA:0,_ZN7testing8internal15MatcherCastImplIRKmNS0_9EqMatcherIiEEE8CastImplILb0EEENS_7MatcherIS3_EERKS5_St17integral_constantIbLb1EESC_IbXT_EE
FN:142,_ZN7testing8internal15MatcherCastImplIRKdNS0_17FloatingEqMatcherIdEEE8CastImplILb0EEENS_7MatcherIS3_EERKS5_St17integral_constantIbLb1EESC_IbXT_EE
FNDA:0,_ZN7testing8internal15MatcherCastImplIRKdNS0_17FloatingEqMatcherIdEEE8CastImplILb0EEENS_7MatcherIS3_EERKS5_St17integral_constantIbLb1EESC_IbXT_EE
FN:259,_ZN7testing19SafeMatcherCastImplIRKmE4CastINS_8internal9EqMatcherIiEEEENS_7MatcherIS2_EERKT_
FNDA:0,_ZN7testing19SafeMatcherCastImplIRKmE4CastINS_8internal9EqMatcherIiEEEENS_7MatcherIS2_EERKT_
FN:259,_ZN7testing19SafeMatcherCastImplIRKdE4CastINS_8internal17FloatingEqMatcherIdEEEENS_7MatcherIS2_EERKT_
FNDA:0,_ZN7testing19SafeMatcherCastImplIRKdE4CastINS_8internal17FloatingEqMatcherIdEEEENS_7MatcherIS2_EERKT_
FN:297,_ZN7testing15SafeMatcherCastIRKmNS_8internal9EqMatcherIiEEEENS_7MatcherIT_EERKT0_
FNDA:0,_ZN7testing15SafeMatcherCastIRKmNS_8internal9EqMatcherIiEEEENS_7MatcherIT_EERKT0_
FN:297,_ZN7testing15SafeMatcherCastIRKdNS_8internal17FloatingEqMatcherIdEEEENS_7MatcherIT_EERKT0_
FNDA:0,_ZN7testing15SafeMatcherCastIRKdNS_8internal17FloatingEqMatcherIdEEEENS_7MatcherIT_EERKT0_
FN:310,_ZN7testing8internal15PrintIfNotEmptyERKNSt7__cxx1112basic_stringIcSt11char_traitsIcESaIcEEEPSo
FNDA:0,_ZN7testing8internal15PrintIfNotEmptyERKNSt7__cxx1112basic_stringIcSt11char_traitsIcESaIcEEEPSo
FN:320,_ZN7testing8internal18IsReadableTypeNameERKNSt7__cxx1112basic_stringIcSt11char_traitsIcESaIcEEE
FNDA:0,_ZN7testing8internal18IsReadableTypeNameERKNSt7__cxx1112basic_stringIcSt11char_traitsIcESaIcEEE
FN:333,_ZN7testing8internal20MatchPrintAndExplainIKmRS2_EEbRT_RKNS_7MatcherIT0_EEPNS_19MatchResultListenerE
FNDA:0,_ZN7testing8internal20MatchPrintAndExplainIKmRS2_EEbRT_RKNS_7MatcherIT0_EEPNS_19MatchResultListenerE
FN:333,_ZN7testing8internal20MatchPrintAndExplainIKdRS2_EEbRT_RKNS_7MatcherIT0_EEPNS_19MatchResultListenerE
FNDA:0,_ZN7testing8internal20MatchPrintAndExplainIKdRS2_EEbRT_RKNS_7MatcherIT0_EEPNS_19MatchResultListenerE
FN:1295,_ZN7testing8internal29PredicateFormatterFromMatcherINS0_9EqMatcherIiEEEC2ES3_
FNDA:0,_ZN7testing8internal29PredicateFormatterFromMatcherINS0_9EqMatcherIiEEEC2ES3_
FN:1295,_ZN7testing8internal29PredicateFormatterFromMatcherINS0_17FloatingEqMatcherIdEEEC2ES3_
FNDA:0,_ZN7testing8internal29PredicateFormatterFromMatcherINS0_17FloatingEqMatcherIdEEEC2ES3_
FN:1301,_ZNK7testing8internal29PredicateFormatterFromMatcherINS0_9EqMatcherIiEEEclImEENS_15AssertionResultEPKcRKT_
FNDA:0,_ZNK7testing8internal29PredicateFormatterFromMatcherINS0_9EqMatcherIiEEEclImEENS_15AssertionResultEPKcRKT_
FN:1301,_ZNK7testing8internal29PredicateFormatterFromMatcherINS0_17FloatingEqMatcherIdEEEclIdEENS_15AssertionResultEPKcRKT_
FNDA:0,_ZNK7testing8internal29PredicateFormatterFromMatcherINS0_17FloatingEqMatcherIdEEEclIdEENS_15AssertionResultEPKcRKT_
FN:1348,_ZN7testing8internal33MakePredicateFormatterFromMatcherINS0_9EqMatcherIiEEEENS0_29PredicateFormatterFromMatcherIT_EES5_
FNDA:0,_ZN7testing8internal33MakePredicateFormatterFromMatcherINS0_9EqMatcherIiEEEENS0_29PredicateFormatterFromMatcherIT_EES5_
FN:1348,_ZN7testing8internal33MakePredicateFormatterFromMatcherINS0_17FloatingEqMatcherIdEEEENS0_29PredicateFormatterFromMatcherIT_EES5_
FNDA:0,_ZN7testing8internal33MakePredicateFormatterFromMatcherINS0_17FloatingEqMatcherIdEEEENS0_29PredicateFormatterFromMatcherIT_EES5_
FN:1372,_ZN7testing8internal17FloatingEqMatcherIdEC2Edbd
FNDA:0,_ZN7testing8internal17FloatingEqMatcherIdEC2Edbd
FN:1385,_ZN7testing8internal17FloatingEqMatcherIdE4ImplIRKdEC2Edbd
FNDA:0,_ZN7testing8internal17FloatingEqMatcherIdE4ImplIRKdEC2Edbd
FN:1390,_ZNK7testing8internal17FloatingEqMatcherIdE4ImplIRKdE15MatchAndExplainES5_PNS_19MatchResultListenerE
FNDA:0,_ZNK7testing8internal17FloatingEqMatcherIdE4ImplIRKdE15MatchAndExplainES5_PNS_19MatchResultListenerE
FN:1425,_ZNK7testing8internal17FloatingEqMatcherIdE4ImplIRKdE10DescribeToEPSo
FNDA:0,_ZNK7testing8internal17FloatingEqMatcherIdE4ImplIRKdE10DescribeToEPSo
FN:1446,_ZNK7testing8internal17FloatingEqMatcherIdE4ImplIRKdE18DescribeNegationToEPSo
FNDA:0,_ZNK7testing8internal17FloatingEqMatcherIdE4ImplIRKdE18DescribeNegationToEPSo
FN:1467,_ZNK7testing8internal17FloatingEqMatcherIdE4ImplIRKdE14HasMaxAbsErrorEv
FNDA:0,_ZNK7testing8internal17FloatingEqMatcherIdE4ImplIRKdE14HasMaxAbsErrorEv
FN:1490,_ZNK7testing8internal17FloatingEqMatcherIdEcvNS_7MatcherIRKdEEEv
FNDA:0,_ZNK7testing8internal17FloatingEqMatcherIdEcvNS_7MatcherIRKdEEEv
FN:3644,_ZN7testing10DoubleNearEdd
FNDA:0,_ZN7testing10DoubleNearEdd
DA:90,0
DA:93,0
DA:121,0
DA:137,0
DA:121,0
DA:137,0
DA:142,0
DA:153,0
DA:142,0
DA:153,0
DA:259,0
DA:260,0
DA:259,0
DA:260,0
DA:297,0
DA:298,0
DA:297,0
DA:298,0
DA:310,0
DA:312,0
DA:313,0
DA:315,0
DA:320,0
DA:323,0
DA:324,0
DA:333,0
DA:335,0
DA:338,0
DA:341,0
DA:342,0
DA:344,0
DA:346,0
DA:347,0
DA:348,0
DA:350,0
DA:352,0
DA:333,0
DA:335,0
DA:338,0
DA:341,0
DA:342,0
DA:344,0
DA:346,0
DA:347,0
DA:348,0
DA:350,0
DA:352,0
DA:1295,0
DA:1295,0
DA:1301,0
DA:1313,0
DA:1317,0
DA:1318,0
DA:1321,0
DA:1323,0
DA:1324,0
DA:1327,0
DA:1328,0
DA:1329,0
DA:1332,0
DA:1333,0
DA:1301,0
DA:1313,0
DA:1317,0
DA:1318,0
DA:1321,0
DA:1323,0
DA:1324,0
DA:1327,0
DA:1328,0
DA:1329,0
DA:1332,0
DA:1333,0
DA:1348,0
DA:1349,0
DA:1348,0
DA:1349,0
DA:1372,0
DA:1376,0
DA:1377,0
DA:1378,0
DA:1379,0
DA:1385,0
DA:1388,0
DA:1390,0
DA:1392,0
DA:1395,0
DA:1396,0
DA:1397,0
DA:1400,0
DA:1402,0
DA:1407,0
DA:1408,0
DA:1411,0
DA:1412,0
DA:1413,0
DA:1416,0
DA:1417,0
DA:1419,0
DA:1421,0
DA:1425,0
DA:1429,0
DA:1431,0
DA:1432,0
DA:1433,0
DA:1435,0
DA:1438,0
DA:1439,0
DA:1440,0
DA:1443,0
DA:1444,0
DA:1446,0
DA:1448,0
DA:1450,0
DA:1451,0
DA:1452,0
DA:1454,0
DA:1457,0
DA:1458,0
DA:1459,0
DA:1463,0
DA:1464,0
DA:1467,0
DA:1468,0
DA:1490,0
DA:1492,0
DA:3644,0
DA:3646,0
end_of_record
TN:
SF:/usr/local/include/gtest/gtest.h
FN:293,_ZN7testing15AssertionResultC2IbEERKT_PNSt9enable_ifIXntsrSt14is_convertibleIS2_S0_E5valueEvE4typeE
FNDA:8541,_ZN7testing15AssertionResultC2IbEERKT_PNSt9enable_ifIXntsrSt14is_convertibleIS2_S0_E5valueEvE4typeE
FN:312,_ZNK7testing15AssertionResultcvbEv
FNDA:0,_ZNK7testing15AssertionResultcvbEv
FN:321,_ZNK7testing15AssertionResult7messageEv
FNDA:0,_ZNK7testing15AssertionResult7messageEv
FN:325,_ZNK7testing15AssertionResult15failure_messageEv
FNDA:0,_ZNK7testing15AssertionResult15failure_messageEv
FN:328,_ZN7testing15AssertionResultlsINSt7__cxx1112basic_stringIcSt11char_traitsIcESaIcEEEEERS0_RKT_
FNDA:0,_ZN7testing15AssertionResultlsINSt7__cxx1112basic_stringIcSt11char_traitsIcESaIcEEEEERS0_RKT_
FN:343,_ZN7testing15AssertionResult13AppendMessageERKNS_7MessageE
FNDA:0,_ZN7testing15AssertionResult13AppendMessageERKNS_7MessageE
FN:417,_ZN7testing4Test14SetUpTestSuiteEv
FNDA:0,_ZN7testing4Test14SetUpTestSuiteEv
FN:427,_ZN7testing4Test17TearDownTestSuiteEv
FNDA:0,_ZN7testing4Test17TearDownTestSuiteEv
FN:431,_ZN7testing4Test16TearDownTestCaseEv
FNDA:0,_ZN7testing4Test16TearDownTestCaseEv
FN:432,_ZN7testing4Test13SetUpTestCaseEv
FNDA:0,_ZN7testing4Test13SetUpTestCaseEv
FN:513,_ZN7testing4Test5SetupEv
FNDA:0,_ZN7testing4Test5SetupEv
DA:293,8541
DA:299,8541
DA:312,0
DA:321,0
DA:322,0
DA:325,0
DA:328,0
DA:329,0
DA:330,0
DA:343,0
DA:344,0
DA:345,0
DA:346,0
DA:417,0
DA:427,0
DA:431,0
DA:432,0
DA:513,0
end_of_record
SF:/usr/include/c++/9/bits/ios_base.h
FN:705,_ZNSt8ios_base9precisionEl
FNDA:0,_ZNSt8ios_base9precisionEl
DA:705,0
DA:707,0
DA:708,0
DA:709,0
end_of_record
SF:/usr/include/c++/9/bits/allocator.h
FN:138,_ZNSaIdEC2Ev
FNDA:0,_ZNSaIdEC2Ev
FN:141,_ZNSaIdEC2ERKS_
FNDA:0,_ZNSaIdEC2ERKS_
FN:153,_ZNSaIdED2Ev
FNDA:0,_ZNSaIdED2Ev
DA:138,0
DA:141,0
DA:142,0
DA:153,0
end_of_record
SF:/usr/include/c++/9/ext/new_allocator.h
FN:80,_ZN9__gnu_cxx13new_allocatorIdEC2Ev
FNDA:0,_ZN9__gnu_cxx13new_allocatorIdEC2Ev
FN:80,_ZN9__gnu_cxx13new_allocatorIcEC2Ev
FNDA:0,_ZN9__gnu_cxx13new_allocatorIcEC2Ev
FN:83,_ZN9__gnu_cxx13new_allocatorIdEC2ERKS1_
FNDA:0,_ZN9__gnu_cxx13new_allocatorIdEC2ERKS1_
FN:83,_ZN9__gnu_cxx13new_allocatorIcEC2ERKS1_
FNDA:0,_ZN9__gnu_cxx13new_allocatorIcEC2ERKS1_
FN:89,_ZN9__gnu_cxx13new_allocatorIdED2Ev
FNDA:0,_ZN9__gnu_cxx13new_allocatorIdED2Ev
FN:89,_ZN9__gnu_cxx13new_allocatorIcED2Ev
FNDA:0,_ZN9__gnu_cxx13new_allocatorIcED2Ev
FN:102,_ZN9__gnu_cxx13new_allocatorIdE8allocateEmPKv
FNDA:0,_ZN9__gnu_cxx13new_allocatorIdE8allocateEmPKv
FN:119,_ZN9__gnu_cxx13new_allocatorIdE10deallocateEPdm
FNDA:0,_ZN9__gnu_cxx13new_allocatorIdE10deallocateEPdm
FN:132,_ZNK9__gnu_cxx13new_allocatorIdE8max_sizeEv
FNDA:0,_ZNK9__gnu_cxx13new_allocatorIdE8max_sizeEv
DA:80,0
DA:80,0
DA:83,0
DA:83,0
DA:89,0
DA:89,0
DA:102,0
DA:104,0
DA:105,0
DA:114,0
DA:119,0
DA:128,0
DA:132,0
DA:135,0
end_of_record
SF:/usr/local/include/gtest/gtest-printers.h
FN:260,_ZN16testing_internal26DefaultPrintNonContainerToIdEEvRKT_PSo
FNDA:0,_ZN16testing_internal26DefaultPrintNonContainerToIdEEvRKT_PSo
FN:466,_ZN7testing8internal14DefaultPrintToIdEEvNS0_15WrapPrinterTypeILNS0_18DefaultPrinterTypeE3EEERKT_PSo
FNDA:0,_ZN7testing8internal14DefaultPrintToIdEEvNS0_15WrapPrinterTypeILNS0_18DefaultPrinterTypeE3EEERKT_PSo
FN:483,_ZN7testing8internal7PrintToIdEEvRKT_PSo
FNDA:0,_ZN7testing8internal7PrintToIdEEvRKT_PSo
FN:670,_ZN7testing8internal16UniversalPrinterIdE5PrintERKdPSo
FNDA:0,_ZN7testing8internal16UniversalPrinterIdE5PrintERKdPSo
FN:865,_ZN7testing8internal14UniversalPrintIdEEvRKT_PSo
FNDA:0,_ZN7testing8internal14UniversalPrintIdEEvRKT_PSo
DA:260,0
DA:287,0
DA:288,0
DA:466,0
DA:468,0
DA:469,0
DA:483,0
DA:503,0
DA:514,0
DA:670,0
DA:679,0
DA:680,0
DA:865,0
DA:869,0
DA:870,0
end_of_record
SF:/usr/include/c++/9/bits/stl_construct.h
FN:117,_ZNSt12_Destroy_auxILb1EE9__destroyIPdEEvT_S3_
FNDA:0,_ZNSt12_Destroy_auxILb1EE9__destroyIPdEEvT_S3_
FN:127,_ZSt8_DestroyIPdEvT_S1_
FNDA:0,_ZSt8_DestroyIPdEvT_S1_
FN:203,_ZSt8_DestroyIPddEvT_S1_RSaIT0_E
FNDA:0,_ZSt8_DestroyIPddEvT_S1_RSaIT0_E
DA:117,0
DA:127,0
DA:137,0
DA:138,0
DA:203,0
DA:206,0
DA:207,0
end_of_record
SF:/usr/include/c++/9/typeinfo
FN:99,_ZNKSt9type_info4nameEv
FNDA:0,_ZNKSt9type_info4nameEv
DA:99,0
DA:100,0
end_of_record
SF:/usr/include/c++/9/bits/stl_iterator_base_types.h
FN:205,_ZSt19__iterator_categoryIPcENSt15iterator_traitsIT_E17iterator_categoryERKS2_
FNDA:0,_ZSt19__iterator_categoryIPcENSt15iterator_traitsIT_E17iterator_categoryERKS2_
FN:205,_ZSt19__iterator_categoryIPKcENSt15iterator_traitsIT_E17iterator_categoryERKS3_
FNDA:0,_ZSt19__iterator_categoryIPKcENSt15iterator_traitsIT_E17iterator_categoryERKS3_
DA:205,0
DA:206,0
DA:205,0
DA:206,0
end_of_record
SF:/home/john/cse701/roc/include/matrix.hpp
FN:127,_ZN6matrixIdEC2ERKmS2_
FNDA:0,_ZN6matrixIdEC2ERKmS2_
DA:127,0
DA:128,0
DA:130,0
DA:131,0
DA:132,0
DA:133,0
DA:134,0
end_of_record
SF:/usr/include/c++/9/bits/stl_algobase.h
FN:198,_ZSt3minImERKT_S2_S2_
FNDA:0,_ZSt3minImERKT_S2_S2_
FN:280,_ZSt12__niter_baseIPdET_S1_
FNDA:0,_ZSt12__niter_baseIPdET_S1_
FN:295,_ZSt12__niter_wrapIPdET_RKS1_S1_
FNDA:0,_ZSt12__niter_wrapIPdET_RKS1_S1_
FN:767,_ZSt10__fill_n_aIPdmdEN9__gnu_cxx11__enable_ifIXsrSt11__is_scalarIT1_E7__valueET_E6__typeES6_T0_RKS4_
FNDA:0,_ZSt10__fill_n_aIPdmdEN9__gnu_cxx11__enable_ifIXsrSt11__is_scalarIT1_E7__valueET_E6__typeES6_T0_RKS4_
FN:802,_ZSt6fill_nIPdmdET_S1_T0_RKT1_
FNDA:0,_ZSt6fill_nIPdmdET_S1_T0_RKT1_
DA:198,0
DA:203,0
DA:204,0
DA:205,0
DA:280,0
DA:282,0
DA:295,0
DA:296,0
DA:767,0
DA:769,0
DA:770,0
DA:771,0
DA:772,0
DA:773,0
DA:802,0
DA:808,0
DA:809,0
end_of_record
SF:/usr/include/c++/9/ext/type_traits.h
FN:152,_ZN9__gnu_cxx17__is_null_pointerIcEEbPT_
FNDA:0,_ZN9__gnu_cxx17__is_null_pointerIcEEbPT_
FN:152,_ZN9__gnu_cxx17__is_null_pointerIKcEEbPT_
FNDA:0,_ZN9__gnu_cxx17__is_null_pointerIKcEEbPT_
DA:152,0
DA:153,0
DA:152,0
DA:153,0
end_of_record
SF:/home/john/cse701/roc/include/exceptions.hpp
FN:10,_ZN10sayMessageC2ERKNSt7__cxx1112basic_stringIcSt11char_traitsIcESaIcEEE
FNDA:0,_ZN10sayMessageC2ERKNSt7__cxx1112basic_stringIcSt11char_traitsIcESaIcEEE
FN:11,_ZNK10sayMessage4whatEv
FNDA:0,_ZNK10sayMessage4whatEv
DA:10,0
DA:11,0
end_of_record
SF:/usr/local/include/gtest/internal/gtest-port.h
FN:957,_ZN7testing8internal8GTestLog9GetStreamEv
FNDA:0,_ZN7testing8internal8GTestLog9GetStreamEv
DA:957,0
end_of_record
SF:/usr/include/c++/9/bits/char_traits.h
FN:100,_ZN9__gnu_cxx11char_traitsIcE2eqERKcS3_
FNDA:0,_ZN9__gnu_cxx11char_traitsIcE2eqERKcS3_
FN:161,_ZN9__gnu_cxx11char_traitsIcE6lengthEPKc
FNDA:0,_ZN9__gnu_cxx11char_traitsIcE6lengthEPKc
FN:329,_ZNSt11char_traitsIcE6lengthEPKc
FNDA:0,_ZNSt11char_traitsIcE6lengthEPKc
FN:361,_ZNSt11char_traitsIcE4copyEPcPKcm
FNDA:0,_ZNSt11char_traitsIcE4copyEPcPKcm
DA:100,0
DA:101,0
DA:161,0
DA:164,0
DA:165,0
DA:166,0
DA:167,0
DA:236,0
DA:329,0
DA:332,0
DA:333,0
DA:335,0
DA:361,0
DA:363,0
DA:364,0
DA:365,0
end_of_record
SF:/usr/include/c++/9/bits/alloc_traits.h
FN:443,_ZNSt16allocator_traitsISaIdEE8allocateERS0_m
FNDA:0,_ZNSt16allocator_traitsISaIdEE8allocateERS0_m
FN:469,_ZNSt16allocator_traitsISaIdEE10deallocateERS0_Pdm
FNDA:0,_ZNSt16allocator_traitsISaIdEE10deallocateERS0_Pdm
FN:505,_ZNSt16allocator_traitsISaIdEE8max_sizeERKS0_
FNDA:0,_ZNSt16allocator_traitsISaIdEE8max_sizeERKS0_
FN:514,_ZNSt16allocator_traitsISaIcEE37select_on_container_copy_constructionERKS0_
FNDA:0,_ZNSt16allocator_traitsISaIcEE37select_on_container_copy_constructionERKS0_
FN:545,_ZSt18__do_alloc_on_moveISaIdEEvRT_S2_St17integral_constantIbLb1EE
FNDA:0,_ZSt18__do_alloc_on_moveISaIdEEvRT_S2_St17integral_constantIbLb1EE
FN:553,_ZSt15__alloc_on_moveISaIdEEvRT_S2_
FNDA:0,_ZSt15__alloc_on_moveISaIdEEvRT_S2_
DA:443,0
DA:444,0
DA:469,0
DA:470,0
DA:505,0
DA:506,0
DA:514,0
DA:515,0
DA:545,0
DA:546,0
DA:553,0
DA:557,0
DA:558,0
end_of_record
SF:/usr/local/include/gtest/gtest-message.h
FN:112,_ZN7testing7MessagelsINSt7__cxx1112basic_stringIcSt11char_traitsIcESaIcEEEEERS0_RKT_
FNDA:0,_ZN7testing7MessagelsINSt7__cxx1112basic_stringIcSt11char_traitsIcESaIcEEEEERS0_RKT_
DA:112,0
DA:128,0
DA:129,0
end_of_record
SF:/usr/include/c++/9/tuple
FN:76,_ZNSt10_Head_baseILm1ESt14default_deleteIA_dELb1EEC2Ev
FNDA:0,_ZNSt10_Head_baseILm1ESt14default_deleteIA_dELb1EEC2Ev
FN:76,_ZNSt10_Head_baseILm1ESt14default_deleteINSt7__cxx1112basic_stringIcSt11char_traitsIcESaIcEEEELb1EEC2Ev
FNDA:8541,_ZNSt10_Head_baseILm1ESt14default_deleteINSt7__cxx1112basic_stringIcSt11char_traitsIcESaIcEEEELb1EEC2Ev
FN:113,_ZNSt10_Head_baseILm1ESt14default_deleteINSt7__cxx1112basic_stringIcSt11char_traitsIcESaIcEEEELb1EE7_M_headERS8_
FNDA:0,_ZNSt10_Head_baseILm1ESt14default_deleteINSt7__cxx1112basic_stringIcSt11char_traitsIcESaIcEEEELb1EE7_M_headERS8_
FN:113,_ZNSt10_Head_baseILm1ESt14default_deleteINSt7__cxx1118basic_stringstreamIcSt11char_traitsIcESaIcEEEELb1EE7_M_headERS8_
FNDA:0,_ZNSt10_Head_baseILm1ESt14default_deleteINSt7__cxx1118basic_stringstreamIcSt11char_traitsIcESaIcEEEELb1EE7_M_headERS8_
FN:113,_ZNSt10_Head_baseILm1ESt14default_deleteIA_dELb1EE7_M_headERS3_
FNDA:0,_ZNSt10_Head_baseILm1ESt14default_deleteIA_dELb1EE7_M_headERS3_
FN:122,_ZNSt10_Head_baseILm0EPdLb0EEC2Ev
FNDA:0,_ZNSt10_Head_baseILm0EPdLb0EEC2Ev
FN:122,_ZNSt10_Head_baseILm0EPNSt7__cxx1112basic_stringIcSt11char_traitsIcESaIcEEELb0EEC2Ev
FNDA:8541,_ZNSt10_Head_baseILm0EPNSt7__cxx1112basic_stringIcSt11char_traitsIcESaIcEEELb0EEC2Ev
FN:160,_ZNSt10_Head_baseILm0EPNSt7__cxx1112basic_stringIcSt11char_traitsIcESaIcEEELb0EE7_M_headERS7_
FNDA:0,_ZNSt10_Head_baseILm0EPNSt7__cxx1112basic_stringIcSt11char_traitsIcESaIcEEELb0EE7_M_headERS7_
FN:160,_ZNSt10_Head_baseILm0EPNSt7__cxx1118basic_stringstreamIcSt11char_traitsIcESaIcEEELb0EE7_M_headERS7_
FNDA:0,_ZNSt10_Head_baseILm0EPNSt7__cxx1118basic_stringstreamIcSt11char_traitsIcESaIcEEELb0EE7_M_headERS7_
FN:160,_ZNSt10_Head_baseILm0EPdLb0EE7_M_headERS1_
FNDA:0,_ZNSt10_Head_baseILm0EPdLb0EE7_M_headERS1_
FN:163,_ZNSt10_Head_baseILm0EPdLb0EE7_M_headERKS1_
FNDA:0,_ZNSt10_Head_baseILm0EPdLb0EE7_M_headERKS1_
FN:163,_ZNSt10_Head_baseILm0EPNSt7__cxx1112basic_stringIcSt11char_traitsIcESaIcEEELb0EE7_M_headERKS7_
FNDA:0,_ZNSt10_Head_baseILm0EPNSt7__cxx1112basic_stringIcSt11char_traitsIcESaIcEEELb0EE7_M_headERKS7_
FN:163,_ZNSt10_Head_baseILm0EPNSt7__cxx1118basic_stringstreamIcSt11char_traitsIcESaIcEEELb0EE7_M_headERKS7_
FNDA:0,_ZNSt10_Head_baseILm0EPNSt7__cxx1118basic_stringstreamIcSt11char_traitsIcESaIcEEELb0EE7_M_headERKS7_
FN:195,_ZNSt11_Tuple_implILm0EJPNSt7__cxx1118basic_stringstreamIcSt11char_traitsIcESaIcEEESt14default_deleteIS5_EEE7_M_headERS9_
FNDA:0,_ZNSt11_Tuple_implILm0EJPNSt7__cxx1118basic_stringstreamIcSt11char_traitsIcESaIcEEESt14default_deleteIS5_EEE7_M_headERS9_
FN:195,_ZNSt11_Tuple_implILm0EJPdSt14default_deleteIA_dEEE7_M_headERS4_
FNDA:0,_ZNSt11_Tuple_implILm0EJPdSt14default_deleteIA_dEEE7_M_headERS4_
FN:195,_ZNSt11_Tuple_implILm0EJPNSt7__cxx1112basic_stringIcSt11char_traitsIcESaIcEEESt14default_deleteIS5_EEE7_M_headERS9_
FNDA:0,_ZNSt11_Tuple_implILm0EJPNSt7__cxx1112basic_stringIcSt11char_traitsIcESaIcEEESt14default_deleteIS5_EEE7_M_headERS9_
FN:198,_ZNSt11_Tuple_implILm0EJPNSt7__cxx1118basic_stringstreamIcSt11char_traitsIcESaIcEEESt14default_deleteIS5_EEE7_M_headERKS9_
FNDA:0,_ZNSt11_Tuple_implILm0EJPNSt7__cxx1118basic_stringstreamIcSt11char_traitsIcESaIcEEESt14default_deleteIS5_EEE7_M_headERKS9_
FN:198,_ZNSt11_Tuple_implILm0EJPdSt14default_deleteIA_dEEE7_M_headERKS4_
FNDA:0,_ZNSt11_Tuple_implILm0EJPdSt14default_deleteIA_dEEE7_M_headERKS4_
FN:198,_ZNSt11_Tuple_implILm0EJPNSt7__cxx1112basic_stringIcSt11char_traitsIcESaIcEEESt14default_deleteIS5_EEE7_M_headERKS9_
FNDA:0,_ZNSt11_Tuple_implILm0EJPNSt7__cxx1112basic_stringIcSt11char_traitsIcESaIcEEESt14default_deleteIS5_EEE7_M_headERKS9_
FN:206,_ZNSt11_Tuple_implILm0EJPNSt7__cxx1112basic_stringIcSt11char_traitsIcESaIcEEESt14default_deleteIS5_EEEC2Ev
FNDA:8541,_ZNSt11_Tuple_implILm0EJPNSt7__cxx1112basic_stringIcSt11char_traitsIcESaIcEEESt14default_deleteIS5_EEEC2Ev
FN:206,_ZNSt11_Tuple_implILm0EJPdSt14default_deleteIA_dEEEC2Ev
FNDA:0,_ZNSt11_Tuple_implILm0EJPdSt14default_deleteIA_dEEEC2Ev
FN:334,_ZNSt11_Tuple_implILm1EJSt14default_deleteINSt7__cxx1112basic_stringIcSt11char_traitsIcESaIcEEEEEE7_M_headERS8_
FNDA:0,_ZNSt11_Tuple_implILm1EJSt14default_deleteINSt7__cxx1112basic_stringIcSt11char_traitsIcESaIcEEEEEE7_M_headERS8_
FN:334,_ZNSt11_Tuple_implILm1EJSt14default_deleteIA_dEEE7_M_headERS3_
FNDA:0,_ZNSt11_Tuple_implILm1EJSt14default_deleteIA_dEEE7_M_headERS3_
FN:334,_ZNSt11_Tuple_implILm1EJSt14default_deleteINSt7__cxx1118basic_stringstreamIcSt11char_traitsIcESaIcEEEEEE7_M_headERS8_
FNDA:0,_ZNSt11_Tuple_implILm1EJSt14default_deleteINSt7__cxx1118basic_stringstreamIcSt11char_traitsIcESaIcEEEEEE7_M_headERS8_
FN:339,_ZNSt11_Tuple_implILm1EJSt14default_deleteIA_dEEEC2Ev
FNDA:0,_ZNSt11_Tuple_implILm1EJSt14default_deleteIA_dEEEC2Ev
FN:339,_ZNSt11_Tuple_implILm1EJSt14default_deleteINSt7__cxx1112basic_stringIcSt11char_traitsIcESaIcEEEEEEC2Ev
FNDA:8541,_ZNSt11_Tuple_implILm1EJSt14default_deleteINSt7__cxx1112basic_stringIcSt11char_traitsIcESaIcEEEEEEC2Ev
FN:918,_ZNSt5tupleIJPdSt14default_deleteIA_dEEEC2IS0_S3_Lb1EEEv
FNDA:0,_ZNSt5tupleIJPdSt14default_deleteIA_dEEEC2IS0_S3_Lb1EEEv
FN:918,_ZNSt5tupleIJPNSt7__cxx1112basic_stringIcSt11char_traitsIcESaIcEEESt14default_deleteIS5_EEEC2IS6_S8_Lb1EEEv
FNDA:8541,_ZNSt5tupleIJPNSt7__cxx1112basic_stringIcSt11char_traitsIcESaIcEEESt14default_deleteIS5_EEEC2IS6_S8_Lb1EEEv
FN:1309,_ZSt12__get_helperILm0EPNSt7__cxx1118basic_stringstreamIcSt11char_traitsIcESaIcEEEJSt14default_deleteIS5_EEERT0_RSt11_Tuple_implIXT_EJS9_DpT1_EE
FNDA:0,_ZSt12__get_helperILm0EPNSt7__cxx1118basic_stringstreamIcSt11char_traitsIcESaIcEEEJSt14default_deleteIS5_EEERT0_RSt11_Tuple_implIXT_EJS9_DpT1_EE
FN:1309,_ZSt12__get_helperILm1ESt14default_deleteIA_dEJEERT0_RSt11_Tuple_implIXT_EJS3_DpT1_EE
FNDA:0,_ZSt12__get_helperILm1ESt14default_deleteIA_dEJEERT0_RSt11_Tuple_implIXT_EJS3_DpT1_EE
FN:1309,_ZSt12__get_helperILm1ESt14default_deleteINSt7__cxx1112basic_stringIcSt11char_traitsIcESaIcEEEEJEERT0_RSt11_Tuple_implIXT_EJS8_DpT1_EE
FNDA:0,_ZSt12__get_helperILm1ESt14default_deleteINSt7__cxx1112basic_stringIcSt11char_traitsIcESaIcEEEEJEERT0_RSt11_Tuple_implIXT_EJS8_DpT1_EE
FN:1309,_ZSt12__get_helperILm0EPdJSt14default_deleteIA_dEEERT0_RSt11_Tuple_implIXT_EJS4_DpT1_EE
FNDA:0,_ZSt12__get_helperILm0EPdJSt14default_deleteIA_dEEERT0_RSt11_Tuple_implIXT_EJS4_DpT1_EE
FN:1309,_ZSt12__get_helperILm0EPNSt7__cxx1112basic_stringIcSt11char_traitsIcESaIcEEEJSt14default_deleteIS5_EEERT0_RSt11_Tuple_implIXT_EJS9_DpT1_EE
FNDA:0,_ZSt12__get_helperILm0EPNSt7__cxx1112basic_stringIcSt11char_traitsIcESaIcEEEJSt14default_deleteIS5_EEERT0_RSt11_Tuple_implIXT_EJS9_DpT1_EE
FN:1309,_ZSt12__get_helperILm1ESt14default_deleteINSt7__cxx1118basic_stringstreamIcSt11char_traitsIcESaIcEEEEJEERT0_RSt11_Tuple_implIXT_EJS8_DpT1_EE
FNDA:0,_ZSt12__get_helperILm1ESt14default_deleteINSt7__cxx1118basic_stringstreamIcSt11char_traitsIcESaIcEEEEJEERT0_RSt11_Tuple_implIXT_EJS8_DpT1_EE
FN:1314,_ZSt12__get_helperILm0EPNSt7__cxx1112basic_stringIcSt11char_traitsIcESaIcEEEJSt14default_deleteIS5_EEERKT0_RKSt11_Tuple_implIXT_EJS9_DpT1_EE
FNDA:0,_ZSt12__get_helperILm0EPNSt7__cxx1112basic_stringIcSt11char_traitsIcESaIcEEEJSt14default_deleteIS5_EEERKT0_RKSt11_Tuple_implIXT_EJS9_DpT1_EE
FN:1314,_ZSt12__get_helperILm0EPNSt7__cxx1118basic_stringstreamIcSt11char_traitsIcESaIcEEEJSt14default_deleteIS5_EEERKT0_RKSt11_Tuple_implIXT_EJS9_DpT1_EE
FNDA:0,_ZSt12__get_helperILm0EPNSt7__cxx1118basic_stringstreamIcSt11char_traitsIcESaIcEEEJSt14default_deleteIS5_EEERKT0_RKSt11_Tuple_implIXT_EJS9_DpT1_EE
FN:1314,_ZSt12__get_helperILm0EPdJSt14default_deleteIA_dEEERKT0_RKSt11_Tuple_implIXT_EJS4_DpT1_EE
FNDA:0,_ZSt12__get_helperILm0EPdJSt14default_deleteIA_dEEERKT0_RKSt11_Tuple_implIXT_EJS4_DpT1_EE
FN:1320,_ZSt3getILm1EJPNSt7__cxx1112basic_stringIcSt11char_traitsIcESaIcEEESt14default_deleteIS5_EEERNSt13tuple_elementIXT_ESt5tupleIJDpT0_EEE4typeERSD_
FNDA:0,_ZSt3getILm1EJPNSt7__cxx1112basic_stringIcSt11char_traitsIcESaIcEEESt14default_deleteIS5_EEERNSt13tuple_elementIXT_ESt5tupleIJDpT0_EEE4typeERSD_
FN:1320,_ZSt3getILm1EJPNSt7__cxx1118basic_stringstreamIcSt11char_traitsIcESaIcEEESt14default_deleteIS5_EEERNSt13tuple_elementIXT_ESt5tupleIJDpT0_EEE4typeERSD_
FNDA:0,_ZSt3getILm1EJPNSt7__cxx1118basic_stringstreamIcSt11char_traitsIcESaIcEEESt14default_deleteIS5_EEERNSt13tuple_elementIXT_ESt5tupleIJDpT0_EEE4typeERSD_
FN:1320,_ZSt3getILm0EJPdSt14default_deleteIA_dEEERNSt13tuple_elementIXT_ESt5tupleIJDpT0_EEE4typeERS8_
FNDA:0,_ZSt3getILm0EJPdSt14default_deleteIA_dEEERNSt13tuple_elementIXT_ESt5tupleIJDpT0_EEE4typeERS8_
FN:1320,_ZSt3getILm1EJPdSt14default_deleteIA_dEEERNSt13tuple_elementIXT_ESt5tupleIJDpT0_EEE4typeERS8_
FNDA:0,_ZSt3getILm1EJPdSt14default_deleteIA_dEEERNSt13tuple_elementIXT_ESt5tupleIJDpT0_EEE4typeERS8_
FN:1320,_ZSt3getILm0EJPNSt7__cxx1112basic_stringIcSt11char_traitsIcESaIcEEESt14default_deleteIS5_EEERNSt13tuple_elementIXT_ESt5tupleIJDpT0_EEE4typeERSD_
FNDA:0,_ZSt3getILm0EJPNSt7__cxx1112basic_stringIcSt11char_traitsIcESaIcEEESt14default_deleteIS5_EEERNSt13tuple_elementIXT_ESt5tupleIJDpT0_EEE4typeERSD_
FN:1320,_ZSt3getILm0EJPNSt7__cxx1118basic_stringstreamIcSt11char_traitsIcESaIcEEESt14default_deleteIS5_EEERNSt13tuple_elementIXT_ESt5tupleIJDpT0_EEE4typeERSD_
FNDA:0,_ZSt3getILm0EJPNSt7__cxx1118basic_stringstreamIcSt11char_traitsIcESaIcEEESt14default_deleteIS5_EEERNSt13tuple_elementIXT_ESt5tupleIJDpT0_EEE4typeERSD_
FN:1326,_ZSt3getILm0EJPNSt7__cxx1118basic_stringstreamIcSt11char_traitsIcESaIcEEESt14default_deleteIS5_EEERKNSt13tuple_elementIXT_ESt5tupleIJDpT0_EEE4typeERKSD_
FNDA:0,_ZSt3getILm0EJPNSt7__cxx1118basic_stringstreamIcSt11char_traitsIcESaIcEEESt14default_deleteIS5_EEERKNSt13tuple_elementIXT_ESt5tupleIJDpT0_EEE4typeERKSD_
FN:1326,_ZSt3getILm0EJPNSt7__cxx1112basic_stringIcSt11char_traitsIcESaIcEEESt14default_deleteIS5_EEERKNSt13tuple_elementIXT_ESt5tupleIJDpT0_EEE4typeERKSD_
FNDA:0,_ZSt3getILm0EJPNSt7__cxx1112basic_stringIcSt11char_traitsIcESaIcEEESt14default_deleteIS5_EEERKNSt13tuple_elementIXT_ESt5tupleIJDpT0_EEE4typeERKSD_
FN:1326,_ZSt3getILm0EJPdSt14default_deleteIA_dEEERKNSt13tuple_elementIXT_ESt5tupleIJDpT0_EEE4typeERKS8_
FNDA:0,_ZSt3getILm0EJPdSt14default_deleteIA_dEEERKNSt13tuple_elementIXT_ESt5tupleIJDpT0_EEE4typeERKS8_
DA:76,8541
DA:77,8541
DA:76,0
DA:77,0
DA:113,0
DA:113,0
DA:113,0
DA:122,8541
DA:123,8541
DA:122,0
DA:123,0
DA:160,0
DA:160,0
DA:160,0
DA:163,0
DA:163,0
DA:163,0
DA:195,0
DA:195,0
DA:195,0
DA:198,0
DA:198,0
DA:198,0
DA:206,8541
DA:207,8541
DA:206,0
DA:207,0
DA:334,0
DA:334,0
DA:334,0
DA:339,8541
DA:340,8541
DA:339,0
DA:340,0
DA:918,8541
DA:919,8541
DA:918,0
DA:919,0
DA:1309,0
DA:1310,0
DA:1309,0
DA:1310,0
DA:1309,0
DA:1310,0
DA:1309,0
DA:1310,0
DA:1309,0
DA:1310,0
DA:1309,0
DA:1310,0
DA:1314,0
DA:1315,0
DA:1314,0
DA:1315,0
DA:1314,0
DA:1315,0
DA:1320,0
DA:1321,0
DA:1320,0
DA:1321,0
DA:1320,0
DA:1321,0
DA:1320,0
DA:1321,0
DA:1320,0
DA:1321,0
DA:1320,0
DA:1321,0
DA:1326,0
DA:1327,0
DA:1326,0
DA:1327,0
DA:1326,0
DA:1327,0
end_of_record
SF:/usr/include/c++/9/bits/unique_ptr.h
FN:75,_ZNKSt14default_deleteINSt7__cxx1118basic_stringstreamIcSt11char_traitsIcESaIcEEEEclEPS5_
FNDA:0,_ZNKSt14default_deleteINSt7__cxx1118basic_stringstreamIcSt11char_traitsIcESaIcEEEEclEPS5_
FN:75,_ZNKSt14default_deleteINSt7__cxx1112basic_stringIcSt11char_traitsIcESaIcEEEEclEPS5_
FNDA:0,_ZNKSt14default_deleteINSt7__cxx1112basic_stringIcSt11char_traitsIcESaIcEEEEclEPS5_
FN:111,_ZNKSt14default_deleteIA_dEclIdEENSt9enable_ifIXsrSt14is_convertibleIPA_T_PS0_E5valueEvE4typeEPS5_
FNDA:0,_ZNKSt14default_deleteIA_dEclIdEENSt9enable_ifIXsrSt14is_convertibleIPA_T_PS0_E5valueEvE4typeEPS5_
FN:146,_ZNSt15__uniq_ptr_implINSt7__cxx1112basic_stringIcSt11char_traitsIcESaIcEEESt14default_deleteIS5_EEC2Ev
FNDA:8541,_ZNSt15__uniq_ptr_implINSt7__cxx1112basic_stringIcSt11char_traitsIcESaIcEEESt14default_deleteIS5_EEC2Ev
FN:146,_ZNSt15__uniq_ptr_implIdSt14default_deleteIA_dEEC2Ev
FNDA:0,_ZNSt15__uniq_ptr_implIdSt14default_deleteIA_dEEC2Ev
FN:153,_ZNSt15__uniq_ptr_implINSt7__cxx1118basic_stringstreamIcSt11char_traitsIcESaIcEEESt14default_deleteIS5_EE6_M_ptrEv
FNDA:0,_ZNSt15__uniq_ptr_implINSt7__cxx1118basic_stringstreamIcSt11char_traitsIcESaIcEEESt14default_deleteIS5_EE6_M_ptrEv
FN:153,_ZNSt15__uniq_ptr_implINSt7__cxx1112basic_stringIcSt11char_traitsIcESaIcEEESt14default_deleteIS5_EE6_M_ptrEv
FNDA:0,_ZNSt15__uniq_ptr_implINSt7__cxx1112basic_stringIcSt11char_traitsIcESaIcEEESt14default_deleteIS5_EE6_M_ptrEv
FN:153,_ZNSt15__uniq_ptr_implIdSt14default_deleteIA_dEE6_M_ptrEv
FNDA:0,_ZNSt15__uniq_ptr_implIdSt14default_deleteIA_dEE6_M_ptrEv
FN:154,_ZNKSt15__uniq_ptr_implIdSt14default_deleteIA_dEE6_M_ptrEv
FNDA:0,_ZNKSt15__uniq_ptr_implIdSt14default_deleteIA_dEE6_M_ptrEv
FN:154,_ZNKSt15__uniq_ptr_implINSt7__cxx1112basic_stringIcSt11char_traitsIcESaIcEEESt14default_deleteIS5_EE6_M_ptrEv
FNDA:0,_ZNKSt15__uniq_ptr_implINSt7__cxx1112basic_stringIcSt11char_traitsIcESaIcEEESt14default_deleteIS5_EE6_M_ptrEv
FN:154,_ZNKSt15__uniq_ptr_implINSt7__cxx1118basic_stringstreamIcSt11char_traitsIcESaIcEEESt14default_deleteIS5_EE6_M_ptrEv
FNDA:0,_ZNKSt15__uniq_ptr_implINSt7__cxx1118basic_stringstreamIcSt11char_traitsIcESaIcEEESt14default_deleteIS5_EE6_M_ptrEv
FN:155,_ZNSt15__uniq_ptr_implIdSt14default_deleteIA_dEE10_M_deleterEv
FNDA:0,_ZNSt15__uniq_ptr_implIdSt14default_deleteIA_dEE10_M_deleterEv
FN:155,_ZNSt15__uniq_ptr_implINSt7__cxx1112basic_stringIcSt11char_traitsIcESaIcEEESt14default_deleteIS5_EE10_M_deleterEv
FNDA:0,_ZNSt15__uniq_ptr_implINSt7__cxx1112basic_stringIcSt11char_traitsIcESaIcEEESt14default_deleteIS5_EE10_M_deleterEv
FN:155,_ZNSt15__uniq_ptr_implINSt7__cxx1118basic_stringstreamIcSt11char_traitsIcESaIcEEESt14default_deleteIS5_EE10_M_deleterEv
FNDA:0,_ZNSt15__uniq_ptr_implINSt7__cxx1118basic_stringstreamIcSt11char_traitsIcESaIcEEESt14default_deleteIS5_EE10_M_deleterEv
FN:199,_ZNSt10unique_ptrINSt7__cxx1112basic_stringIcSt11char_traitsIcESaIcEEESt14default_deleteIS5_EEC2IS7_vEEv
FNDA:8541,_ZNSt10unique_ptrINSt7__cxx1112basic_stringIcSt11char_traitsIcESaIcEEESt14default_deleteIS5_EEC2IS7_vEEv
FN:286,_ZNSt10unique_ptrINSt7__cxx1118basic_stringstreamIcSt11char_traitsIcESaIcEEESt14default_deleteIS5_EED2Ev
FNDA:0,_ZNSt10unique_ptrINSt7__cxx1118basic_stringstreamIcSt11char_traitsIcESaIcEEESt14default_deleteIS5_EED2Ev
FN:286,_ZNSt10unique_ptrINSt7__cxx1112basic_stringIcSt11char_traitsIcESaIcEEESt14default_deleteIS5_EED2Ev
FNDA:0,_ZNSt10unique_ptrINSt7__cxx1112basic_stringIcSt11char_traitsIcESaIcEEESt14default_deleteIS5_EED2Ev
FN:344,_ZNKSt10unique_ptrINSt7__cxx1118basic_stringstreamIcSt11char_traitsIcESaIcEEESt14default_deleteIS5_EEdeEv
FNDA:0,_ZNKSt10unique_ptrINSt7__cxx1118basic_stringstreamIcSt11char_traitsIcESaIcEEESt14default_deleteIS5_EEdeEv
FN:352,_ZNKSt10unique_ptrINSt7__cxx1112basic_stringIcSt11char_traitsIcESaIcEEESt14default_deleteIS5_EEptEv
FNDA:0,_ZNKSt10unique_ptrINSt7__cxx1112basic_stringIcSt11char_traitsIcESaIcEEESt14default_deleteIS5_EEptEv
FN:360,_ZNKSt10unique_ptrINSt7__cxx1118basic_stringstreamIcSt11char_traitsIcESaIcEEESt14default_deleteIS5_EE3getEv
FNDA:0,_ZNKSt10unique_ptrINSt7__cxx1118basic_stringstreamIcSt11char_traitsIcESaIcEEESt14default_deleteIS5_EE3getEv
FN:360,_ZNKSt10unique_ptrINSt7__cxx1112basic_stringIcSt11char_traitsIcESaIcEEESt14default_deleteIS5_EE3getEv
FNDA:0,_ZNKSt10unique_ptrINSt7__cxx1112basic_stringIcSt11char_traitsIcESaIcEEESt14default_deleteIS5_EE3getEv
FN:365,_ZNSt10unique_ptrINSt7__cxx1112basic_stringIcSt11char_traitsIcESaIcEEESt14default_deleteIS5_EE11get_deleterEv
FNDA:0,_ZNSt10unique_ptrINSt7__cxx1112basic_stringIcSt11char_traitsIcESaIcEEESt14default_deleteIS5_EE11get_deleterEv
FN:365,_ZNSt10unique_ptrINSt7__cxx1118basic_stringstreamIcSt11char_traitsIcESaIcEEESt14default_deleteIS5_EE11get_deleterEv
FNDA:0,_ZNSt10unique_ptrINSt7__cxx1118basic_stringstreamIcSt11char_traitsIcESaIcEEESt14default_deleteIS5_EE11get_deleterEv
FN:395,_ZNSt10unique_ptrINSt7__cxx1112basic_stringIcSt11char_traitsIcESaIcEEESt14default_deleteIS5_EE5resetEPS5_
FNDA:0,_ZNSt10unique_ptrINSt7__cxx1112basic_stringIcSt11char_traitsIcESaIcEEESt14default_deleteIS5_EE5resetEPS5_
FN:541,_ZNSt10unique_ptrIA_dSt14default_deleteIS0_EEC2IS2_vEEDn
FNDA:0,_ZNSt10unique_ptrIA_dSt14default_deleteIS0_EEC2IS2_vEEDn
FN:555,_ZNSt10unique_ptrIA_dSt14default_deleteIS0_EED2Ev
FNDA:0,_ZNSt10unique_ptrIA_dSt14default_deleteIS0_EED2Ev
FN:619,_ZNKSt10unique_ptrIA_dSt14default_deleteIS0_EE3getEv
FNDA:0,_ZNKSt10unique_ptrIA_dSt14default_deleteIS0_EE3getEv
FN:624,_ZNSt10unique_ptrIA_dSt14default_deleteIS0_EE11get_deleterEv
FNDA:0,_ZNSt10unique_ptrIA_dSt14default_deleteIS0_EE11get_deleterEv
FN:666,_ZNSt10unique_ptrIA_dSt14default_deleteIS0_EE5resetIPdvEEvT_
FNDA:0,_ZNSt10unique_ptrIA_dSt14default_deleteIS0_EE5resetIPdvEEvT_
DA:75,0
DA:81,0
DA:82,0
DA:75,0
DA:81,0
DA:82,0
DA:111,0
DA:115,0
DA:116,0
DA:146,8541
DA:146,0
DA:153,0
DA:153,0
DA:153,0
DA:154,0
DA:154,0
DA:154,0
DA:155,0
DA:155,0
DA:155,0
DA:199,8541
DA:200,8541
DA:201,8541
DA:286,0
DA:290,0
DA:291,0
DA:292,0
DA:293,0
DA:294,0
DA:286,0
DA:290,0
DA:291,0
DA:292,0
DA:293,0
DA:294,0
DA:344,0
DA:347,0
DA:352,0
DA:355,0
DA:360,0
DA:361,0
DA:360,0
DA:361,0
DA:365,0
DA:366,0
DA:365,0
DA:366,0
DA:395,0
DA:400,0
DA:401,0
DA:402,0
DA:403,0
DA:541,0
DA:542,0
DA:543,0
DA:555,0
DA:557,0
DA:558,0
DA:559,0
DA:560,0
DA:561,0
DA:619,0
DA:620,0
DA:624,0
DA:625,0
DA:666,0
DA:668,0
DA:670,0
DA:671,0
DA:672,0
DA:673,0
end_of_record
SF:/usr/include/c++/9/bits/stl_iterator_base_funcs.h
FN:98,_ZSt10__distanceIPcENSt15iterator_traitsIT_E15difference_typeES2_S2_St26random_access_iterator_tag
FNDA:0,_ZSt10__distanceIPcENSt15iterator_traitsIT_E15difference_typeES2_S2_St26random_access_iterator_tag
FN:98,_ZSt10__distanceIPKcENSt15iterator_traitsIT_E15difference_typeES3_S3_St26random_access_iterator_tag
FNDA:0,_ZSt10__distanceIPKcENSt15iterator_traitsIT_E15difference_typeES3_S3_St26random_access_iterator_tag
FN:138,_ZSt8distanceIPcENSt15iterator_traitsIT_E15difference_typeES2_S2_
FNDA:0,_ZSt8distanceIPcENSt15iterator_traitsIT_E15difference_typeES2_S2_
FN:138,_ZSt8distanceIPKcENSt15iterator_traitsIT_E15difference_typeES3_S3_
FNDA:0,_ZSt8distanceIPKcENSt15iterator_traitsIT_E15difference_typeES3_S3_
DA:98,0
DA:104,0
DA:98,0
DA:104,0
DA:138,0
DA:141,0
DA:142,0
DA:138,0
DA:141,0
DA:142,0
end_of_record
SF:/usr/include/c++/9/bits/exception.h
FN:63,_ZNSt9exceptionC2Ev
FNDA:0,_ZNSt9exceptionC2Ev
DA:63,0
end_of_record
SF:/usr/include/c++/9/bits/move.h
FN:99,_ZSt4moveIRSaIdEEONSt16remove_referenceIT_E4typeEOS3_
FNDA:0,_ZSt4moveIRSaIdEEONSt16remove_referenceIT_E4typeEOS3_
FN:99,_ZSt4moveIRPdEONSt16remove_referenceIT_E4typeEOS3_
FNDA:0,_ZSt4moveIRPdEONSt16remove_referenceIT_E4typeEOS3_
FN:99,_ZSt4moveIRN7testing8internal17FloatingEqMatcherIdEEEONSt16remove_referenceIT_E4typeEOS6_
FNDA:0,_ZSt4moveIRN7testing8internal17FloatingEqMatcherIdEEEONSt16remove_referenceIT_E4typeEOS6_
FN:99,_ZSt4moveIRSt6vectorIdSaIdEEEONSt16remove_referenceIT_E4typeEOS5_
FNDA:0,_ZSt4moveIRSt6vectorIdSaIdEEEONSt16remove_referenceIT_E4typeEOS5_
FN:99,_ZSt4moveIRPNSt7__cxx1112basic_stringIcSt11char_traitsIcESaIcEEEEONSt16remove_referenceIT_E4typeEOS9_
FNDA:0,_ZSt4moveIRPNSt7__cxx1112basic_stringIcSt11char_traitsIcESaIcEEEEONSt16remove_referenceIT_E4typeEOS9_
FN:99,_ZSt4moveIRPNSt7__cxx1118basic_stringstreamIcSt11char_traitsIcESaIcEEEEONSt16remove_referenceIT_E4typeEOS9_
FNDA:0,_ZSt4moveIRPNSt7__cxx1118basic_stringstreamIcSt11char_traitsIcESaIcEEEEONSt16remove_referenceIT_E4typeEOS9_
FN:99,_ZSt4moveIRSaIcEEONSt16remove_referenceIT_E4typeEOS3_
FNDA:0,_ZSt4moveIRSaIcEEONSt16remove_referenceIT_E4typeEOS3_
FN:182,_ZSt4swapIPdENSt9enable_ifIXsrSt6__and_IJSt6__not_ISt15__is_tuple_likeIT_EESt21is_move_constructibleIS5_ESt18is_move_assignableIS5_EEE5valueEvE4typeERS5_SF_
FNDA:0,_ZSt4swapIPdENSt9enable_ifIXsrSt6__and_IJSt6__not_ISt15__is_tuple_likeIT_EESt21is_move_constructibleIS5_ESt18is_move_assignableIS5_EEE5valueEvE4typeERS5_SF_
FN:182,_ZSt4swapIPNSt7__cxx1112basic_stringIcSt11char_traitsIcESaIcEEEENSt9enable_ifIXsrSt6__and_IJSt6__not_ISt15__is_tuple_likeIT_EESt21is_move_constructibleISB_ESt18is_move_assignableISB_EEE5valueEvE4typeERSB_SL_
FNDA:0,_ZSt4swapIPNSt7__cxx1112basic_stringIcSt11char_traitsIcESaIcEEEENSt9enable_ifIXsrSt6__and_IJSt6__not_ISt15__is_tuple_likeIT_EESt21is_move_constructibleISB_ESt18is_move_assignableISB_EEE5valueEvE4typeERSB_SL_
DA:99,0
DA:100,0
DA:99,0
DA:100,0
DA:99,0
DA:100,0
DA:99,0
DA:100,0
DA:99,0
DA:100,0
DA:99,0
DA:100,0
DA:99,0
DA:100,0
DA:182,0
DA:193,0
DA:194,0
DA:195,0
DA:196,0
DA:182,0
DA:193,0
DA:194,0
DA:195,0
DA:196,0
end_of_record
SF:/usr/local/include/gtest/gtest-matchers.h
FN:85,_ZN7testing19MatchResultListenerC2EPSo
FNDA:0,_ZN7testing19MatchResultListenerC2EPSo
FN:91,_ZN7testing19MatchResultListenerlsIdEERS0_RKT_
FNDA:0,_ZN7testing19MatchResultListenerlsIdEERS0_RKT_
FN:91,_ZN7testing19MatchResultListenerlsIA7_cEERS0_RKT_
FNDA:0,_ZN7testing19MatchResultListenerlsIA7_cEERS0_RKT_
FN:91,_ZN7testing19MatchResultListenerlsIA10_cEERS0_RKT_
FNDA:0,_ZN7testing19MatchResultListenerlsIA10_cEERS0_RKT_
FN:97,_ZN7testing19MatchResultListener6streamEv
FNDA:0,_ZN7testing19MatchResultListener6streamEv
FN:103,_ZNK7testing19MatchResultListener12IsInterestedEv
FNDA:0,_ZNK7testing19MatchResultListener12IsInterestedEv
FN:111,_ZN7testing19MatchResultListenerD2Ev
FNDA:0,_ZN7testing19MatchResultListenerD2Ev
FN:111,_ZN7testing19MatchResultListenerD0Ev
FNDA:0,_ZN7testing19MatchResultListenerD0Ev
FN:118,_ZN7testing25MatcherDescriberInterfaceD2Ev
FNDA:0,_ZN7testing25MatcherDescriberInterfaceD2Ev
FN:118,_ZN7testing25MatcherDescriberInterfaceD0Ev
FNDA:0,_ZN7testing25MatcherDescriberInterfaceD0Ev
FN:133,_ZNK7testing25MatcherDescriberInterface18DescribeNegationToEPSo
FNDA:0,_ZNK7testing25MatcherDescriberInterface18DescribeNegationToEPSo
FN:237,_ZN7testing8internal24DummyMatchResultListenerC2Ev
FNDA:0,_ZN7testing8internal24DummyMatchResultListenerC2Ev
FN:263,_ZNK7testing8internal11MatcherBaseIRKdE15MatchAndExplainES3_PNS_19MatchResultListenerE
FNDA:0,_ZNK7testing8internal11MatcherBaseIRKdE15MatchAndExplainES3_PNS_19MatchResultListenerE
FN:268,_ZNK7testing8internal11MatcherBaseIRKdE7MatchesES3_
FNDA:0,_ZNK7testing8internal11MatcherBaseIRKdE7MatchesES3_
FN:274,_ZNK7testing8internal11MatcherBaseIRKdE10DescribeToEPSo
FNDA:0,_ZNK7testing8internal11MatcherBaseIRKdE10DescribeToEPSo
FN:298,_ZN7testing8internal11MatcherBaseIRKdEC2EPKNS_16MatcherInterfaceIS3_EE
FNDA:0,_ZN7testing8internal11MatcherBaseIRKdEC2EPKNS_16MatcherInterfaceIS3_EE
FN:312,_ZN7testing8internal11MatcherBaseIRKdED2Ev
FNDA:0,_ZN7testing8internal11MatcherBaseIRKdED2Ev
FN:312,_ZN7testing8internal11MatcherBaseIRKdED0Ev
FNDA:0,_ZN7testing8internal11MatcherBaseIRKdED0Ev
FN:333,_ZN7testing7MatcherIRKdEC2EPKNS_16MatcherInterfaceIS2_EE
FNDA:0,_ZN7testing7MatcherIRKdEC2EPKNS_16MatcherInterfaceIS2_EE
FN:501,_ZN7testing11MakeMatcherIRKdEENS_7MatcherIT_EEPKNS_16MatcherInterfaceIS4_EE
FNDA:0,_ZN7testing11MakeMatcherIRKdEENS_7MatcherIT_EEPKNS_16MatcherInterfaceIS4_EE
DA:85,0
DA:91,0
DA:92,0
DA:93,0
DA:91,0
DA:92,0
DA:93,0
DA:91,0
DA:92,0
DA:93,0
DA:97,0
DA:103,0
DA:111,0
DA:112,0
DA:111,0
DA:112,0
DA:118,0
DA:118,0
DA:133,0
DA:134,0
DA:135,0
DA:136,0
DA:137,0
DA:237,0
DA:263,0
DA:264,0
DA:268,0
DA:269,0
DA:270,0
DA:274,0
DA:298,0
DA:312,0
DA:312,0
DA:333,0
DA:334,0
DA:501,0
DA:502,0
end_of_record
SF:/usr/include/c++/9/bits/shared_ptr_base.h
FN:117,_ZNSt16_Sp_counted_baseILN9__gnu_cxx12_Lock_policyE2EEC2Ev
FNDA:0,_ZNSt16_Sp_counted_baseILN9__gnu_cxx12_Lock_policyE2EEC2Ev
FN:121,_ZNSt16_Sp_counted_baseILN9__gnu_cxx12_Lock_policyE2EED2Ev
FNDA:0,_ZNSt16_Sp_counted_baseILN9__gnu_cxx12_Lock_policyE2EED2Ev
FN:121,_ZNSt16_Sp_counted_baseILN9__gnu_cxx12_Lock_policyE2EED0Ev
FNDA:0,_ZNSt16_Sp_counted_baseILN9__gnu_cxx12_Lock_policyE2EED0Ev
FN:131,_ZNSt16_Sp_counted_baseILN9__gnu_cxx12_Lock_policyE2EE10_M_destroyEv
FNDA:0,_ZNSt16_Sp_counted_baseILN9__gnu_cxx12_Lock_policyE2EE10_M_destroyEv
FN:148,_ZNSt16_Sp_counted_baseILN9__gnu_cxx12_Lock_policyE2EE10_M_releaseEv
FNDA:0,_ZNSt16_Sp_counted_baseILN9__gnu_cxx12_Lock_policyE2EE10_M_releaseEv
FN:372,_ZNSt15_Sp_counted_ptrIPKN7testing16MatcherInterfaceIRKdEELN9__gnu_cxx12_Lock_policyE2EEC2ES6_
FNDA:0,_ZNSt15_Sp_counted_ptrIPKN7testing16MatcherInterfaceIRKdEELN9__gnu_cxx12_Lock_policyE2EEC2ES6_
FN:376,_ZNSt15_Sp_counted_ptrIPKN7testing16MatcherInterfaceIRKdEELN9__gnu_cxx12_Lock_policyE2EE10_M_disposeEv
FNDA:0,_ZNSt15_Sp_counted_ptrIPKN7testing16MatcherInterfaceIRKdEELN9__gnu_cxx12_Lock_policyE2EE10_M_disposeEv
FN:380,_ZNSt15_Sp_counted_ptrIPKN7testing16MatcherInterfaceIRKdEELN9__gnu_cxx12_Lock_policyE2EE10_M_destroyEv
FNDA:0,_ZNSt15_Sp_counted_ptrIPKN7testing16MatcherInterfaceIRKdEELN9__gnu_cxx12_Lock_policyE2EE10_M_destroyEv
FN:384,_ZNSt15_Sp_counted_ptrIPKN7testing16MatcherInterfaceIRKdEELN9__gnu_cxx12_Lock_policyE2EE14_M_get_deleterERKSt9type_info
FNDA:0,_ZNSt15_Sp_counted_ptrIPKN7testing16MatcherInterfaceIRKdEELN9__gnu_cxx12_Lock_policyE2EE14_M_get_deleterERKSt9type_info
FN:621,_ZNSt14__shared_countILN9__gnu_cxx12_Lock_policyE2EEC2IPKN7testing16MatcherInterfaceIRKdEEEET_
FNDA:0,_ZNSt14__shared_countILN9__gnu_cxx12_Lock_policyE2EEC2IPKN7testing16MatcherInterfaceIRKdEEEET_
FN:635,_ZNSt14__shared_countILN9__gnu_cxx12_Lock_policyE2EEC2IPKN7testing16MatcherInterfaceIRKdEEEET_St17integral_constantIbLb0EE
FNDA:0,_ZNSt14__shared_countILN9__gnu_cxx12_Lock_policyE2EEC2IPKN7testing16MatcherInterfaceIRKdEEEET_St17integral_constantIbLb0EE
FN:727,_ZNSt14__shared_countILN9__gnu_cxx12_Lock_policyE2EED2Ev
FNDA:0,_ZNSt14__shared_countILN9__gnu_cxx12_Lock_policyE2EED2Ev
FN:1012,_ZNKSt19__shared_ptr_accessIKN7testing16MatcherInterfaceIRKdEELN9__gnu_cxx12_Lock_policyE2ELb0ELb0EEptEv
FNDA:0,_ZNKSt19__shared_ptr_accessIKN7testing16MatcherInterfaceIRKdEELN9__gnu_cxx12_Lock_policyE2ELb0ELb0EEptEv
FN:1020,_ZNKSt19__shared_ptr_accessIKN7testing16MatcherInterfaceIRKdEELN9__gnu_cxx12_Lock_policyE2ELb0ELb0EE6_M_getEv
FNDA:0,_ZNKSt19__shared_ptr_accessIKN7testing16MatcherInterfaceIRKdEELN9__gnu_cxx12_Lock_policyE2ELb0ELb0EE6_M_getEv
FN:1124,_ZNSt12__shared_ptrIKN7testing16MatcherInterfaceIRKdEELN9__gnu_cxx12_Lock_policyE2EEC2IS5_vEEPT_
FNDA:0,_ZNSt12__shared_ptrIKN7testing16MatcherInterfaceIRKdEELN9__gnu_cxx12_Lock_policyE2EEC2IS5_vEEPT_
FN:1169,_ZNSt12__shared_ptrIKN7testing16MatcherInterfaceIRKdEELN9__gnu_cxx12_Lock_policyE2EED2Ev
FNDA:0,_ZNSt12__shared_ptrIKN7testing16MatcherInterfaceIRKdEELN9__gnu_cxx12_Lock_policyE2EED2Ev
FN:1309,_ZNKSt12__shared_ptrIKN7testing16MatcherInterfaceIRKdEELN9__gnu_cxx12_Lock_policyE2EE3getEv
FNDA:0,_ZNKSt12__shared_ptrIKN7testing16MatcherInterfaceIRKdEELN9__gnu_cxx12_Lock_policyE2EE3getEv
FN:1388,_ZNSt12__shared_ptrIKN7testing16MatcherInterfaceIRKdEELN9__gnu_cxx12_Lock_policyE2EE31_M_enable_shared_from_this_withIS5_S4_EENSt9enable_ifIXntsrNS8_15__has_esft_baseIT0_vEE5valueEvE4typeEPT_
FNDA:0,_ZNSt12__shared_ptrIKN7testing16MatcherInterfaceIRKdEELN9__gnu_cxx12_Lock_policyE2EE31_M_enable_shared_from_this_withIS5_S4_EENSt9enable_ifIXntsrNS8_15__has_esft_baseIT0_vEE5valueEvE4typeEPT_
DA:117,0
DA:118,0
DA:121,0
DA:122,0
DA:121,0
DA:122,0
DA:131,0
DA:132,0
DA:148,0
DA:152,0
DA:155,0
DA:167,0
DA:168,0
DA:171,0
DA:174,0
DA:372,0
DA:373,0
DA:376,0
DA:377,0
DA:380,0
DA:381,0
DA:384,0
DA:385,0
DA:621,0
DA:625,0
DA:627,0
DA:629,0
DA:630,0
DA:632,0
DA:635,0
DA:636,0
DA:637,0
DA:727,0
DA:729,0
DA:730,0
DA:731,0
DA:1012,0
DA:1015,0
DA:1020,0
DA:1021,0
DA:1124,0
DA:1125,0
DA:1129,0
DA:1130,0
DA:1169,0
DA:1309,0
DA:1310,0
DA:1388,0
DA:1389,0
end_of_record
SF:/usr/local/include/gmock/gmock-matchers.h
FN:90,_ZN7testing25StringMatchResultListenerC2Ev
FNDA:0,_ZN7testing25StringMatchResultListenerC2Ev
FN:93,_ZNK7testing25StringMatchResultListener3strB5cxx11Ev
FNDA:0,_ZNK7testing25StringMatchResultListener3strB5cxx11Ev
FN:121,_ZN7testing8internal15MatcherCastImplIRKdNS0_17FloatingEqMatcherIdEEE4CastERKS5_
FNDA:0,_ZN7testing8internal15MatcherCastImplIRKdNS0_17FloatingEqMatcherIdEEE4CastERKS5_
FN:142,_ZN7testing8internal15MatcherCastImplIRKdNS0_17FloatingEqMatcherIdEEE8CastImplILb0EEENS_7MatcherIS3_EERKS5_St17integral_constantIbLb1EESC_IbXT_EE
FNDA:0,_ZN7testing8internal15MatcherCastImplIRKdNS0_17FloatingEqMatcherIdEEE8CastImplILb0EEENS_7MatcherIS3_EERKS5_St17integral_constantIbLb1EESC_IbXT_EE
FN:259,_ZN7testing19SafeMatcherCastImplIRKdE4CastINS_8internal17FloatingEqMatcherIdEEEENS_7MatcherIS2_EERKT_
FNDA:0,_ZN7testing19SafeMatcherCastImplIRKdE4CastINS_8internal17FloatingEqMatcherIdEEEENS_7MatcherIS2_EERKT_
FN:297,_ZN7testing15SafeMatcherCastIRKdNS_8internal17FloatingEqMatcherIdEEEENS_7MatcherIT_EERKT0_
FNDA:0,_ZN7testing15SafeMatcherCastIRKdNS_8internal17FloatingEqMatcherIdEEEENS_7MatcherIT_EERKT0_
FN:310,_ZN7testing8internal15PrintIfNotEmptyERKNSt7__cxx1112basic_stringIcSt11char_traitsIcESaIcEEEPSo
FNDA:0,_ZN7testing8internal15PrintIfNotEmptyERKNSt7__cxx1112basic_stringIcSt11char_traitsIcESaIcEEEPSo
FN:320,_ZN7testing8internal18IsReadableTypeNameERKNSt7__cxx1112basic_stringIcSt11char_traitsIcESaIcEEE
FNDA:0,_ZN7testing8internal18IsReadableTypeNameERKNSt7__cxx1112basic_stringIcSt11char_traitsIcESaIcEEE
FN:333,_ZN7testing8internal20MatchPrintAndExplainIKdRS2_EEbRT_RKNS_7MatcherIT0_EEPNS_19MatchResultListenerE
FNDA:0,_ZN7testing8internal20MatchPrintAndExplainIKdRS2_EEbRT_RKNS_7MatcherIT0_EEPNS_19MatchResultListenerE
FN:1295,_ZN7testing8internal29PredicateFormatterFromMatcherINS0_17FloatingEqMatcherIdEEEC2ES3_
FNDA:0,_ZN7testing8internal29PredicateFormatterFromMatcherINS0_17FloatingEqMatcherIdEEEC2ES3_
FN:1301,_ZNK7testing8internal29PredicateFormatterFromMatcherINS0_17FloatingEqMatcherIdEEEclIdEENS_15AssertionResultEPKcRKT_
FNDA:0,_ZNK7testing8internal29PredicateFormatterFromMatcherINS0_17FloatingEqMatcherIdEEEclIdEENS_15AssertionResultEPKcRKT_
FN:1348,_ZN7testing8internal33MakePredicateFormatterFromMatcherINS0_17FloatingEqMatcherIdEEEENS0_29PredicateFormatterFromMatcherIT_EES5_
FNDA:0,_ZN7testing8internal33MakePredicateFormatterFromMatcherINS0_17FloatingEqMatcherIdEEEENS0_29PredicateFormatterFromMatcherIT_EES5_
FN:1365,_ZN7testing8internal17FloatingEqMatcherIdEC2Edb
FNDA:0,_ZN7testing8internal17FloatingEqMatcherIdEC2Edb
FN:1372,_ZN7testing8internal17FloatingEqMatcherIdEC2Edbd
FNDA:0,_ZN7testing8internal17FloatingEqMatcherIdEC2Edbd
FN:1385,_ZN7testing8internal17FloatingEqMatcherIdE4ImplIRKdEC2Edbd
FNDA:0,_ZN7testing8internal17FloatingEqMatcherIdE4ImplIRKdEC2Edbd
FN:1390,_ZNK7testing8internal17FloatingEqMatcherIdE4ImplIRKdE15MatchAndExplainES5_PNS_19MatchResultListenerE
FNDA:0,_ZNK7testing8internal17FloatingEqMatcherIdE4ImplIRKdE15MatchAndExplainES5_PNS_19MatchResultListenerE
FN:1425,_ZNK7testing8internal17FloatingEqMatcherIdE4ImplIRKdE10DescribeToEPSo
FNDA:0,_ZNK7testing8internal17FloatingEqMatcherIdE4ImplIRKdE10DescribeToEPSo
FN:1446,_ZNK7testing8internal17FloatingEqMatcherIdE4ImplIRKdE18DescribeNegationToEPSo
FNDA:0,_ZNK7testing8internal17FloatingEqMatcherIdE4ImplIRKdE18DescribeNegationToEPSo
FN:1467,_ZNK7testing8internal17FloatingEqMatcherIdE4ImplIRKdE14HasMaxAbsErrorEv
FNDA:0,_ZNK7testing8internal17FloatingEqMatcherIdE4ImplIRKdE14HasMaxAbsErrorEv
FN:1490,_ZNK7testing8internal17FloatingEqMatcherIdEcvNS_7MatcherIRKdEEEv
FNDA:0,_ZNK7testing8internal17FloatingEqMatcherIdEcvNS_7MatcherIRKdEEEv
FN:3631,_ZN7testing8DoubleEqEd
FNDA:0,_ZN7testing8DoubleEqEd
FN:3644,_ZN7testing10DoubleNearEdd
FNDA:0,_ZN7testing10DoubleNearEdd
DA:90,0
DA:93,0
DA:121,0
DA:137,0
DA:142,0
DA:153,0
DA:259,0
DA:260,0
DA:297,0
DA:298,0
DA:310,0
DA:312,0
DA:313,0
DA:315,0
DA:320,0
DA:323,0
DA:324,0
DA:333,0
DA:335,0
DA:338,0
DA:341,0
DA:342,0
DA:344,0
DA:346,0
DA:347,0
DA:348,0
DA:350,0
DA:352,0
DA:1295,0
DA:1301,0
DA:1313,0
DA:1317,0
DA:1318,0
DA:1321,0
DA:1323,0
DA:1324,0
DA:1327,0
DA:1328,0
DA:1329,0
DA:1332,0
DA:1333,0
DA:1348,0
DA:1349,0
DA:1365,0
DA:1366,0
DA:1367,0
DA:1372,0
DA:1376,0
DA:1377,0
DA:1378,0
DA:1379,0
DA:1385,0
DA:1388,0
DA:1390,0
DA:1392,0
DA:1395,0
DA:1396,0
DA:1397,0
DA:1400,0
DA:1402,0
DA:1407,0
DA:1408,0
DA:1411,0
DA:1412,0
DA:1413,0
DA:1416,0
DA:1417,0
DA:1419,0
DA:1421,0
DA:1425,0
DA:1429,0
DA:1431,0
DA:1432,0
DA:1433,0
DA:1435,0
DA:1438,0
DA:1439,0
DA:1440,0
DA:1443,0
DA:1444,0
DA:1446,0
DA:1448,0
DA:1450,0
DA:1451,0
DA:1452,0
DA:1454,0
DA:1457,0
DA:1458,0
DA:1459,0
DA:1463,0
DA:1464,0
DA:1467,0
DA:1468,0
DA:1490,0
DA:1492,0
DA:3631,0
DA:3632,0
DA:3644,0
DA:3646,0
end_of_record
SF:/usr/include/c++/9/bits/stl_uninitialized.h
FN:561,_ZNSt27__uninitialized_default_n_1ILb1EE18__uninit_default_nIPdmEET_S3_T0_
FNDA:0,_ZNSt27__uninitialized_default_n_1ILb1EE18__uninit_default_nIPdmEET_S3_T0_
FN:592,_ZSt25__uninitialized_default_nIPdmET_S1_T0_
FNDA:0,_ZSt25__uninitialized_default_nIPdmET_S1_T0_
FN:661,_ZSt27__uninitialized_default_n_aIPdmdET_S1_T0_RSaIT1_E
FNDA:0,_ZSt27__uninitialized_default_n_aIPdmdET_S1_T0_RSaIT1_E
DA:561,0
DA:566,0
DA:592,0
DA:597,0
DA:601,0
DA:661,0
DA:663,0
end_of_record
SF:/usr/include/c++/9/bits/basic_string.h
FN:243,_ZNSt7__cxx1112basic_stringIcSt11char_traitsIcESaIcEE16_M_construct_auxIPcEEvT_S7_St12__false_type
FNDA:0,_ZNSt7__cxx1112basic_stringIcSt11char_traitsIcESaIcEE16_M_construct_auxIPcEEvT_S7_St12__false_type
FN:243,_ZNSt7__cxx1112basic_stringIcSt11char_traitsIcESaIcEE16_M_construct_auxIPKcEEvT_S8_St12__false_type
FNDA:0,_ZNSt7__cxx1112basic_stringIcSt11char_traitsIcESaIcEE16_M_construct_auxIPKcEEvT_S8_St12__false_type
FN:263,_ZNSt7__cxx1112basic_stringIcSt11char_traitsIcESaIcEE12_M_constructIPcEEvT_S7_
FNDA:0,_ZNSt7__cxx1112basic_stringIcSt11char_traitsIcESaIcEE12_M_constructIPcEEvT_S7_
FN:263,_ZNSt7__cxx1112basic_stringIcSt11char_traitsIcESaIcEE12_M_constructIPKcEEvT_S8_
FNDA:0,_ZNSt7__cxx1112basic_stringIcSt11char_traitsIcESaIcEE12_M_constructIPKcEEvT_S8_
FN:525,_ZNSt7__cxx1112basic_stringIcSt11char_traitsIcESaIcEEC2IS3_EEPKcRKS3_
FNDA:0,_ZNSt7__cxx1112basic_stringIcSt11char_traitsIcESaIcEEC2IS3_EEPKcRKS3_
FN:6175,_ZSteqIcSt11char_traitsIcESaIcEEbRKNSt7__cxx1112basic_stringIT_T0_T1_EEPKS5_
FNDA:0,_ZSteqIcSt11char_traitsIcESaIcEEbRKNSt7__cxx1112basic_stringIT_T0_T1_EEPKS5_
FN:6213,_ZStneIcSt11char_traitsIcESaIcEEbRKNSt7__cxx1112basic_stringIT_T0_T1_EEPKS5_
FNDA:0,_ZStneIcSt11char_traitsIcESaIcEEbRKNSt7__cxx1112basic_stringIT_T0_T1_EEPKS5_
DA:243,0
DA:247,0
DA:248,0
DA:243,0
DA:247,0
DA:248,0
DA:263,0
DA:266,0
DA:267,0
DA:263,0
DA:266,0
DA:267,0
DA:525,0
DA:526,0
DA:527,0
DA:6175,0
DA:6177,0
DA:6213,0
DA:6215,0
end_of_record
SF:/usr/include/c++/9/ext/atomicity.h
FN:48,_ZN9__gnu_cxxL18__exchange_and_addEPVii
FNDA:0,_ZN9__gnu_cxxL18__exchange_and_addEPVii
FN:65,_ZN9__gnu_cxxL25__exchange_and_add_singleEPii
FNDA:0,_ZN9__gnu_cxxL25__exchange_and_add_singleEPii
FN:78,_ZN9__gnu_cxxL27__exchange_and_add_dispatchEPii
FNDA:0,_ZN9__gnu_cxxL27__exchange_and_add_dispatchEPii
DA:48,0
DA:49,0
DA:65,0
DA:67,0
DA:68,0
DA:69,0
DA:78,0
DA:81,0
DA:82,0
DA:84,0
end_of_record
SF:/usr/include/c++/9/iostream
end_of_record
SF:/usr/include/c++/9/bits/stl_vector.h
FN:94,_ZNSt12_Vector_baseIdSaIdEE17_Vector_impl_dataC2Ev
FNDA:0,_ZNSt12_Vector_baseIdSaIdEE17_Vector_impl_dataC2Ev
FN:106,_ZNSt12_Vector_baseIdSaIdEE17_Vector_impl_data12_M_copy_dataERKS2_
FNDA:0,_ZNSt12_Vector_baseIdSaIdEE17_Vector_impl_data12_M_copy_dataERKS2_
FN:114,_ZNSt12_Vector_baseIdSaIdEE17_Vector_impl_data12_M_swap_dataERS2_
FNDA:0,_ZNSt12_Vector_baseIdSaIdEE17_Vector_impl_data12_M_swap_dataERS2_
FN:128,_ZNSt12_Vector_baseIdSaIdEE12_Vector_implC2Ev
FNDA:0,_ZNSt12_Vector_baseIdSaIdEE12_Vector_implC2Ev
FN:133,_ZNSt12_Vector_baseIdSaIdEE12_Vector_implC2ERKS0_
FNDA:0,_ZNSt12_Vector_baseIdSaIdEE12_Vector_implC2ERKS0_
FN:273,_ZNSt12_Vector_baseIdSaIdEE19_M_get_Tp_allocatorEv
FNDA:0,_ZNSt12_Vector_baseIdSaIdEE19_M_get_Tp_allocatorEv
FN:277,_ZNKSt12_Vector_baseIdSaIdEE19_M_get_Tp_allocatorEv
FNDA:0,_ZNKSt12_Vector_baseIdSaIdEE19_M_get_Tp_allocatorEv
FN:281,_ZNKSt12_Vector_baseIdSaIdEE13get_allocatorEv
FNDA:0,_ZNKSt12_Vector_baseIdSaIdEE13get_allocatorEv
FN:285,_ZNSt12_Vector_baseIdSaIdEEC2Ev
FNDA:0,_ZNSt12_Vector_baseIdSaIdEEC2Ev
FN:290,_ZNSt12_Vector_baseIdSaIdEEC2ERKS0_
FNDA:0,_ZNSt12_Vector_baseIdSaIdEEC2ERKS0_
FN:300,_ZNSt12_Vector_baseIdSaIdEEC2EmRKS0_
FNDA:0,_ZNSt12_Vector_baseIdSaIdEEC2EmRKS0_
FN:330,_ZNSt12_Vector_baseIdSaIdEED2Ev
FNDA:0,_ZNSt12_Vector_baseIdSaIdEED2Ev
FN:340,_ZNSt12_Vector_baseIdSaIdEE11_M_allocateEm
FNDA:0,_ZNSt12_Vector_baseIdSaIdEE11_M_allocateEm
FN:347,_ZNSt12_Vector_baseIdSaIdEE13_M_deallocateEPdm
FNDA:0,_ZNSt12_Vector_baseIdSaIdEE13_M_deallocateEPdm
FN:356,_ZNSt12_Vector_baseIdSaIdEE17_M_create_storageEm
FNDA:0,_ZNSt12_Vector_baseIdSaIdEE17_M_create_storageEm
FN:484,_ZNSt6vectorIdSaIdEEC2Ev
FNDA:0,_ZNSt6vectorIdSaIdEEC2Ev
FN:494,_ZNSt6vectorIdSaIdEEC2ERKS0_
FNDA:0,_ZNSt6vectorIdSaIdEEC2ERKS0_
FN:507,_ZNSt6vectorIdSaIdEEC2EmRKS0_
FNDA:0,_ZNSt6vectorIdSaIdEEC2EmRKS0_
FN:675,_ZNSt6vectorIdSaIdEED2Ev
FNDA:0,_ZNSt6vectorIdSaIdEED2Ev
FN:706,_ZNSt6vectorIdSaIdEEaSEOS1_
FNDA:0,_ZNSt6vectorIdSaIdEEaSEOS1_
FN:915,_ZNKSt6vectorIdSaIdEE4sizeEv
FNDA:0,_ZNKSt6vectorIdSaIdEE4sizeEv
FN:1040,_ZNSt6vectorIdSaIdEEixEm
FNDA:0,_ZNSt6vectorIdSaIdEEixEm
FN:1600,_ZNSt6vectorIdSaIdEE21_M_default_initializeEm
FNDA:0,_ZNSt6vectorIdSaIdEE21_M_default_initializeEm
FN:1764,_ZNSt6vectorIdSaIdEE17_S_check_init_lenEmRKS0_
FNDA:0,_ZNSt6vectorIdSaIdEE17_S_check_init_lenEmRKS0_
FN:1773,_ZNSt6vectorIdSaIdEE11_S_max_sizeERKS0_
FNDA:0,_ZNSt6vectorIdSaIdEE11_S_max_sizeERKS0_
FN:1812,_ZNSt6vectorIdSaIdEE14_M_move_assignEOS1_St17integral_constantIbLb1EE
FNDA:0,_ZNSt6vectorIdSaIdEE14_M_move_assignEOS1_St17integral_constantIbLb1EE
DA:94,0
DA:95,0
DA:96,0
DA:106,0
DA:108,0
DA:109,0
DA:110,0
DA:111,0
DA:114,0
DA:118,0
DA:119,0
DA:120,0
DA:121,0
DA:122,0
DA:128,0
DA:130,0
DA:131,0
DA:133,0
DA:134,0
DA:135,0
DA:273,0
DA:274,0
DA:277,0
DA:278,0
DA:281,0
DA:282,0
DA:285,0
DA:290,0
DA:291,0
DA:300,0
DA:301,0
DA:302,0
DA:330,0
DA:332,0
DA:333,0
DA:334,0
DA:340,0
DA:343,0
DA:347,0
DA:350,0
DA:351,0
DA:352,0
DA:356,0
DA:358,0
DA:359,0
DA:360,0
DA:361,0
DA:484,0
DA:494,0
DA:495,0
DA:507,0
DA:508,0
DA:509,0
DA:675,0
DA:677,0
DA:678,0
DA:680,0
DA:706,0
DA:708,0
DA:711,0
DA:712,0
DA:915,0
DA:916,0
DA:1040,0
DA:1043,0
DA:1600,0
DA:1602,0
DA:1603,0
DA:1604,0
DA:1605,0
DA:1764,0
DA:1766,0
DA:1767,0
DA:1769,0
DA:1773,0
DA:1778,0
DA:1780,0
DA:1781,0
DA:1812,0
DA:1814,0
DA:1815,0
DA:1816,0
DA:1817,0
DA:1818,0
end_of_record
SF:/usr/include/c++/9/cmath
FN:415,_ZSt3powIiiEN9__gnu_cxx11__promote_2IT_T0_NS0_9__promoteIS2_XsrSt12__is_integerIS2_E7__valueEE6__typeENS4_IS3_XsrS5_IS3_E7__valueEE6__typeEE6__typeES2_S3_
FNDA:30,_ZSt3powIiiEN9__gnu_cxx11__promote_2IT_T0_NS0_9__promoteIS2_XsrSt12__is_integerIS2_E7__valueEE6__typeENS4_IS3_XsrS5_IS3_E7__valueEE6__typeEE6__typeES2_S3_
FN:619,_ZSt5isnand
FNDA:163,_ZSt5isnand
DA:415,30
DA:418,30
DA:619,163
DA:620,163
end_of_record
SF:/home/john/cse701/roc/include/vectorf.hpp
FN:98,_ZN7vectorfIdEC2ERKm
FNDA:0,_ZN7vectorfIdEC2ERKm
DA:98,0
DA:100,0
DA:101,0
DA:102,0
DA:103,0
end_of_record
SF:/usr/include/c++/9/bits/shared_ptr.h
FN:139,_ZNSt10shared_ptrIKN7testing16MatcherInterfaceIRKdEEEC2IS5_vEEPT_
FNDA:0,_ZNSt10shared_ptrIKN7testing16MatcherInterfaceIRKdEEEC2IS5_vEEPT_
DA:139,0
end_of_record
SF:/usr/local/include/gtest/internal/gtest-internal.h
FN:286,_ZN7testing8internal13FloatingPointIdEC2ERKd
FNDA:0,_ZN7testing8internal13FloatingPointIdEC2ERKd
FN:313,_ZNK7testing8internal13FloatingPointIdE13exponent_bitsEv
FNDA:0,_ZNK7testing8internal13FloatingPointIdE13exponent_bitsEv
FN:316,_ZNK7testing8internal13FloatingPointIdE13fraction_bitsEv
FNDA:0,_ZNK7testing8internal13FloatingPointIdE13fraction_bitsEv
FN:322,_ZNK7testing8internal13FloatingPointIdE6is_nanEv
FNDA:0,_ZNK7testing8internal13FloatingPointIdE6is_nanEv
FN:334,_ZNK7testing8internal13FloatingPointIdE12AlmostEqualsERKS2_
FNDA:0,_ZNK7testing8internal13FloatingPointIdE12AlmostEqualsERKS2_
FN:365,_ZN7testing8internal13FloatingPointIdE24SignAndMagnitudeToBiasedERKy
FNDA:0,_ZN7testing8internal13FloatingPointIdE24SignAndMagnitudeToBiasedERKy
FN:377,_ZN7testing8internal13FloatingPointIdE38DistanceBetweenSignAndMagnitudeNumbersERKyS4_
FNDA:0,_ZN7testing8internal13FloatingPointIdE38DistanceBetweenSignAndMagnitudeNumbersERKyS4_
FN:423,_ZN7testing8internal9GetTypeIdI15TestThatTopLineEEPKvv
FNDA:564,_ZN7testing8internal9GetTypeIdI15TestThatTopLineEEPKvv
FN:442,_ZN7testing8internal15TestFactoryBaseD2Ev
FNDA:0,_ZN7testing8internal15TestFactoryBaseD2Ev
FN:442,_ZN7testing8internal15TestFactoryBaseD0Ev
FNDA:0,_ZN7testing8internal15TestFactoryBaseD0Ev
FN:449,_ZN7testing8internal15TestFactoryBaseC2Ev
FNDA:0,_ZN7testing8internal15TestFactoryBaseC2Ev
FN:460,_ZN7testing8internal15TestFactoryImplI52TestThatTopLine_ConstructsLinearLeastSquaresRow_TestE10CreateTestEv
FNDA:1,_ZN7testing8internal15TestFactoryImplI52TestThatTopLine_ConstructsLinearLeastSquaresRow_TestE10CreateTestEv
FN:460,_ZN7testing8internal15TestFactoryImplI63TestThatTopLine_CanSolveAContrivedLinearLeastSquaresSystem_TestE10CreateTestEv
FNDA:1,_ZN7testing8internal15TestFactoryImplI63TestThatTopLine_CanSolveAContrivedLinearLeastSquaresSystem_TestE10CreateTestEv
FN:460,_ZN7testing8internal15TestFactoryImplI61TestThatTopLine_WillComputeLeastSquaresSolutionOnExample_TestE10CreateTestEv
FNDA:1,_ZN7testing8internal15TestFactoryImplI61TestThatTopLine_WillComputeLeastSquaresSolutionOnExample_TestE10CreateTestEv
FN:460,_ZN7testing8internal15TestFactoryImplI92TestThatTopLine_ThrowsExceptionIfLinearLeastSquaresSystemCalledWithUnequalWRowsAndBRows_TestE10CreateTestEv
FNDA:1,_ZN7testing8internal15TestFactoryImplI92TestThatTopLine_ThrowsExceptionIfLinearLeastSquaresSystemCalledWithUnequalWRowsAndBRows_TestE10CreateTestEv
FN:460,_ZN7testing8internal15TestFactoryImplI123TestThatTopLine_ThrowsExceptionIfConstructLinearLeastSquaresSystemCalledWithWRowsUnequalToCoeffSizeMinusTOPLINE_KSTART_TestE10CreateTestEv
FNDA:1,_ZN7testing8internal15TestFactoryImplI123TestThatTopLine_ThrowsExceptionIfConstructLinearLeastSquaresSystemCalledWithWRowsUnequalToCoeffSizeMinusTOPLINE_KSTART_TestE10CreateTestEv
FN:460,_ZN7testing8internal15TestFactoryImplI102TestThatTopLine_ThrowsExceptionIfToplineCalledWithCoeffSizeLessThanTOPLINE_KSTARTPlusTOPLINE_NUSE_TestE10CreateTestEv
FNDA:1,_ZN7testing8internal15TestFactoryImplI102TestThatTopLine_ThrowsExceptionIfToplineCalledWithCoeffSizeLessThanTOPLINE_KSTARTPlusTOPLINE_NUSE_TestE10CreateTestEv
FN:481,_ZN7testing8internal12CodeLocationC2ERKNSt7__cxx1112basic_stringIcSt11char_traitsIcESaIcEEEi
FNDA:0,_ZN7testing8internal12CodeLocationC2ERKNSt7__cxx1112basic_stringIcSt11char_traitsIcESaIcEEEi
FN:494,_ZN7testing8internal19GetNotDefaultOrNullEPFvvES2_
FNDA:0,_ZN7testing8internal19GetNotDefaultOrNullEPFvvES2_
FN:509,_ZN7testing8internal16SuiteApiResolverI15TestThatTopLineE19GetSetUpCaseOrSuiteEPKci
FNDA:564,_ZN7testing8internal16SuiteApiResolverI15TestThatTopLineE19GetSetUpCaseOrSuiteEPKci
FN:524,_ZN7testing8internal16SuiteApiResolverI15TestThatTopLineE22GetTearDownCaseOrSuiteEPKci
FNDA:564,_ZN7testing8internal16SuiteApiResolverI15TestThatTopLineE22GetTearDownCaseOrSuiteEPKci
FN:823,_ZN7testing8internal12ConstCharPtrC2EPKc
FNDA:0,_ZN7testing8internal12ConstCharPtrC2EPKc
FN:824,_ZNK7testing8internal12ConstCharPtrcvbEv
FNDA:0,_ZNK7testing8internal12ConstCharPtrcvbEv
DA:286,0
DA:313,0
DA:316,0
DA:322,0
DA:325,0
DA:334,0
DA:337,0
DA:339,0
DA:340,0
DA:365,0
DA:366,0
DA:368,0
DA:371,0
DA:377,0
DA:379,0
DA:380,0
DA:381,0
DA:423,564
DA:428,564
DA:442,0
DA:442,0
DA:449,0
DA:460,1
DA:460,1
DA:460,1
DA:460,1
DA:460,1
DA:460,1
DA:481,0
DA:482,0
DA:494,0
DA:496,0
DA:509,564
DA:512,564
DA:514,564
DA:516,564
DA:519,0
DA:521,564
DA:524,564
DA:527,564
DA:529,564
DA:531,564
DA:534,0
DA:536,564
DA:823,0
DA:824,0
end_of_record
SF:/usr/local/include/gtest/internal/gtest-type-util.h
FN:64,_ZN7testing8internal31CanonicalizeForStdLibVersioningENSt7__cxx1112basic_stringIcSt11char_traitsIcESaIcEEE
FNDA:0,_ZN7testing8internal31CanonicalizeForStdLibVersioningENSt7__cxx1112basic_stringIcSt11char_traitsIcESaIcEEE
FN:80,_ZN7testing8internal11GetTypeNameIKdEENSt7__cxx1112basic_stringIcSt11char_traitsIcESaIcEEEv
FNDA:0,_ZN7testing8internal11GetTypeNameIKdEENSt7__cxx1112basic_stringIcSt11char_traitsIcESaIcEEEv
DA:64,0
DA:66,0
DA:67,0
DA:68,0
DA:70,0
DA:73,0
DA:80,0
DA:83,0
DA:85,0
DA:91,0
DA:92,0
DA:93,0
DA:94,0
end_of_record
SF:/usr/include/c++/9/ext/alloc_traits.h
FN:97,_ZN9__gnu_cxx14__alloc_traitsISaIcEcE17_S_select_on_copyERKS1_
FNDA:0,_ZN9__gnu_cxx14__alloc_traitsISaIcEcE17_S_select_on_copyERKS1_
DA:97,0
DA:98,0
end_of_record
SF:/usr/include/x86_64-linux-gnu/c++/9/bits/gthr-default.h
FN:248,_ZL18__gthread_active_pv
FNDA:0,_ZL18__gthread_active_pv
DA:248,0
DA:252,0
end_of_record
SF:/usr/include/c++/9/bits/basic_string.tcc
FN:206,_ZNSt7__cxx1112basic_stringIcSt11char_traitsIcESaIcEE12_M_constructIPcEEvT_S7_St20forward_iterator_tag
FNDA:0,_ZNSt7__cxx1112basic_stringIcSt11char_traitsIcESaIcEE12_M_constructIPcEEvT_S7_St20forward_iterator_tag
FN:206,_ZNSt7__cxx1112basic_stringIcSt11char_traitsIcESaIcEE12_M_constructIPKcEEvT_S8_St20forward_iterator_tag
FNDA:0,_ZNSt7__cxx1112basic_stringIcSt11char_traitsIcESaIcEE12_M_constructIPKcEEvT_S8_St20forward_iterator_tag
DA:206,0
DA:211,0
DA:212,0
DA:215,0
DA:217,0
DA:219,0
DA:220,0
DA:225,0
DA:226,0
DA:228,0
DA:229,0
DA:232,0
DA:233,0
DA:206,0
DA:211,0
DA:212,0
DA:215,0
DA:217,0
DA:219,0
DA:220,0
DA:225,0
DA:226,0
DA:228,0
DA:229,0
DA:232,0
DA:233,0
end_of_record
SF:/home/john/cse701/roc/test/toplineTests.cpp
FN:23,_ZN15TestThatTopLine5SetUpEv
FNDA:6,_ZN15TestThatTopLine5SetUpEv
FN:29,_ZN15TestThatTopLine8TearDownEv
